# This unexport list uses the Itanium mangling rules [1] to hide any symbols
# emitted from libc++ headers.
# [1]: https://itanium-cxx-abi.github.io/cxx-abi/abi.html#mangle.type

# std:: namespace, with any valid combination of restrict (r), volatile (V), or const (K)
__ZSt*
__Z[KVr]St*
__ZK[Vr]St*
__ZKVrSt*

# nested std:: namespace, with the above qualifiers
__ZNSt*
__ZN[KVr]St*
__ZNK[Vr]St*
__ZNKVrSt*

# vtable for std::, with the above qualifiers
__ZTVSt*
__ZTV[KVr]St*
__ZTVK[Vr]St*
__ZTVKVrSt*

# typeinfo for std::
__ZT[IS]St*

# global operator new and new[]
__Zn[wa]*

# global operator delete and delete[]
__Zd[la]*

# ICU symbols to shut up compiler
__ZN3icu13IcuCApiHelperI13USimpleNumberNS_6number4impl17USimpleNumberDataELi1397640448EE10exportForCEv
__ZN3icu13IcuCApiHelperI13USimpleNumberNS_6number4impl17USimpleNumberDataELi1397640448EE8validateEPKS1_R10UErrorCode
__ZN3icu13IcuCApiHelperI13USimpleNumberNS_6number4impl17USimpleNumberDataELi1397640448EE8validateEPS1_R10UErrorCode
__ZN3icu13IcuCApiHelperI14UFormattedListNS_18UFormattedListImplELi1179407188EE10exportForCEv
__ZN3icu13IcuCApiHelperI14UFormattedListNS_18UFormattedListImplELi1179407188EE8validateEPKS1_R10UErrorCode
__ZN3icu13IcuCApiHelperI14UFormattedListNS_18UFormattedListImplELi1179407188EE8validateEPS1_R10UErrorCode
__ZN3icu13IcuCApiHelperI15UFormattedValueNS_19UFormattedValueImplELi1430672896EE8validateEPKS1_R10UErrorCode
__ZN3icu13IcuCApiHelperI16UFormattedNumberNS_6number4impl20UFormattedNumberImplELi1178881536EE10exportForCEv
__ZN3icu13IcuCApiHelperI16UFormattedNumberNS_6number4impl20UFormattedNumberImplELi1178881536EE8validateEPKS1_R10UErrorCode
__ZN3icu13IcuCApiHelperI16UFormattedNumberNS_6number4impl20UFormattedNumberImplELi1178881536EE8validateEPS1_R10UErrorCode
__ZN3icu13IcuCApiHelperI16UNumberFormatterNS_6number4impl20UNumberFormatterDataELi1313231360EE10exportForCEv
__ZN3icu13IcuCApiHelperI16UNumberFormatterNS_6number4impl20UNumberFormatterDataELi1313231360EE8validateEPKS1_R10UErrorCode
__ZN3icu13IcuCApiHelperI16UNumberFormatterNS_6number4impl20UNumberFormatterDataELi1313231360EE8validateEPS1_R10UErrorCode
__ZN3icu13IcuCApiHelperI21UFormattedNumberRangeNS_6number4impl25UFormattedNumberRangeImplELi1178881536EE10exportForCEv
__ZN3icu13IcuCApiHelperI21UFormattedNumberRangeNS_6number4impl25UFormattedNumberRangeImplELi1178881536EE8validateEPKS1_R10UErrorCode
__ZN3icu13IcuCApiHelperI21UFormattedNumberRangeNS_6number4impl25UFormattedNumberRangeImplELi1178881536EE8validateEPS1_R10UErrorCode
__ZN3icu13IcuCApiHelperI21UNumberRangeFormatterNS_6number4impl25UNumberRangeFormatterDataELi1314014720EE10exportForCEv
__ZN3icu13IcuCApiHelperI21UNumberRangeFormatterNS_6number4impl25UNumberRangeFormatterDataELi1314014720EE8validateEPKS1_R10UErrorCode
__ZN3icu13IcuCApiHelperI21UNumberRangeFormatterNS_6number4impl25UNumberRangeFormatterDataELi1314014720EE8validateEPS1_R10UErrorCode
__ZN3icu13IcuCApiHelperI22UFormattedDateIntervalNS_26UFormattedDateIntervalImplELi1178880342EE10exportForCEv
__ZN3icu13IcuCApiHelperI22UFormattedDateIntervalNS_26UFormattedDateIntervalImplELi1178880342EE8validateEPKS1_R10UErrorCode
__ZN3icu13IcuCApiHelperI22UFormattedDateIntervalNS_26UFormattedDateIntervalImplELi1178880342EE8validateEPS1_R10UErrorCode
__ZN3icu13IcuCApiHelperI22USimpleNumberFormatterNS_6number4impl26USimpleNumberFormatterDataELi1397638656EE10exportForCEv
__ZN3icu13IcuCApiHelperI22USimpleNumberFormatterNS_6number4impl26USimpleNumberFormatterDataELi1397638656EE8validateEPKS1_R10UErrorCode
__ZN3icu13IcuCApiHelperI22USimpleNumberFormatterNS_6number4impl26USimpleNumberFormatterDataELi1397638656EE8validateEPS1_R10UErrorCode
__ZN3icu13IcuCApiHelperI25UConstrainedFieldPositionNS_29UConstrainedFieldPositionImplELi1430472192EE10exportForCEv
__ZN3icu13IcuCApiHelperI25UConstrainedFieldPositionNS_29UConstrainedFieldPositionImplELi1430472192EE8validateEPKS1_R10UErrorCode
__ZN3icu13IcuCApiHelperI25UConstrainedFieldPositionNS_29UConstrainedFieldPositionImplELi1430472192EE8validateEPS1_R10UErrorCode
__ZN3icu13IcuCApiHelperI26UFormattedRelativeDateTimeNS_30UFormattedRelativeDateTimeImplELi1179796564EE10exportForCEv
__ZN3icu13IcuCApiHelperI26UFormattedRelativeDateTimeNS_30UFormattedRelativeDateTimeImplELi1179796564EE8validateEPKS1_R10UErrorCode
__ZN3icu13IcuCApiHelperI26UFormattedRelativeDateTimeNS_30UFormattedRelativeDateTimeImplELi1179796564EE8validateEPS1_R10UErrorCode
__ZN3icu13umtx_initOnceI15UPropertySourceEEvRNS_9UInitOnceEPFvT_R10UErrorCodeES4_S6_
__ZN3icu13umtx_initOnceI19USystemTimeZoneTypeEEvRNS_9UInitOnceEPFvT_R10UErrorCodeES4_S6_
__ZN3icu13umtx_initOnceI9UPropertyEEvRNS_9UInitOnceEPFvT_R10UErrorCodeES4_S6_
__ZN3icu13umtx_initOnceIPKNS_18CollationTailoringEEEvRNS_9UInitOnceEPFvT_R10UErrorCodeES6_S8_
__ZN3icu13umtx_initOnceIPKcEEvRNS_9UInitOnceEPFvT_R10UErrorCodeES5_S7_
__ZN3icu13umtx_initOnceIPNS_13OlsonTimeZoneEEEvRNS_9UInitOnceEPFvT_R10UErrorCodeES5_S7_
__ZN3icu13umtx_initOnceIPNS_15Normalizer2ImplEEEvRNS_9UInitOnceEPFvT_R10UErrorCodeES5_S7_
__ZN3icu17double_conversion7BitCastIdyEET_RKT0_
__ZN3icu17double_conversion7BitCastIfjEET_RKT0_
__ZN3icu17double_conversion7BitCastIjfEET_RKT0_
__ZN3icu17double_conversion7BitCastIydEET_RKT0_
__ZN3icu18MessagePatternListINS_14MessagePattern4PartELi32EE24ensureCapacityForOneMoreEiR10UErrorCode
__ZN3icu18MessagePatternListINS_14MessagePattern4PartELi32EE8copyFromERKS3_iR10UErrorCode
__ZN3icu18MessagePatternListIdLi8EE24ensureCapacityForOneMoreEiR10UErrorCode
__ZN3icu18MessagePatternListIdLi8EE8copyFromERKS1_iR10UErrorCode
__ZNK3icu13IcuCApiHelperI15UFormattedValueNS_19UFormattedValueImplELi1430672896EE15exportConstForCEv
__ZNK3icu17double_conversion23StringToDoubleConverter12StringToIeeeIPKcEEdT_ibPi
__ZNK3icu17double_conversion23StringToDoubleConverter12StringToIeeeIPKtEEdT_ibPi
__ZNK3icu25RelativeDateTimeFormatter15doFormatToValueIMS0_KFv14UDateDirection17UDateAbsoluteUnitRNS_29FormattedRelativeDateTimeDataER10UErrorCodeEJS2_S3_EEENS_25FormattedRelativeDateTimeET_S7_DpT0_
__ZNK3icu25RelativeDateTimeFormatter15doFormatToValueIMS0_KFvd14UDateDirection17UDateRelativeUnitRNS_29FormattedRelativeDateTimeDataER10UErrorCodeEJdS2_S3_EEENS_25FormattedRelativeDateTimeET_S7_DpT0_
__ZNK3icu25RelativeDateTimeFormatter15doFormatToValueIMS0_KFvd21URelativeDateTimeUnitRNS_29FormattedRelativeDateTimeDataER10UErrorCodeEJdS2_EEENS_25FormattedRelativeDateTimeET_S6_DpT0_
__ZNK3icu25RelativeDateTimeFormatter8doFormatIMS0_KFv14UDateDirection17UDateAbsoluteUnitRNS_29FormattedRelativeDateTimeDataER10UErrorCodeEJS2_S3_EEERNS_13UnicodeStringET_SB_S7_DpT0_
__ZNK3icu25RelativeDateTimeFormatter8doFormatIMS0_KFvd14UDateDirection17UDateRelativeUnitRNS_29FormattedRelativeDateTimeDataER10UErrorCodeEJdS2_S3_EEERNS_13UnicodeStringET_SB_S7_DpT0_
__ZNK3icu25RelativeDateTimeFormatter8doFormatIMS0_KFvd21URelativeDateTimeUnitRNS_29FormattedRelativeDateTimeDataER10UErrorCodeEJdS2_EEERNS_13UnicodeStringET_SA_S6_DpT0_
__ZNK3icu6number23NumberFormatterSettingsINS0_24LocalizedNumberFormatterEE10toSkeletonER10UErrorCode
__ZNK3icu6number23NumberFormatterSettingsINS0_24LocalizedNumberFormatterEE11copyErrorToER10UErrorCode
__ZNK3icu6number23NumberFormatterSettingsINS0_26UnlocalizedNumberFormatterEE10toSkeletonER10UErrorCode
__ZNK3icu6number23NumberFormatterSettingsINS0_26UnlocalizedNumberFormatterEE11copyErrorToER10UErrorCode
__ZNK3icu6number28NumberRangeFormatterSettingsINS0_29LocalizedNumberRangeFormatterEE11copyErrorToER10UErrorCode
__ZNK3icu6number28NumberRangeFormatterSettingsINS0_31UnlocalizedNumberRangeFormatterEE11copyErrorToER10UErrorCode
__ZNKR3icu6number23NumberFormatterSettingsINS0_24LocalizedNumberFormatterEE12adoptPerUnitEPNS_11MeasureUnitE
__ZNKR3icu6number23NumberFormatterSettingsINS0_24LocalizedNumberFormatterEE12adoptSymbolsEPNS_15NumberingSystemE
__ZNKR3icu6number23NumberFormatterSettingsINS0_24LocalizedNumberFormatterEE12integerWidthERKNS0_12IntegerWidthE
__ZNKR3icu6number23NumberFormatterSettingsINS0_24LocalizedNumberFormatterEE12roundingModeE25UNumberFormatRoundingMode
__ZNKR3icu6number23NumberFormatterSettingsINS0_24LocalizedNumberFormatterEE14displayOptionsERKNS_14DisplayOptionsE
__ZNKR3icu6number23NumberFormatterSettingsINS0_24LocalizedNumberFormatterEE15unitDisplayCaseENS_11StringPieceE
__ZNKR3icu6number23NumberFormatterSettingsINS0_24LocalizedNumberFormatterEE4signE18UNumberSignDisplay
__ZNKR3icu6number23NumberFormatterSettingsINS0_24LocalizedNumberFormatterEE4unitERKNS_11MeasureUnitE
__ZNKR3icu6number23NumberFormatterSettingsINS0_24LocalizedNumberFormatterEE5cloneEv
__ZNKR3icu6number23NumberFormatterSettingsINS0_24LocalizedNumberFormatterEE5scaleERKNS0_5ScaleE
__ZNKR3icu6number23NumberFormatterSettingsINS0_24LocalizedNumberFormatterEE5usageENS_11StringPieceE
__ZNKR3icu6number23NumberFormatterSettingsINS0_24LocalizedNumberFormatterEE6macrosEONS0_4impl10MacroPropsE
__ZNKR3icu6number23NumberFormatterSettingsINS0_24LocalizedNumberFormatterEE6macrosERKNS0_4impl10MacroPropsE
__ZNKR3icu6number23NumberFormatterSettingsINS0_24LocalizedNumberFormatterEE7decimalE30UNumberDecimalSeparatorDisplay
__ZNKR3icu6number23NumberFormatterSettingsINS0_24LocalizedNumberFormatterEE7paddingERKNS0_4impl6PadderE
__ZNKR3icu6number23NumberFormatterSettingsINS0_24LocalizedNumberFormatterEE7perUnitERKNS_11MeasureUnitE
__ZNKR3icu6number23NumberFormatterSettingsINS0_24LocalizedNumberFormatterEE7symbolsERKNS_20DecimalFormatSymbolsE
__ZNKR3icu6number23NumberFormatterSettingsINS0_24LocalizedNumberFormatterEE8groupingE23UNumberGroupingStrategy
__ZNKR3icu6number23NumberFormatterSettingsINS0_24LocalizedNumberFormatterEE8notationERKNS0_8NotationE
__ZNKR3icu6number23NumberFormatterSettingsINS0_24LocalizedNumberFormatterEE9adoptUnitEPNS_11MeasureUnitE
__ZNKR3icu6number23NumberFormatterSettingsINS0_24LocalizedNumberFormatterEE9precisionERKNS0_9PrecisionE
__ZNKR3icu6number23NumberFormatterSettingsINS0_24LocalizedNumberFormatterEE9thresholdEi
__ZNKR3icu6number23NumberFormatterSettingsINS0_24LocalizedNumberFormatterEE9unitWidthE16UNumberUnitWidth
__ZNKR3icu6number23NumberFormatterSettingsINS0_26UnlocalizedNumberFormatterEE12adoptPerUnitEPNS_11MeasureUnitE
__ZNKR3icu6number23NumberFormatterSettingsINS0_26UnlocalizedNumberFormatterEE12adoptSymbolsEPNS_15NumberingSystemE
__ZNKR3icu6number23NumberFormatterSettingsINS0_26UnlocalizedNumberFormatterEE12integerWidthERKNS0_12IntegerWidthE
__ZNKR3icu6number23NumberFormatterSettingsINS0_26UnlocalizedNumberFormatterEE12roundingModeE25UNumberFormatRoundingMode
__ZNKR3icu6number23NumberFormatterSettingsINS0_26UnlocalizedNumberFormatterEE14displayOptionsERKNS_14DisplayOptionsE
__ZNKR3icu6number23NumberFormatterSettingsINS0_26UnlocalizedNumberFormatterEE15unitDisplayCaseENS_11StringPieceE
__ZNKR3icu6number23NumberFormatterSettingsINS0_26UnlocalizedNumberFormatterEE4signE18UNumberSignDisplay
__ZNKR3icu6number23NumberFormatterSettingsINS0_26UnlocalizedNumberFormatterEE4unitERKNS_11MeasureUnitE
__ZNKR3icu6number23NumberFormatterSettingsINS0_26UnlocalizedNumberFormatterEE5cloneEv
__ZNKR3icu6number23NumberFormatterSettingsINS0_26UnlocalizedNumberFormatterEE5scaleERKNS0_5ScaleE
__ZNKR3icu6number23NumberFormatterSettingsINS0_26UnlocalizedNumberFormatterEE5usageENS_11StringPieceE
__ZNKR3icu6number23NumberFormatterSettingsINS0_26UnlocalizedNumberFormatterEE6macrosEONS0_4impl10MacroPropsE
__ZNKR3icu6number23NumberFormatterSettingsINS0_26UnlocalizedNumberFormatterEE6macrosERKNS0_4impl10MacroPropsE
__ZNKR3icu6number23NumberFormatterSettingsINS0_26UnlocalizedNumberFormatterEE7decimalE30UNumberDecimalSeparatorDisplay
__ZNKR3icu6number23NumberFormatterSettingsINS0_26UnlocalizedNumberFormatterEE7paddingERKNS0_4impl6PadderE
__ZNKR3icu6number23NumberFormatterSettingsINS0_26UnlocalizedNumberFormatterEE7perUnitERKNS_11MeasureUnitE
__ZNKR3icu6number23NumberFormatterSettingsINS0_26UnlocalizedNumberFormatterEE7symbolsERKNS_20DecimalFormatSymbolsE
__ZNKR3icu6number23NumberFormatterSettingsINS0_26UnlocalizedNumberFormatterEE8groupingE23UNumberGroupingStrategy
__ZNKR3icu6number23NumberFormatterSettingsINS0_26UnlocalizedNumberFormatterEE8notationERKNS0_8NotationE
__ZNKR3icu6number23NumberFormatterSettingsINS0_26UnlocalizedNumberFormatterEE9adoptUnitEPNS_11MeasureUnitE
__ZNKR3icu6number23NumberFormatterSettingsINS0_26UnlocalizedNumberFormatterEE9precisionERKNS0_9PrecisionE
__ZNKR3icu6number23NumberFormatterSettingsINS0_26UnlocalizedNumberFormatterEE9thresholdEi
__ZNKR3icu6number23NumberFormatterSettingsINS0_26UnlocalizedNumberFormatterEE9unitWidthE16UNumberUnitWidth
__ZNKR3icu6number28NumberRangeFormatterSettingsINS0_29LocalizedNumberRangeFormatterEE16identityFallbackE28UNumberRangeIdentityFallback
__ZNKR3icu6number28NumberRangeFormatterSettingsINS0_29LocalizedNumberRangeFormatterEE19numberFormatterBothEONS0_26UnlocalizedNumberFormatterE
__ZNKR3icu6number28NumberRangeFormatterSettingsINS0_29LocalizedNumberRangeFormatterEE19numberFormatterBothERKNS0_26UnlocalizedNumberFormatterE
__ZNKR3icu6number28NumberRangeFormatterSettingsINS0_29LocalizedNumberRangeFormatterEE20numberFormatterFirstEONS0_26UnlocalizedNumberFormatterE
__ZNKR3icu6number28NumberRangeFormatterSettingsINS0_29LocalizedNumberRangeFormatterEE20numberFormatterFirstERKNS0_26UnlocalizedNumberFormatterE
__ZNKR3icu6number28NumberRangeFormatterSettingsINS0_29LocalizedNumberRangeFormatterEE21numberFormatterSecondEONS0_26UnlocalizedNumberFormatterE
__ZNKR3icu6number28NumberRangeFormatterSettingsINS0_29LocalizedNumberRangeFormatterEE21numberFormatterSecondERKNS0_26UnlocalizedNumberFormatterE
__ZNKR3icu6number28NumberRangeFormatterSettingsINS0_29LocalizedNumberRangeFormatterEE5cloneEv
__ZNKR3icu6number28NumberRangeFormatterSettingsINS0_29LocalizedNumberRangeFormatterEE8collapseE20UNumberRangeCollapse
__ZNKR3icu6number28NumberRangeFormatterSettingsINS0_31UnlocalizedNumberRangeFormatterEE16identityFallbackE28UNumberRangeIdentityFallback
__ZNKR3icu6number28NumberRangeFormatterSettingsINS0_31UnlocalizedNumberRangeFormatterEE19numberFormatterBothEONS0_26UnlocalizedNumberFormatterE
__ZNKR3icu6number28NumberRangeFormatterSettingsINS0_31UnlocalizedNumberRangeFormatterEE19numberFormatterBothERKNS0_26UnlocalizedNumberFormatterE
__ZNKR3icu6number28NumberRangeFormatterSettingsINS0_31UnlocalizedNumberRangeFormatterEE20numberFormatterFirstEONS0_26UnlocalizedNumberFormatterE
__ZNKR3icu6number28NumberRangeFormatterSettingsINS0_31UnlocalizedNumberRangeFormatterEE20numberFormatterFirstERKNS0_26UnlocalizedNumberFormatterE
__ZNKR3icu6number28NumberRangeFormatterSettingsINS0_31UnlocalizedNumberRangeFormatterEE21numberFormatterSecondEONS0_26UnlocalizedNumberFormatterE
__ZNKR3icu6number28NumberRangeFormatterSettingsINS0_31UnlocalizedNumberRangeFormatterEE21numberFormatterSecondERKNS0_26UnlocalizedNumberFormatterE
__ZNKR3icu6number28NumberRangeFormatterSettingsINS0_31UnlocalizedNumberRangeFormatterEE5cloneEv
__ZNKR3icu6number28NumberRangeFormatterSettingsINS0_31UnlocalizedNumberRangeFormatterEE8collapseE20UNumberRangeCollapse
__ZNO3icu6number23NumberFormatterSettingsINS0_24LocalizedNumberFormatterEE12adoptPerUnitEPNS_11MeasureUnitE
__ZNO3icu6number23NumberFormatterSettingsINS0_24LocalizedNumberFormatterEE12adoptSymbolsEPNS_15NumberingSystemE
__ZNO3icu6number23NumberFormatterSettingsINS0_24LocalizedNumberFormatterEE12integerWidthERKNS0_12IntegerWidthE
__ZNO3icu6number23NumberFormatterSettingsINS0_24LocalizedNumberFormatterEE12roundingModeE25UNumberFormatRoundingMode
__ZNO3icu6number23NumberFormatterSettingsINS0_24LocalizedNumberFormatterEE14displayOptionsERKNS_14DisplayOptionsE
__ZNO3icu6number23NumberFormatterSettingsINS0_24LocalizedNumberFormatterEE15unitDisplayCaseENS_11StringPieceE
__ZNO3icu6number23NumberFormatterSettingsINS0_24LocalizedNumberFormatterEE4signE18UNumberSignDisplay
__ZNO3icu6number23NumberFormatterSettingsINS0_24LocalizedNumberFormatterEE4unitERKNS_11MeasureUnitE
__ZNO3icu6number23NumberFormatterSettingsINS0_24LocalizedNumberFormatterEE5cloneEv
__ZNO3icu6number23NumberFormatterSettingsINS0_24LocalizedNumberFormatterEE5scaleERKNS0_5ScaleE
__ZNO3icu6number23NumberFormatterSettingsINS0_24LocalizedNumberFormatterEE5usageENS_11StringPieceE
__ZNO3icu6number23NumberFormatterSettingsINS0_24LocalizedNumberFormatterEE6macrosEONS0_4impl10MacroPropsE
__ZNO3icu6number23NumberFormatterSettingsINS0_24LocalizedNumberFormatterEE6macrosERKNS0_4impl10MacroPropsE
__ZNO3icu6number23NumberFormatterSettingsINS0_24LocalizedNumberFormatterEE7decimalE30UNumberDecimalSeparatorDisplay
__ZNO3icu6number23NumberFormatterSettingsINS0_24LocalizedNumberFormatterEE7paddingERKNS0_4impl6PadderE
__ZNO3icu6number23NumberFormatterSettingsINS0_24LocalizedNumberFormatterEE7perUnitERKNS_11MeasureUnitE
__ZNO3icu6number23NumberFormatterSettingsINS0_24LocalizedNumberFormatterEE7symbolsERKNS_20DecimalFormatSymbolsE
__ZNO3icu6number23NumberFormatterSettingsINS0_24LocalizedNumberFormatterEE8groupingE23UNumberGroupingStrategy
__ZNO3icu6number23NumberFormatterSettingsINS0_24LocalizedNumberFormatterEE8notationERKNS0_8NotationE
__ZNO3icu6number23NumberFormatterSettingsINS0_24LocalizedNumberFormatterEE9adoptUnitEPNS_11MeasureUnitE
__ZNO3icu6number23NumberFormatterSettingsINS0_24LocalizedNumberFormatterEE9precisionERKNS0_9PrecisionE
__ZNO3icu6number23NumberFormatterSettingsINS0_24LocalizedNumberFormatterEE9thresholdEi
__ZNO3icu6number23NumberFormatterSettingsINS0_24LocalizedNumberFormatterEE9unitWidthE16UNumberUnitWidth
__ZNO3icu6number23NumberFormatterSettingsINS0_26UnlocalizedNumberFormatterEE12adoptPerUnitEPNS_11MeasureUnitE
__ZNO3icu6number23NumberFormatterSettingsINS0_26UnlocalizedNumberFormatterEE12adoptSymbolsEPNS_15NumberingSystemE
__ZNO3icu6number23NumberFormatterSettingsINS0_26UnlocalizedNumberFormatterEE12integerWidthERKNS0_12IntegerWidthE
__ZNO3icu6number23NumberFormatterSettingsINS0_26UnlocalizedNumberFormatterEE12roundingModeE25UNumberFormatRoundingMode
__ZNO3icu6number23NumberFormatterSettingsINS0_26UnlocalizedNumberFormatterEE14displayOptionsERKNS_14DisplayOptionsE
__ZNO3icu6number23NumberFormatterSettingsINS0_26UnlocalizedNumberFormatterEE15unitDisplayCaseENS_11StringPieceE
__ZNO3icu6number23NumberFormatterSettingsINS0_26UnlocalizedNumberFormatterEE4signE18UNumberSignDisplay
__ZNO3icu6number23NumberFormatterSettingsINS0_26UnlocalizedNumberFormatterEE4unitERKNS_11MeasureUnitE
__ZNO3icu6number23NumberFormatterSettingsINS0_26UnlocalizedNumberFormatterEE5cloneEv
__ZNO3icu6number23NumberFormatterSettingsINS0_26UnlocalizedNumberFormatterEE5scaleERKNS0_5ScaleE
__ZNO3icu6number23NumberFormatterSettingsINS0_26UnlocalizedNumberFormatterEE5usageENS_11StringPieceE
__ZNO3icu6number23NumberFormatterSettingsINS0_26UnlocalizedNumberFormatterEE6macrosEONS0_4impl10MacroPropsE
__ZNO3icu6number23NumberFormatterSettingsINS0_26UnlocalizedNumberFormatterEE6macrosERKNS0_4impl10MacroPropsE
__ZNO3icu6number23NumberFormatterSettingsINS0_26UnlocalizedNumberFormatterEE7decimalE30UNumberDecimalSeparatorDisplay
__ZNO3icu6number23NumberFormatterSettingsINS0_26UnlocalizedNumberFormatterEE7paddingERKNS0_4impl6PadderE
__ZNO3icu6number23NumberFormatterSettingsINS0_26UnlocalizedNumberFormatterEE7perUnitERKNS_11MeasureUnitE
__ZNO3icu6number23NumberFormatterSettingsINS0_26UnlocalizedNumberFormatterEE7symbolsERKNS_20DecimalFormatSymbolsE
__ZNO3icu6number23NumberFormatterSettingsINS0_26UnlocalizedNumberFormatterEE8groupingE23UNumberGroupingStrategy
__ZNO3icu6number23NumberFormatterSettingsINS0_26UnlocalizedNumberFormatterEE8notationERKNS0_8NotationE
__ZNO3icu6number23NumberFormatterSettingsINS0_26UnlocalizedNumberFormatterEE9adoptUnitEPNS_11MeasureUnitE
__ZNO3icu6number23NumberFormatterSettingsINS0_26UnlocalizedNumberFormatterEE9precisionERKNS0_9PrecisionE
__ZNO3icu6number23NumberFormatterSettingsINS0_26UnlocalizedNumberFormatterEE9thresholdEi
__ZNO3icu6number23NumberFormatterSettingsINS0_26UnlocalizedNumberFormatterEE9unitWidthE16UNumberUnitWidth
__ZNO3icu6number28NumberRangeFormatterSettingsINS0_29LocalizedNumberRangeFormatterEE16identityFallbackE28UNumberRangeIdentityFallback
__ZNO3icu6number28NumberRangeFormatterSettingsINS0_29LocalizedNumberRangeFormatterEE19numberFormatterBothEONS0_26UnlocalizedNumberFormatterE
__ZNO3icu6number28NumberRangeFormatterSettingsINS0_29LocalizedNumberRangeFormatterEE19numberFormatterBothERKNS0_26UnlocalizedNumberFormatterE
__ZNO3icu6number28NumberRangeFormatterSettingsINS0_29LocalizedNumberRangeFormatterEE20numberFormatterFirstEONS0_26UnlocalizedNumberFormatterE
__ZNO3icu6number28NumberRangeFormatterSettingsINS0_29LocalizedNumberRangeFormatterEE20numberFormatterFirstERKNS0_26UnlocalizedNumberFormatterE
__ZNO3icu6number28NumberRangeFormatterSettingsINS0_29LocalizedNumberRangeFormatterEE21numberFormatterSecondEONS0_26UnlocalizedNumberFormatterE
__ZNO3icu6number28NumberRangeFormatterSettingsINS0_29LocalizedNumberRangeFormatterEE21numberFormatterSecondERKNS0_26UnlocalizedNumberFormatterE
__ZNO3icu6number28NumberRangeFormatterSettingsINS0_29LocalizedNumberRangeFormatterEE5cloneEv
__ZNO3icu6number28NumberRangeFormatterSettingsINS0_29LocalizedNumberRangeFormatterEE8collapseE20UNumberRangeCollapse
__ZNO3icu6number28NumberRangeFormatterSettingsINS0_31UnlocalizedNumberRangeFormatterEE16identityFallbackE28UNumberRangeIdentityFallback
__ZNO3icu6number28NumberRangeFormatterSettingsINS0_31UnlocalizedNumberRangeFormatterEE19numberFormatterBothEONS0_26UnlocalizedNumberFormatterE
__ZNO3icu6number28NumberRangeFormatterSettingsINS0_31UnlocalizedNumberRangeFormatterEE19numberFormatterBothERKNS0_26UnlocalizedNumberFormatterE
__ZNO3icu6number28NumberRangeFormatterSettingsINS0_31UnlocalizedNumberRangeFormatterEE20numberFormatterFirstEONS0_26UnlocalizedNumberFormatterE
__ZNO3icu6number28NumberRangeFormatterSettingsINS0_31UnlocalizedNumberRangeFormatterEE20numberFormatterFirstERKNS0_26UnlocalizedNumberFormatterE
__ZNO3icu6number28NumberRangeFormatterSettingsINS0_31UnlocalizedNumberRangeFormatterEE21numberFormatterSecondEONS0_26UnlocalizedNumberFormatterE
__ZNO3icu6number28NumberRangeFormatterSettingsINS0_31UnlocalizedNumberRangeFormatterEE21numberFormatterSecondERKNS0_26UnlocalizedNumberFormatterE
__ZNO3icu6number28NumberRangeFormatterSettingsINS0_31UnlocalizedNumberRangeFormatterEE5cloneEv
__ZNO3icu6number28NumberRangeFormatterSettingsINS0_31UnlocalizedNumberRangeFormatterEE8collapseE20UNumberRangeCollapse