_WKURLRequestSetDefaultTimeoutInterval
__ZN6CyberKit13WebURLRequest25setDefaultTimeoutIntervalEd
__ZN6CyberKit10WebContext11allContextsEv
__ZN6CyberKitL8contextsEv
_WKStringCreateWithCFString
__ZN6CyberKit9WebStringC2ERKN3WTF6StringE
__ZN6CyberKit9APIObjectC2Ev
_WKPageCopyStandardUserAgentWithApplicationName
__ZN6CyberKit12WebPageProxy17standardUserAgentERKN3WTF6StringE
__ZN3WTF10makeStringIPKcNS_6StringES2_S3_S2_S3_EES3_T_T0_T1_T2_T3_T4_
__ZN3WTF13tryMakeStringIPKcNS_6StringES2_S3_S2_S3_EENS_10PassRefPtrINS_10StringImplEEET_T0_T1_T2_T3_T4_
_WKStringCopyCFString
_WKRelease
__ZN6CyberKit9WebStringD0Ev
_WKContextSetInvalidMessageFunction
__ZN6CyberKit10WebContext25setInvalidMessageCallbackEPFvPK14OpaqueWKStringE
_WKContextCreateWithInjectedBundlePath
__ZN6CyberKit10WebContext6createERKN3WTF6StringE
__ZN6CyberKit10WebContextC2ENS_12ProcessModelERKN3WTF6StringE
__ZN7CoreIPC18MessageReceiverMapC1Ev
__ZN6CyberKit12WebPageGroup6createERKN3WTF6StringEbb
__ZN6CyberKit12WebPageGroupC2ERKN3WTF6StringEbb
__ZN3WTF10makeStringIPKcNS_6StringEEES3_T_T0_
__ZN3WTF13tryMakeStringIPKcNS_6StringEEENS_10PassRefPtrINS_10StringImplEEET_T0_
__ZN3WTF6StringaSEOS0_
__ZN3WTF6RefPtrINS_10StringImplEEaSERKNS_10PassRefPtrIS1_EE
__ZN3WTF6RefPtrINS_10StringImplEEaSERKS2_
__ZN6CyberKitL15webPageGroupMapEv
__ZN6CyberKit15PluginInfoStoreC1Ev
__ZN6CyberKit19VisitedLinkProviderC1EPNS_10WebContextE
__ZN6CyberKit19VisitedLinkProviderC2EPNS_10WebContextE
__ZN6CyberKit16VisitedLinkTableC1Ev
__ZN6CyberKit23PlugInAutoStartProviderC1EPNS_10WebContextE
__ZN6CyberKit14StorageManager6createEv
__ZN6CyberKit14StorageManagerC2Ev
__ZN9WorkQueue6createEPKc
__ZN9WorkQueue18platformInitializeEPKc
__ZN6CyberKit27LocalStorageDatabaseTracker6createEN3WTF10PassRefPtrI9WorkQueueEE
__ZN6CyberKit10WebContext18platformInitializeEv
__ZN6CyberKit10WebContext29registerNotificationObserversEv
__ZN3WTF9RetainPtrI8NSObjectEaSI11objc_objectEERS2_PT_
__ZN6CyberKitL28enableOcclusionNotificationsEv
_WKRegisterOcclusionNotificationHandler
__ZN7CoreIPC18MessageReceiverMap18addMessageReceiverENS_15StringReferenceEPNS_15MessageReceiverE
__ZN7CoreIPC15StringReference4Hash4hashERKS0_
__ZN3WTF12StringHasher28addCharactersAssumingAlignedIhXadL_ZNS0_16defaultConverterEhEEEEvPKT_j
__ZNK3WTF12StringHasher13avalancheBitsEv
__ZN3WTF12StringHasher12addCharacterEt
__ZN6CyberKit15WebIconDatabase6createEPNS_10WebContextE
__ZN6CyberKit15WebIconDatabaseC2EPNS_10WebContextE
__ZN6CyberKit10WebContext18addMessageReceiverEN7CoreIPC15StringReferenceEPNS1_15MessageReceiverE
__ZN7CoreIPCeqERKNS_15StringReferenceES2_
__ZN6CyberKit24WebPluginSiteDataManager6createEPNS_10WebContextE
__ZN6CyberKit10WebContext13addSupplementINS_31WebApplicationCacheManagerProxyEEEvv
__ZN6CyberKit31WebApplicationCacheManagerProxy14supplementNameEv
__ZN6CyberKit31WebApplicationCacheManagerProxy6createEPNS_10WebContextE
__ZN3WTF9HashTableIN7CoreIPC15StringReferenceENS_12KeyValuePairIS2_PNS1_15MessageReceiverEEENS_24KeyValuePairKeyExtractorIS6_EENS2_4HashENS_18HashMapValueTraitsINS_10HashTraitsIS2_EENSB_IS5_EEEESC_E13allocateTableEi
__ZN3WTF9HashTableIN7CoreIPC15StringReferenceENS_12KeyValuePairIS2_PNS1_15MessageReceiverEEENS_24KeyValuePairKeyExtractorIS6_EENS2_4HashENS_18HashMapValueTraitsINS_10HashTraitsIS2_EENSB_IS5_EEEESC_E16lookupForWritingINS_22IdentityHashTranslatorIS9_EES2_EENSt3__14pairIPS6_bEERKT0_
__ZN3WTF9HashTableIN7CoreIPC15StringReferenceENS_12KeyValuePairIS2_PNS1_15MessageReceiverEEENS_24KeyValuePairKeyExtractorIS6_EENS2_4HashENS_18HashMapValueTraitsINS_10HashTraitsIS2_EENSB_IS5_EEEESC_E3addINS_17HashMapTranslatorISE_S9_EES2_S5_EENS_18HashTableAddResultINS_17HashTableIteratorIS2_S6_S8_S9_SE_SC_EEEERKT0_RKT1_
__ZN3WTF9HashTableIN7CoreIPC15StringReferenceENS_12KeyValuePairIS2_PNS1_15MessageReceiverEEENS_24KeyValuePairKeyExtractorIS6_EENS2_4HashENS_18HashMapValueTraitsINS_10HashTraitsIS2_EENSB_IS5_EEEESC_E4findINS_22IdentityHashTranslatorIS9_EES2_EENS_17HashTableIteratorIS2_S6_S8_S9_SE_SC_EERKT0_
__ZN3WTF9HashTableIN7CoreIPC15StringReferenceENS_12KeyValuePairIS2_PNS1_15MessageReceiverEEENS_24KeyValuePairKeyExtractorIS6_EENS2_4HashENS_18HashMapValueTraitsINS_10HashTraitsIS2_EENSB_IS5_EEEESC_E6expandEv
__ZN3WTF9HashTableIN7CoreIPC15StringReferenceENS_12KeyValuePairIS2_PNS1_15MessageReceiverEEENS_24KeyValuePairKeyExtractorIS6_EENS2_4HashENS_18HashMapValueTraitsINS_10HashTraitsIS2_EENSB_IS5_EEEESC_E6lookupINS_22IdentityHashTranslatorIS9_EES2_EEPS6_RKT0_
__ZN3WTF9HashTableIN7CoreIPC15StringReferenceENS_12KeyValuePairIS2_PNS1_15MessageReceiverEEENS_24KeyValuePairKeyExtractorIS6_EENS2_4HashENS_18HashMapValueTraitsINS_10HashTraitsIS2_EENSB_IS5_EEEESC_E6rehashEi
__ZN6CyberKit10WebContext13addSupplementINS_21WebCookieManagerProxyEEEvv
__ZN6CyberKit21WebCookieManagerProxy14supplementNameEv
__ZN6CyberKit21WebCookieManagerProxy6createEPNS_10WebContextE
__ZN6CyberKit10WebContext13addSupplementINS_26WebGeolocationManagerProxyEEEvv
__ZN6CyberKit26WebGeolocationManagerProxy14supplementNameEv
__ZN6CyberKit26WebGeolocationManagerProxy6createEPNS_10WebContextE
__ZN6CyberKit10WebContext13addSupplementINS_25WebKeyValueStorageManagerEEEvv
__ZN6CyberKit25WebKeyValueStorageManager14supplementNameEv
__ZN6CyberKit25WebKeyValueStorageManager6createEPNS_10WebContextE
__ZN3WTF9HashTableIPKcNS_12KeyValuePairIS2_NS_6RefPtrIN6CyberKit20WebContextSupplementEEEEENS_24KeyValuePairKeyExtractorIS8_EENS_7PtrHashIS2_EENS_18HashMapValueTraitsINS_10HashTraitsIS2_EENSE_IS7_EEEESF_E15deallocateTableEPS8_i
__ZN3WTF9HashTableIPKcNS_12KeyValuePairIS2_NS_6RefPtrIN6CyberKit20WebContextSupplementEEEEENS_24KeyValuePairKeyExtractorIS8_EENS_7PtrHashIS2_EENS_18HashMapValueTraitsINS_10HashTraitsIS2_EENSE_IS7_EEEESF_E16lookupForWritingINS_22IdentityHashTranslatorISC_EES2_EENSt3__14pairIPS8_bEERKT0_
__ZN3WTF9HashTableIPKcNS_12KeyValuePairIS2_NS_6RefPtrIN6CyberKit20WebContextSupplementEEEEENS_24KeyValuePairKeyExtractorIS8_EENS_7PtrHashIS2_EENS_18HashMapValueTraitsINS_10HashTraitsIS2_EENSE_IS7_EEEESF_E3addINS_17HashMapTranslatorISH_SC_EES2_NS_10PassRefPtrIS6_EEEENS_18HashTableAddResultINS_17HashTableIteratorIS2_S8_SA_SC_SH_SF_EEEERKT0_RKT1_
__ZN3WTF9HashTableIPKcNS_12KeyValuePairIS2_NS_6RefPtrIN6CyberKit20WebContextSupplementEEEEENS_24KeyValuePairKeyExtractorIS8_EENS_7PtrHashIS2_EENS_18HashMapValueTraitsINS_10HashTraitsIS2_EENSE_IS7_EEEESF_E4findINS_22IdentityHashTranslatorISC_EES2_EENS_17HashTableIteratorIS2_S8_SA_SC_SH_SF_EERKT0_
__ZN3WTF9HashTableIPKcNS_12KeyValuePairIS2_NS_6RefPtrIN6CyberKit20WebContextSupplementEEEEENS_24KeyValuePairKeyExtractorIS8_EENS_7PtrHashIS2_EENS_18HashMapValueTraitsINS_10HashTraitsIS2_EENSE_IS7_EEEESF_E5beginEv
__ZN3WTF9HashTableIPKcNS_12KeyValuePairIS2_NS_6RefPtrIN6CyberKit20WebContextSupplementEEEEENS_24KeyValuePairKeyExtractorIS8_EENS_7PtrHashIS2_EENS_18HashMapValueTraitsINS_10HashTraitsIS2_EENSE_IS7_EEEESF_E6expandEv
__ZN3WTF9HashTableIPKcNS_12KeyValuePairIS2_NS_6RefPtrIN6CyberKit20WebContextSupplementEEEEENS_24KeyValuePairKeyExtractorIS8_EENS_7PtrHashIS2_EENS_18HashMapValueTraitsINS_10HashTraitsIS2_EENSE_IS7_EEEESF_E6lookupINS_22IdentityHashTranslatorISC_EES2_EEPS8_RKT0_
__ZN3WTF9HashTableIPKcNS_12KeyValuePairIS2_NS_6RefPtrIN6CyberKit20WebContextSupplementEEEEENS_24KeyValuePairKeyExtractorIS8_EENS_7PtrHashIS2_EENS_18HashMapValueTraitsINS_10HashTraitsIS2_EENSE_IS7_EEEESF_E6rehashEi
__ZN6CyberKit10WebContext13addSupplementINS_25WebMediaCacheManagerProxyEEEvv
__ZN6CyberKit25WebMediaCacheManagerProxy14supplementNameEv
__ZN6CyberKit25WebMediaCacheManagerProxy6createEPNS_10WebContextE
__ZN6CyberKit10WebContext13addSupplementINS_27WebNotificationManagerProxyEEEvv
__ZN6CyberKit27WebNotificationManagerProxy14supplementNameEv
__ZN6CyberKit27WebNotificationManagerProxy6createEPNS_10WebContextE
__ZN6CyberKit10WebContext13addSupplementINS_28WebResourceCacheManagerProxyEEEvv
__ZN6CyberKit28WebResourceCacheManagerProxy14supplementNameEv
__ZN6CyberKit28WebResourceCacheManagerProxy6createEPNS_10WebContextE
__ZN6CyberKit10WebContext13addSupplementINS_23WebDatabaseManagerProxyEEEvv
__ZN6CyberKit23WebDatabaseManagerProxy14supplementNameEv
__ZN6CyberKit23WebDatabaseManagerProxy6createEPNS_10WebContextE
__ZN3WTF6VectorIPN6CyberKit10WebContextELm0ENS_15CrashOnOverflowEE14appendSlowCaseIS3_EEvRKT_
__ZN3WTF6VectorIPN6CyberKit10WebContextELm0ENS_15CrashOnOverflowEE14expandCapacityEmPKS3_
__ZN3WTF6VectorIPN6CyberKit10WebContextELm0ENS_15CrashOnOverflowEE15reserveCapacityEm
__ZN3WTF16VectorBufferBaseIPN6CyberKit10WebContextEE14allocateBufferEm
__ZNK6CyberKit10WebContext21localStorageDirectoryEv
__ZNK6CyberKit10WebContext36platformDefaultLocalStorageDirectoryEv
__ZN6CyberKit14StorageManager24setLocalStorageDirectoryERKN3WTF6StringE
__ZN6CyberKit27LocalStorageDatabaseTracker24setLocalStorageDirectoryERKN3WTF6StringE
__ZN3WTF4bindIMN6CyberKit27LocalStorageDatabaseTrackerEFvRKNS_6StringEEPS2_S3_EENS_8FunctionIFNS_15FunctionWrapperIT_E10ResultTypeEvEEESB_RKT0_RKT1_
__ZN9WorkQueue8dispatchERKN3WTF8FunctionIFvvEEE
____ZN9WorkQueue8dispatchERKN3WTF8FunctionIFvvEEE_block_invoke
__ZN3WTF17BoundFunctionImplINS_15FunctionWrapperIMN6CyberKit27LocalStorageDatabaseTrackerEFvRKNS_6StringEEEEFvPS3_S4_EEclEv
_WKContextSetIconDatabasePath
__ZN6CyberKit27LocalStorageDatabaseTracker32setLocalStorageDirectoryInternalERKN3WTF6StringE
__ZN6CyberKit10WebContext19setIconDatabasePathERKN3WTF6StringE
__ZN6CyberKit15WebIconDatabase15setDatabasePathERKN3WTF6StringE
__ZN3WTF20ThreadSafeRefCountedI9WorkQueueE5derefEv
__ZN3WTF17BoundFunctionImplINS_15FunctionWrapperIMN6CyberKit27LocalStorageDatabaseTrackerEFvRKNS_6StringEEEEFvPS3_S4_EED0Ev
__ZN3WTF17BoundFunctionImplINS_15FunctionWrapperIMN6CyberKit27LocalStorageDatabaseTrackerEFvRKNS_6StringEEEEFvPS3_S4_EED2Ev
__ZN3WTF20ThreadSafeRefCountedIN6CyberKit27LocalStorageDatabaseTrackerEE5derefEv
__ZN3WTF17BoundFunctionImplINS_15FunctionWrapperIMN6CyberKit27LocalStorageDatabaseTrackerEFvvEEEFvPS3_EEclEv
__ZN6CyberKit27LocalStorageDatabaseTracker23importOriginIdentifiersEv
__ZN6CyberKit27LocalStorageDatabaseTracker19openTrackerDatabaseENS0_23DatabaseOpeningStrategyE
__ZNK6CyberKit27LocalStorageDatabaseTracker19trackerDatabasePathEv
__ZNK6CyberKit27LocalStorageDatabaseTracker12databasePathERKN3WTF6StringE
_WKContextGetIconDatabase
_WKRetain
_WKIconDatabaseSetIconDatabaseClient
__ZN6CyberKit15WebIconDatabase28initializeIconDatabaseClientEPK20WKIconDatabaseClient
__ZN6CyberKit9APIClientI20WKIconDatabaseClientLi1EE10initializeEPKS1_
_WKPageGroupCreateWithIdentifier
_WKMutableDictionaryCreate
__ZN6CyberKit17MutableDictionaryC1Ev
__ZN6CyberKit19ImmutableDictionaryC2Ev
_WKDictionarySetItem
__ZN6CyberKit17MutableDictionary3setERKN3WTF6StringEPNS_9APIObjectE
__ZN3WTF7HashMapINS_6StringENS_6RefPtrIN6CyberKit9APIObjectEEENS_10StringHashENS_10HashTraitsIS1_EENS7_IS5_EEE3setERKS1_NS_10PassRefPtrIS4_EE
__ZN3WTF9HashTableINS_6StringENS_12KeyValuePairIS1_NS_6RefPtrIN6CyberKit9APIObjectEEEEENS_24KeyValuePairKeyExtractorIS7_EENS_10StringHashENS_18HashMapValueTraitsINS_10HashTraitsIS1_EENSC_IS6_EEEESD_E15deallocateTableEPS7_i
__ZN3WTF9HashTableINS_6StringENS_12KeyValuePairIS1_NS_6RefPtrIN6CyberKit9APIObjectEEEEENS_24KeyValuePairKeyExtractorIS7_EENS_10StringHashENS_18HashMapValueTraitsINS_10HashTraitsIS1_EENSC_IS6_EEEESD_E16lookupForWritingINS_22IdentityHashTranslatorISA_EES1_EENSt3__14pairIPS7_bEERKT0_
__ZN3WTF9HashTableINS_6StringENS_12KeyValuePairIS1_NS_6RefPtrIN6CyberKit9APIObjectEEEEENS_24KeyValuePairKeyExtractorIS7_EENS_10StringHashENS_18HashMapValueTraitsINS_10HashTraitsIS1_EENSC_IS6_EEEESD_E3addINS_17HashMapTranslatorISF_SA_EES1_NS_10PassRefPtrIS5_EEEENS_18HashTableAddResultINS_17HashTableIteratorIS1_S7_S9_SA_SF_SD_EEEERKT0_RKT1_
__ZN3WTF9HashTableINS_6StringENS_12KeyValuePairIS1_NS_6RefPtrIN6CyberKit9APIObjectEEEEENS_24KeyValuePairKeyExtractorIS7_EENS_10StringHashENS_18HashMapValueTraitsINS_10HashTraitsIS1_EENSC_IS6_EEEESD_E4findINS_22IdentityHashTranslatorISA_EES1_EENS_17HashTableIteratorIS1_S7_S9_SA_SF_SD_EERKT0_
__ZN3WTF9HashTableINS_6StringENS_12KeyValuePairIS1_NS_6RefPtrIN6CyberKit9APIObjectEEEEENS_24KeyValuePairKeyExtractorIS7_EENS_10StringHashENS_18HashMapValueTraitsINS_10HashTraitsIS1_EENSC_IS6_EEEESD_E6expandEv
__ZN3WTF9HashTableINS_6StringENS_12KeyValuePairIS1_NS_6RefPtrIN6CyberKit9APIObjectEEEEENS_24KeyValuePairKeyExtractorIS7_EENS_10StringHashENS_18HashMapValueTraitsINS_10HashTraitsIS1_EENSC_IS6_EEEESD_E6lookupINS_22IdentityHashTranslatorISA_EES1_EEPS7_RKT0_
__ZN3WTF9HashTableINS_6StringENS_12KeyValuePairIS1_NS_6RefPtrIN6CyberKit9APIObjectEEEEENS_24KeyValuePairKeyExtractorIS7_EENS_10StringHashENS_18HashMapValueTraitsINS_10HashTraitsIS1_EENSC_IS6_EEEESD_E6rehashEi
__ZN3WTF9HashTableINS_6StringENS_12KeyValuePairIS1_NS_6RefPtrIN6CyberKit9APIObjectEEEEENS_24KeyValuePairKeyExtractorIS7_EENS_10StringHashENS_18HashMapValueTraitsINS_10HashTraitsIS1_EENSC_IS6_EEEESD_E6removeEPS7_
__ZN3WTF17HashMapTranslatorINS_18HashMapValueTraitsINS_10HashTraitsINS_6StringEEENS2_INS_6RefPtrIN6CyberKit9APIObjectEEEEEEENS_10StringHashEE9translateINS_12KeyValuePairIS3_S8_EES3_NS_10PassRefPtrIS7_EEEEvRT_RKT0_RKT1_
_WKPageGroupGetPreferences
__ZNK6CyberKit12WebPageGroup11preferencesEv
__ZN6CyberKit14WebPreferencesC1ERKN3WTF6StringE
__ZN6CyberKit14WebPreferencesC2ERKN3WTF6StringE
__ZN6CyberKit19WebPreferencesStoreC1Ev
__ZN6CyberKit14WebPreferences23platformInitializeStoreEv
__ZN6CyberKit17WebPreferencesKey20javaScriptEnabledKeyEv
__ZN6CyberKitL28setBoolValueIfInUserDefaultsERKN3WTF6StringES3_RNS_19WebPreferencesStoreE
__ZN6CyberKitL7makeKeyERKN3WTF6StringES3_
__ZN3WTF10makeStringINS_6StringEPKcS1_EES1_T_T0_T1_
__ZN3WTF13tryMakeStringINS_6StringEPKcS1_EENS_10PassRefPtrINS_10StringImplEEET_T0_T1_
__ZN6CyberKit25nsStringFromCyberCoreStringERKN3WTF6StringE
__ZN6CyberKit9WebString6createERKN3WTF6StringE
__ZN6CyberKit17WebPreferencesKey26javaScriptMarkupEnabledKeyEv
__ZN6CyberKit17WebPreferencesKey27loadsImagesAutomaticallyKeyEv
__ZN6CyberKit17WebPreferencesKey47loadsSiteIconsIgnoringImageLoadingPreferenceKeyEv
__ZN6CyberKit17WebPreferencesKey17pluginsEnabledKeyEv
__ZN6CyberKit17WebPreferencesKey14javaEnabledKeyEv
__ZN6CyberKit17WebPreferencesKey27javaEnabledForLocalFilesKeyEv
__ZN6CyberKit19WebPreferencesStore18setBoolValueForKeyERKN3WTF6StringEb
__ZN6CyberKitL11valueForKeyIN3WTF7HashMapINS1_6StringEbNS1_10StringHashENS1_10HashTraitsIS3_EENS5_IbEEEEEENT_10MappedTypeERKS9_RKNS9_7KeyTypeE
__ZN6CyberKit18defaultValueForKeyIbEET_RKN3WTF6StringE
__ZN3WTF9HashTableINS_6StringENS_12KeyValuePairIS1_bEENS_24KeyValuePairKeyExtractorIS3_EENS_10StringHashENS_18HashMapValueTraitsINS_10HashTraitsIS1_EENS8_IbEEEES9_E12deleteBucketERS3_
__ZN3WTF9HashTableINS_6StringENS_12KeyValuePairIS1_bEENS_24KeyValuePairKeyExtractorIS3_EENS_10StringHashENS_18HashMapValueTraitsINS_10HashTraitsIS1_EENS8_IbEEEES9_E15deallocateTableEPS3_i
__ZN3WTF9HashTableINS_6StringENS_12KeyValuePairIS1_bEENS_24KeyValuePairKeyExtractorIS3_EENS_10StringHashENS_18HashMapValueTraitsINS_10HashTraitsIS1_EENS8_IbEEEES9_E16lookupForWritingINS_22IdentityHashTranslatorIS6_EES1_EENSt3__14pairIPS3_bEERKT0_
__ZN3WTF9HashTableINS_6StringENS_12KeyValuePairIS1_bEENS_24KeyValuePairKeyExtractorIS3_EENS_10StringHashENS_18HashMapValueTraitsINS_10HashTraitsIS1_EENS8_IbEEEES9_E3addINS_17HashMapTranslatorISB_S6_EES1_bEENS_18HashTableAddResultINS_17HashTableIteratorIS1_S3_S5_S6_SB_S9_EEEERKT0_RKT1_
__ZN3WTF9HashTableINS_6StringENS_12KeyValuePairIS1_bEENS_24KeyValuePairKeyExtractorIS3_EENS_10StringHashENS_18HashMapValueTraitsINS_10HashTraitsIS1_EENS8_IbEEEES9_E3addINS_22IdentityHashTranslatorIS6_EES1_S3_EENS_18HashTableAddResultINS_17HashTableIteratorIS1_S3_S5_S6_SB_S9_EEEERKT0_RKT1_
__ZN3WTF9HashTableINS_6StringENS_12KeyValuePairIS1_bEENS_24KeyValuePairKeyExtractorIS3_EENS_10StringHashENS_18HashMapValueTraitsINS_10HashTraitsIS1_EENS8_IbEEEES9_E4findINS_22IdentityHashTranslatorIS6_EES1_EENS_17HashTableIteratorIS1_S3_S5_S6_SB_S9_EERKT0_
__ZN3WTF9HashTableINS_6StringENS_12KeyValuePairIS1_bEENS_24KeyValuePairKeyExtractorIS3_EENS_10StringHashENS_18HashMapValueTraitsINS_10HashTraitsIS1_EENS8_IbEEEES9_E6expandEv
__ZN3WTF9HashTableINS_6StringENS_12KeyValuePairIS1_bEENS_24KeyValuePairKeyExtractorIS3_EENS_10StringHashENS_18HashMapValueTraitsINS_10HashTraitsIS1_EENS8_IbEEEES9_E6lookupINS_22IdentityHashTranslatorIS6_EES1_EEPS3_RKT0_
__ZN3WTF9HashTableINS_6StringENS_12KeyValuePairIS1_bEENS_24KeyValuePairKeyExtractorIS3_EENS_10StringHashENS_18HashMapValueTraitsINS_10HashTraitsIS1_EENS8_IbEEEES9_E6rehashEi
__ZN3WTF9HashTableINS_6StringENS_12KeyValuePairIS1_bEENS_24KeyValuePairKeyExtractorIS3_EENS_10StringHashENS_18HashMapValueTraitsINS_10HashTraitsIS1_EENS8_IbEEEES9_E6removeEPS3_
__ZN3WTF9HashTableINS_6StringENS_12KeyValuePairIS1_bEENS_24KeyValuePairKeyExtractorIS3_EENS_10StringHashENS_18HashMapValueTraitsINS_10HashTraitsIS1_EENS8_IbEEEES9_EC2ERKSC_
__ZN3WTF9HashTableINS_6StringENS_12KeyValuePairIS1_bEENS_24KeyValuePairKeyExtractorIS3_EENS_10StringHashENS_18HashMapValueTraitsINS_10HashTraitsIS1_EENS8_IbEEEES9_EaSERKSC_
__ZN6CyberKit17WebPreferencesKey36offlineWebApplicationCacheEnabledKeyEv
__ZN6CyberKit17WebPreferencesKey22localStorageEnabledKeyEv
__ZN6CyberKit17WebPreferencesKey19databasesEnabledKeyEv
__ZN6CyberKit17WebPreferencesKey20xssAuditorEnabledKeyEv
__ZN6CyberKit17WebPreferencesKey25frameFlatteningEnabledKeyEv
__ZN6CyberKit17WebPreferencesKey25developerExtrasEnabledKeyEv
__ZN6CyberKit17WebPreferencesKey25privateBrowsingEnabledKeyEv
__ZN6CyberKit17WebPreferencesKey24textAreasAreResizableKeyEv
__ZN6CyberKit17WebPreferencesKey40javaScriptCanOpenWindowsAutomaticallyKeyEv
__ZN6CyberKit17WebPreferencesKey27hyperlinkAuditingEnabledKeyEv
__ZN6CyberKit17WebPreferencesKey26needsSiteSpecificQuirksKeyEv
__ZN6CyberKit17WebPreferencesKey32acceleratedCompositingEnabledKeyEv
__ZN6CyberKit17WebPreferencesKey23forceCompositingModeKeyEv
__ZN6CyberKit17WebPreferencesKey28acceleratedDrawingEnabledKeyEv
__ZN6CyberKit17WebPreferencesKey31canvasUsesAcceleratedDrawingKeyEv
__ZN6CyberKit17WebPreferencesKey28compositingBordersVisibleKeyEv
__ZN6CyberKit17WebPreferencesKey36compositingRepaintCountersVisibleKeyEv
__ZN6CyberKit17WebPreferencesKey33tiledScrollingIndicatorVisibleKeyEv
__ZN6CyberKit17WebPreferencesKey15webGLEnabledKeyEv
__ZN6CyberKit17WebPreferencesKey28multithreadedWebGLEnabledKeyEv
__ZN6CyberKit17WebPreferencesKey30forceSoftwareWebGLRenderingKeyEv
__ZN6CyberKit17WebPreferencesKey29accelerated2dCanvasEnabledKeyEv
__ZN6CyberKit17WebPreferencesKey20cssRegionsEnabledKeyEv
__ZN6CyberKit17WebPreferencesKey24cssCompositingEnabledKeyEv
__ZN6CyberKit17WebPreferencesKey28regionBasedColumnsEnabledKeyEv
__ZN6CyberKit17WebPreferencesKey28forceFTPDirectoryListingsKeyEv
__ZN6CyberKit17WebPreferencesKey14tabsToLinksKeyEv
__ZN6CyberKit17WebPreferencesKey24dnsPrefetchingEnabledKeyEv
__ZN6CyberKit17WebPreferencesKey29webArchiveDebugModeEnabledKeyEv
__ZN6CyberKit17WebPreferencesKey34localFileContentSniffingEnabledKeyEv
__ZN6CyberKit17WebPreferencesKey16usesPageCacheKeyEv
__ZN6CyberKit17WebPreferencesKey27pageCacheSupportsPluginsKeyEv
__ZN6CyberKit17WebPreferencesKey29authorAndUserStylesEnabledKeyEv
__ZN6CyberKit17WebPreferencesKey30paginateDuringLayoutEnabledKeyEv
__ZN6CyberKit17WebPreferencesKey18domPasteAllowedKeyEv
__ZN6CyberKit17WebPreferencesKey31javaScriptCanAccessClipboardKeyEv
__ZN6CyberKit17WebPreferencesKey25shouldPrintBackgroundsKeyEv
__ZN6CyberKit17WebPreferencesKey20fullScreenEnabledKeyEv
__ZN6CyberKit17WebPreferencesKey35asynchronousSpellCheckingEnabledKeyEv
__ZN6CyberKit17WebPreferencesKey21webSecurityEnabledKeyEv
__ZN6CyberKit17WebPreferencesKey35allowUniversalAccessFromFileURLsKeyEv
__ZN6CyberKit17WebPreferencesKey30allowFileAccessFromFileURLsKeyEv
__ZN6CyberKit17WebPreferencesKey24isAVFoundationEnabledKeyEv
__ZN6CyberKit17WebPreferencesKey35mediaPlaybackRequiresUserGestureKeyEv
__ZN6CyberKit17WebPreferencesKey28mediaPlaybackAllowsInlineKeyEv
__ZN6CyberKit17WebPreferencesKey26inspectorStartsAttachedKeyEv
__ZN6CyberKit17WebPreferencesKey35inspectorUsesCyberKitUserInterfaceKeyEv
__ZN6CyberKit17WebPreferencesKey32showsToolTipOverTruncatedTextKeyEv
__ZN6CyberKit17WebPreferencesKey24mockScrollbarsEnabledKeyEv
__ZN6CyberKit17WebPreferencesKey18webAudioEnabledKeyEv
__ZN6CyberKit17WebPreferencesKey24applicationChromeModeKeyEv
__ZN6CyberKit17WebPreferencesKey33suppressesIncrementalRenderingKeyEv
__ZN6CyberKit17WebPreferencesKey32backspaceKeyNavigationEnabledKeyEv
__ZN6CyberKit17WebPreferencesKey23caretBrowsingEnabledKeyEv
__ZN6CyberKit17WebPreferencesKey25shouldDisplaySubtitlesKeyEv
__ZN6CyberKit17WebPreferencesKey24shouldDisplayCaptionsKeyEv
__ZN6CyberKit17WebPreferencesKey32shouldDisplayTextDescriptionsKeyEv
__ZN6CyberKit17WebPreferencesKey23notificationsEnabledKeyEv
__ZN6CyberKit17WebPreferencesKey32shouldRespectImageOrientationKeyEv
__ZN6CyberKit17WebPreferencesKey40wantsBalancedSetDefersLoadingBehaviorKeyEv
__ZN6CyberKit17WebPreferencesKey31requestAnimationFrameEnabledKeyEv
__ZN6CyberKit17WebPreferencesKey27diagnosticLoggingEnabledKeyEv
__ZN6CyberKit17WebPreferencesKey42asynchronousPluginInitializationEnabledKeyEv
__ZN6CyberKit17WebPreferencesKey55asynchronousPluginInitializationEnabledForAllPluginsKeyEv
__ZN6CyberKit17WebPreferencesKey45artificialPluginInitializationDelayEnabledKeyEv
__ZN6CyberKit17WebPreferencesKey20tabToLinksEnabledKeyEv
__ZN6CyberKit17WebPreferencesKey35interactiveFormValidationEnabledKeyEv
__ZN6CyberKit17WebPreferencesKey37scrollingPerformanceLoggingEnabledKeyEv
__ZN6CyberKit17WebPreferencesKey24storageBlockingPolicyKeyEv
__ZN6CyberKit17WebPreferencesKey24scrollAnimatorEnabledKeyEv
__ZN6CyberKit17WebPreferencesKey32screenFontSubstitutionEnabledKeyEv
__ZN6CyberKit17WebPreferencesKey16cookieEnabledKeyEv
__ZN6CyberKit17WebPreferencesKey28plugInSnapshottingEnabledKeyEv
__ZN6CyberKit17WebPreferencesKey21snapshotAllPlugInsKeyEv
__ZN6CyberKit17WebPreferencesKey43autostartOriginPlugInSnapshottingEnabledKeyEv
__ZN6CyberKit17WebPreferencesKey40primaryPlugInSnapshotDetectionEnabledKeyEv
__ZN6CyberKit17WebPreferencesKey19pdfPluginEnabledKeyEv
__ZN6CyberKit17WebPreferencesKey23usesEncodingDetectorKeyEv
__ZN6CyberKit17WebPreferencesKey24textAutosizingEnabledKeyEv
__ZN6CyberKit17WebPreferencesKey33aggressiveTileRetentionEnabledKeyEv
__ZN6CyberKit17WebPreferencesKey17isQTKitEnabledKeyEv
__ZN6CyberKit17WebPreferencesKey41logsPageMessagesToSystemConsoleEnabledKeyEv
__ZN6CyberKit17WebPreferencesKey47pageVisibilityBasedProcessSuppressionEnabledKeyEv
__ZN6CyberKit17WebPreferencesKey27smartInsertDeleteEnabledKeyEv
__ZN6CyberKit17WebPreferencesKey34selectTrailingWhitespaceEnabledKeyEv
__ZN6CyberKit17WebPreferencesKey29showsURLsInToolTipsEnabledKeyEv
__ZN6CyberKit17WebPreferencesKey49acceleratedCompositingForOverflowScrollEnabledKeyEv
__ZN6CyberKit17WebPreferencesKey38hiddenPageDOMTimerThrottlingEnabledKeyEv
__ZN6CyberKit17WebPreferencesKey42hiddenPageCSSAnimationSuspensionEnabledKeyEv
__ZN6CyberKit17WebPreferencesKey38lowPowerVideoAudioBufferSizeEnabledKeyEv
__ZN3WTF9HashTableINS_6StringES1_NS_17IdentityExtractorENS_10StringHashENS_10HashTraitsIS1_EES5_E3addINS_22IdentityHashTranslatorIS3_EES1_S1_EENS_18HashTableAddResultINS_17HashTableIteratorIS1_S1_S2_S3_S5_S5_EEEERKT0_RKT1_
__ZN3WTF9HashTableINS_6StringES1_NS_17IdentityExtractorENS_10StringHashENS_10HashTraitsIS1_EES5_E6expandEv
__ZN3WTF9HashTableINS_6StringES1_NS_17IdentityExtractorENS_10StringHashENS_10HashTraitsIS1_EES5_E6rehashEi
__ZN3WTF9HashTableINS_6StringES1_NS_17IdentityExtractorENS_10StringHashENS_10HashTraitsIS1_EES5_E15deallocateTableEPS1_i
__ZN3WTF9HashTableINS_6StringES1_NS_17IdentityExtractorENS_10StringHashENS_10HashTraitsIS1_EES5_E16lookupForWritingINS_22IdentityHashTranslatorIS3_EES1_EENSt3__14pairIPS1_bEERKT0_
__ZN6CyberKitL30setUInt32ValueIfInUserDefaultsERKN3WTF6StringES3_RNS_19WebPreferencesStoreE
__ZN3WTF9HashTableINS_6StringES1_NS_17IdentityExtractorENS_10StringHashENS_10HashTraitsIS1_EES5_E4findINS_22IdentityHashTranslatorIS3_EES1_EENS_17HashTableIteratorIS1_S1_S2_S3_S5_S5_EERKT0_
__ZN3WTF9HashTableINS_6StringES1_NS_17IdentityExtractorENS_10StringHashENS_10HashTraitsIS1_EES5_E6lookupINS_22IdentityHashTranslatorIS3_EES1_EEPS1_RKT0_
__ZN6CyberKit19WebPreferencesStore20setUInt32ValueForKeyERKN3WTF6StringEj
__ZN6CyberKitL11valueForKeyIN3WTF7HashMapINS1_6StringEjNS1_10StringHashENS1_10HashTraitsIS3_EENS5_IjEEEEEENT_10MappedTypeERKS9_RKNS9_7KeyTypeE
__ZN6CyberKit18defaultValueForKeyIjEET_RKN3WTF6StringE
__ZN6CyberKit17WebPreferencesKey21fontSmoothingLevelKeyEv
__ZN3WTF9HashTableINS_6StringENS_12KeyValuePairIS1_jEENS_24KeyValuePairKeyExtractorIS3_EENS_10StringHashENS_18HashMapValueTraitsINS_10HashTraitsIS1_EENS8_IjEEEES9_E12deleteBucketERS3_
__ZN3WTF9HashTableINS_6StringENS_12KeyValuePairIS1_jEENS_24KeyValuePairKeyExtractorIS3_EENS_10StringHashENS_18HashMapValueTraitsINS_10HashTraitsIS1_EENS8_IjEEEES9_E15deallocateTableEPS3_i
__ZN3WTF9HashTableINS_6StringENS_12KeyValuePairIS1_jEENS_24KeyValuePairKeyExtractorIS3_EENS_10StringHashENS_18HashMapValueTraitsINS_10HashTraitsIS1_EENS8_IjEEEES9_E16lookupForWritingINS_22IdentityHashTranslatorIS6_EES1_EENSt3__14pairIPS3_bEERKT0_
__ZN3WTF9HashTableINS_6StringENS_12KeyValuePairIS1_jEENS_24KeyValuePairKeyExtractorIS3_EENS_10StringHashENS_18HashMapValueTraitsINS_10HashTraitsIS1_EENS8_IjEEEES9_E3addINS_17HashMapTranslatorISB_S6_EES1_jEENS_18HashTableAddResultINS_17HashTableIteratorIS1_S3_S5_S6_SB_S9_EEEERKT0_RKT1_
__ZN3WTF9HashTableINS_6StringENS_12KeyValuePairIS1_jEENS_24KeyValuePairKeyExtractorIS3_EENS_10StringHashENS_18HashMapValueTraitsINS_10HashTraitsIS1_EENS8_IjEEEES9_E3addINS_22IdentityHashTranslatorIS6_EES1_S3_EENS_18HashTableAddResultINS_17HashTableIteratorIS1_S3_S5_S6_SB_S9_EEEERKT0_RKT1_
__ZN3WTF9HashTableINS_6StringENS_12KeyValuePairIS1_jEENS_24KeyValuePairKeyExtractorIS3_EENS_10StringHashENS_18HashMapValueTraitsINS_10HashTraitsIS1_EENS8_IjEEEES9_E4findINS_22IdentityHashTranslatorIS6_EES1_EENS_17HashTableIteratorIS1_S3_S5_S6_SB_S9_EERKT0_
__ZN3WTF9HashTableINS_6StringENS_12KeyValuePairIS1_jEENS_24KeyValuePairKeyExtractorIS3_EENS_10StringHashENS_18HashMapValueTraitsINS_10HashTraitsIS1_EENS8_IjEEEES9_E5beginEv
__ZN3WTF9HashTableINS_6StringENS_12KeyValuePairIS1_jEENS_24KeyValuePairKeyExtractorIS3_EENS_10StringHashENS_18HashMapValueTraitsINS_10HashTraitsIS1_EENS8_IjEEEES9_E6expandEv
__ZN3WTF9HashTableINS_6StringENS_12KeyValuePairIS1_jEENS_24KeyValuePairKeyExtractorIS3_EENS_10StringHashENS_18HashMapValueTraitsINS_10HashTraitsIS1_EENS8_IjEEEES9_E6lookupINS_22IdentityHashTranslatorIS6_EES1_EEPS3_RKT0_
__ZN3WTF9HashTableINS_6StringENS_12KeyValuePairIS1_jEENS_24KeyValuePairKeyExtractorIS3_EENS_10StringHashENS_18HashMapValueTraitsINS_10HashTraitsIS1_EENS8_IjEEEES9_E6rehashEi
__ZN3WTF9HashTableINS_6StringENS_12KeyValuePairIS1_jEENS_24KeyValuePairKeyExtractorIS3_EENS_10StringHashENS_18HashMapValueTraitsINS_10HashTraitsIS1_EENS8_IjEEEES9_E6removeEPS3_
__ZN3WTF9HashTableINS_6StringENS_12KeyValuePairIS1_jEENS_24KeyValuePairKeyExtractorIS3_EENS_10StringHashENS_18HashMapValueTraitsINS_10HashTraitsIS1_EENS8_IjEEEES9_EC2ERKSC_
__ZN3WTF9HashTableINS_6StringENS_12KeyValuePairIS1_jEENS_24KeyValuePairKeyExtractorIS3_EENS_10StringHashENS_18HashMapValueTraitsINS_10HashTraitsIS1_EENS8_IjEEEES9_EaSERKSC_
__ZN6CyberKit17WebPreferencesKey18minimumFontSizeKeyEv
__ZN6CyberKit17WebPreferencesKey25minimumLogicalFontSizeKeyEv
__ZN6CyberKit17WebPreferencesKey18defaultFontSizeKeyEv
__ZN6CyberKit17WebPreferencesKey23defaultFixedFontSizeKeyEv
__ZN6CyberKit17WebPreferencesKey22layoutFallbackWidthKeyEv
__ZN6CyberKit17WebPreferencesKey14deviceWidthKeyEv
__ZN6CyberKit17WebPreferencesKey15deviceHeightKeyEv
__ZN6CyberKit17WebPreferencesKey17pdfDisplayModeKeyEv
__ZN6CyberKit17WebPreferencesKey23editableLinkBehaviorKeyEv
__ZN6CyberKit17WebPreferencesKey26inspectorAttachedHeightKeyEv
__ZN6CyberKit27LocalStorageDatabaseTracker50updateTrackerDatabaseFromLocalStorageDatabaseFilesEv
__ZN6CyberKit17WebPreferencesKey25inspectorAttachedWidthKeyEv
__ZN6CyberKit17WebPreferencesKey26inspectorAttachmentSideKeyEv
__ZN6CyberKit17WebPreferencesKey17pdfScaleFactorKeyEv
__ZN6CyberKitL30setDoubleValueIfInUserDefaultsERKN3WTF6StringES3_RNS_19WebPreferencesStoreE
__ZN6CyberKit17WebPreferencesKey41incrementalRenderingSuppressionTimeoutKeyEv
__ZN3WTF9HashTableINS_6StringES1_NS_17IdentityExtractorENS_10StringHashENS_10HashTraitsIS1_EES5_EC2ERKS6_
__ZNK3WTF9HashTableINS_6StringES1_NS_17IdentityExtractorENS_10StringHashENS_10HashTraitsIS1_EES5_E5beginEv
__ZN6CyberKit17WebPreferencesKey21standardFontFamilyKeyEv
__ZN6CyberKitL30setStringValueIfInUserDefaultsERKN3WTF6StringES3_RNS_19WebPreferencesStoreE
__ZN6CyberKit17WebPreferencesKey20cursiveFontFamilyKeyEv
__ZN6CyberKit17WebPreferencesKey20fantasyFontFamilyKeyEv
__ZN3WTF6VectorINS_6StringELm0ENS_15CrashOnOverflowEED2Ev
__ZN6CyberKit17WebPreferencesKey18fixedFontFamilyKeyEv
__ZN3WTF16VectorDestructorILb1ENS_6StringEE8destructEPS1_S3_
__ZN6CyberKit17WebPreferencesKey22sansSerifFontFamilyKeyEv
__ZN3WTF17BoundFunctionImplINS_15FunctionWrapperIMN6CyberKit27LocalStorageDatabaseTrackerEFvvEEEFvPS3_EED0Ev
__ZN6CyberKit17WebPreferencesKey18serifFontFamilyKeyEv
__ZN6CyberKit17WebPreferencesKey23pictographFontFamilyKeyEv
__ZN6CyberKit17WebPreferencesKey26defaultTextEncodingNameKeyEv
__ZN6CyberKit19WebPreferencesStore20setStringValueForKeyERKN3WTF6StringES4_
__ZN6CyberKitL11valueForKeyIN3WTF7HashMapINS1_6StringES3_NS1_10StringHashENS1_10HashTraitsIS3_EES6_EEEENT_10MappedTypeERKS8_RKNS8_7KeyTypeE
__ZNK3WTF9HashTableINS_6StringENS_12KeyValuePairIS1_S1_EENS_24KeyValuePairKeyExtractorIS3_EENS_10StringHashENS_18HashMapValueTraitsINS_10HashTraitsIS1_EES9_EES9_E4findINS_22IdentityHashTranslatorIS6_EES1_EENS_22HashTableConstIteratorIS1_S3_S5_S6_SA_S9_EERKT0_
__ZNK3WTF9HashTableINS_6StringENS_12KeyValuePairIS1_S1_EENS_24KeyValuePairKeyExtractorIS3_EENS_10StringHashENS_18HashMapValueTraitsINS_10HashTraitsIS1_EES9_EES9_E5beginEv
__ZN6CyberKit18defaultValueForKeyIN3WTF6StringEEET_RKS2_
__ZN3WTF7HashMapINS_6StringES1_NS_10StringHashENS_10HashTraitsIS1_EES4_E3setERKS1_S7_
__ZN3WTF9HashTableINS_6StringENS_12KeyValuePairIS1_S1_EENS_24KeyValuePairKeyExtractorIS3_EENS_10StringHashENS_18HashMapValueTraitsINS_10HashTraitsIS1_EES9_EES9_E15deallocateTableEPS3_i
__ZN3WTF9HashTableINS_6StringENS_12KeyValuePairIS1_S1_EENS_24KeyValuePairKeyExtractorIS3_EENS_10StringHashENS_18HashMapValueTraitsINS_10HashTraitsIS1_EES9_EES9_E16lookupForWritingINS_22IdentityHashTranslatorIS6_EES1_EENSt3__14pairIPS3_bEERKT0_
__ZN3WTF9HashTableINS_6StringENS_12KeyValuePairIS1_S1_EENS_24KeyValuePairKeyExtractorIS3_EENS_10StringHashENS_18HashMapValueTraitsINS_10HashTraitsIS1_EES9_EES9_E3addINS_17HashMapTranslatorISA_S6_EES1_S1_EENS_18HashTableAddResultINS_17HashTableIteratorIS1_S3_S5_S6_SA_S9_EEEERKT0_RKT1_
__ZN3WTF9HashTableINS_6StringENS_12KeyValuePairIS1_S1_EENS_24KeyValuePairKeyExtractorIS3_EENS_10StringHashENS_18HashMapValueTraitsINS_10HashTraitsIS1_EES9_EES9_E3addINS_22IdentityHashTranslatorIS6_EES1_S3_EENS_18HashTableAddResultINS_17HashTableIteratorIS1_S3_S5_S6_SA_S9_EEEERKT0_RKT1_
__ZN3WTF9HashTableINS_6StringENS_12KeyValuePairIS1_S1_EENS_24KeyValuePairKeyExtractorIS3_EENS_10StringHashENS_18HashMapValueTraitsINS_10HashTraitsIS1_EES9_EES9_E4findINS_22IdentityHashTranslatorIS6_EES1_EENS_17HashTableIteratorIS1_S3_S5_S6_SA_S9_EERKT0_
__ZN3WTF9HashTableINS_6StringENS_12KeyValuePairIS1_S1_EENS_24KeyValuePairKeyExtractorIS3_EENS_10StringHashENS_18HashMapValueTraitsINS_10HashTraitsIS1_EES9_EES9_E5beginEv
__ZN3WTF9HashTableINS_6StringENS_12KeyValuePairIS1_S1_EENS_24KeyValuePairKeyExtractorIS3_EENS_10StringHashENS_18HashMapValueTraitsINS_10HashTraitsIS1_EES9_EES9_E6expandEv
__ZN3WTF9HashTableINS_6StringENS_12KeyValuePairIS1_S1_EENS_24KeyValuePairKeyExtractorIS3_EENS_10StringHashENS_18HashMapValueTraitsINS_10HashTraitsIS1_EES9_EES9_E6lookupINS_22IdentityHashTranslatorIS6_EES1_EEPS3_RKT0_
__ZN3WTF9HashTableINS_6StringENS_12KeyValuePairIS1_S1_EENS_24KeyValuePairKeyExtractorIS3_EENS_10StringHashENS_18HashMapValueTraitsINS_10HashTraitsIS1_EES9_EES9_E6rehashEi
__ZN3WTF9HashTableINS_6StringENS_12KeyValuePairIS1_S1_EENS_24KeyValuePairKeyExtractorIS3_EENS_10StringHashENS_18HashMapValueTraitsINS_10HashTraitsIS1_EES9_EES9_E6removeEPS3_
__ZN3WTF9HashTableINS_6StringENS_12KeyValuePairIS1_S1_EENS_24KeyValuePairKeyExtractorIS3_EENS_10StringHashENS_18HashMapValueTraitsINS_10HashTraitsIS1_EES9_EES9_EC2ERKSB_
__ZN3WTF9HashTableINS_6StringENS_12KeyValuePairIS1_S1_EENS_24KeyValuePairKeyExtractorIS3_EENS_10StringHashENS_18HashMapValueTraitsINS_10HashTraitsIS1_EES9_EES9_EaSERKSB_
__ZN6CyberKit17WebPreferencesKey27ftpDirectoryTemplatePathKeyEv
__ZN6CyberKit17WebPreferencesKey23inspectorWindowFrameKeyEv
__ZNK3WTF7HashMapINS_6StringES1_NS_10StringHashENS_10HashTraitsIS1_EES4_E3getERKS1_
__ZN6CyberKit14WebPreferences12addPageGroupEPNS_12WebPageGroupE
__ZN3WTF9HashTableIPN6CyberKit12WebPageGroupES3_NS_17IdentityExtractorENS_7PtrHashIS3_EENS_10HashTraitsIS3_EES8_E3addINS_22IdentityHashTranslatorIS6_EES3_S3_EENS_18HashTableAddResultINS_17HashTableIteratorIS3_S3_S4_S6_S8_S8_EEEERKT0_RKT1_
__ZN3WTF9HashTableIPN6CyberKit12WebPageGroupES3_NS_17IdentityExtractorENS_7PtrHashIS3_EENS_10HashTraitsIS3_EES8_E6expandEv
__ZN3WTF9HashTableIPN6CyberKit12WebPageGroupES3_NS_17IdentityExtractorENS_7PtrHashIS3_EENS_10HashTraitsIS3_EES8_E6rehashEi
__ZNK6CyberKit19WebPreferencesStore18getBoolValueForKeyERKN3WTF6StringE
__ZN6CyberKitL26boolTestRunnerOverridesMapEv
_WKPreferencesSetPrivateBrowsingEnabled
__ZN6CyberKit14WebPreferences25setPrivateBrowsingEnabledERKb
_WKContextRegisterURLSchemeAsEmptyDocument
__ZN6CyberKit10WebContext32registerURLSchemeAsEmptyDocumentERKN3WTF6StringE
_WKContextSetClient
__ZN6CyberKit10WebContext16initializeClientEPK15WKContextClient
__ZN6CyberKit9APIClientI15WKContextClientLi0EE10initializeEPKS1_
_WKContextSetDownloadClient
__ZN6CyberKit10WebContext24initializeDownloadClientEPK23WKContextDownloadClient
__ZN6CyberKit9APIClientI23WKContextDownloadClientLi0EE10initializeEPKS1_
_WKContextSetHistoryClient
__ZN6CyberKit10WebContext23initializeHistoryClientEPK22WKContextHistoryClient
__ZN6CyberKit9APIClientI22WKContextHistoryClientLi0EE10initializeEPKS1_
_WKContextSetInjectedBundleClient
__ZN6CyberKit10WebContext30initializeInjectedBundleClientEPK29WKContextInjectedBundleClient
__ZN6CyberKit9APIClientI29WKContextInjectedBundleClientLi1EE10initializeEPKS1_
_WKContextGetGeolocationManager
__ZN6CyberKit10WebContext10supplementINS_26WebGeolocationManagerProxyEEEPT_v
_WKGeolocationManagerSetProvider
__ZN6CyberKit26WebGeolocationManagerProxy18initializeProviderEPK21WKGeolocationProvider
__ZN6CyberKit9APIClientI21WKGeolocationProviderLi0EE10initializeEPKS1_
_WKContextGetNotificationManager
__ZN6CyberKit10WebContext10supplementINS_27WebNotificationManagerProxyEEEPT_v
_WKNotificationManagerSetProvider
__ZN6CyberKit27WebNotificationManagerProxy18initializeProviderEPK22WKNotificationProvider
__ZN6CyberKit9APIClientI22WKNotificationProviderLi0EE10initializeEPKS1_
__ZN6CyberKit23WebNotificationProvider22addNotificationManagerEPNS_27WebNotificationManagerProxyE
_WKContextSetCacheModel
__ZN6CyberKit10WebContext13setCacheModelENS_10CacheModelE
_WKContextSetUsesNetworkProcess
__ZN6CyberKit10WebContext21setUsesNetworkProcessEb
_WKContextSetProcessModel
__ZN6CyberKit10WebContext15setProcessModelENS_12ProcessModelE
_WKContextSetMaximumNumberOfProcesses
__ZN6CyberKit10WebContext27setMaximumNumberOfProcessesEj
_WKBooleanCreate
_WKPreferencesGetPrivateBrowsingEnabled
__ZNK6CyberKit14WebPreferences22privateBrowsingEnabledEv
_WKPreferencesCreate
__ZN6CyberKit14WebPreferencesC1Ev
__ZN6CyberKit14WebPreferencesC2Ev
_WKPreferencesSetJavaScriptEnabled
__ZN6CyberKit14WebPreferences20setJavaScriptEnabledERKb
_WKPreferencesSetLocalStorageEnabled
__ZN6CyberKit14WebPreferences22setLocalStorageEnabledERKb
_WKPreferencesSetDatabasesEnabled
__ZN6CyberKit14WebPreferences19setDatabasesEnabledERKb
__ZN6CyberKit14WebPreferences21updateBoolValueForKeyERKN3WTF6StringEb
__ZN6CyberKit14WebPreferences29platformUpdateBoolValueForKeyERKN3WTF6StringEb
__ZN6CyberKit14WebPreferences6updateEv
__ZNK3WTF9HashTableIPN6CyberKit12WebPageGroupES3_NS_17IdentityExtractorENS_7PtrHashIS3_EENS_10HashTraitsIS3_EES8_E5beginEv
_WKPreferencesGetStorageBlockingPolicy
__ZNK6CyberKit14WebPreferences21storageBlockingPolicyEv
__ZNK6CyberKit19WebPreferencesStore20getUInt32ValueForKeyERKN3WTF6StringE
_WKPreferencesSetStorageBlockingPolicy
__ZN6CyberKit14WebPreferences24setStorageBlockingPolicyERKj
__ZN6CyberKit14WebPreferences31platformUpdateUInt32ValueForKeyERKN3WTF6StringEj
_WKPreferencesGetDeveloperExtrasEnabled
__ZNK6CyberKit14WebPreferences22developerExtrasEnabledEv
_WKPreferencesSetDeveloperExtrasEnabled
__ZN6CyberKit14WebPreferences25setDeveloperExtrasEnabledERKb
_WKPreferencesGetCompositingBordersVisible
__ZNK6CyberKit14WebPreferences25compositingBordersVisibleEv
_WKPreferencesSetCompositingBordersVisible
__ZN6CyberKit14WebPreferences28setCompositingBordersVisibleERKb
_WKPreferencesGetCompositingRepaintCountersVisible
__ZNK6CyberKit14WebPreferences33compositingRepaintCountersVisibleEv
_WKPreferencesSetCompositingRepaintCountersVisible
__ZN6CyberKit14WebPreferences36setCompositingRepaintCountersVisibleERKb
_WKPreferencesGetPluginsEnabled
__ZNK6CyberKit14WebPreferences14pluginsEnabledEv
_WKPreferencesSetPluginsEnabled
__ZN6CyberKit14WebPreferences17setPluginsEnabledERKb
_WKPreferencesGetAcceleratedCompositingEnabled
__ZNK6CyberKit14WebPreferences29acceleratedCompositingEnabledEv
_WKPreferencesSetAcceleratedCompositingEnabled
__ZN6CyberKit14WebPreferences32setAcceleratedCompositingEnabledERKb
_WKPreferencesGetAcceleratedDrawingEnabled
__ZNK6CyberKit14WebPreferences25acceleratedDrawingEnabledEv
_WKPreferencesSetAcceleratedDrawingEnabled
__ZN6CyberKit14WebPreferences28setAcceleratedDrawingEnabledERKb
_WKPreferencesGetMinimumFontSize
__ZNK6CyberKit14WebPreferences15minimumFontSizeEv
_WKPreferencesSetMinimumFontSize
__ZN6CyberKit14WebPreferences18setMinimumFontSizeERKj
_WKPreferencesGetPlugInSnapshottingEnabled
__ZNK6CyberKit14WebPreferences25plugInSnapshottingEnabledEv
_WKPreferencesSetPlugInSnapshottingEnabled
__ZN6CyberKit14WebPreferences28setPlugInSnapshottingEnabledERKb
_WKPreferencesGetInspectorUsesCyberKitUserInterface
__ZNK6CyberKit14WebPreferences32inspectorUsesCyberKitUserInterfaceEv
_WKPreferencesSetInspectorUsesCyberKitUserInterface
__ZN6CyberKit14WebPreferences35setInspectorUsesCyberKitUserInterfaceERKb
_WKPageGroupSetPreferences
__ZN6CyberKit12WebPageGroup14setPreferencesEPNS_14WebPreferencesE
__ZN3WTF6RefPtrIN6CyberKit14WebPreferencesEEaSEPS2_
__ZN3WTF9HashTableIyNS_12KeyValuePairIyPN6CyberKit12WebPageGroupEEENS_24KeyValuePairKeyExtractorIS5_EENS_7IntHashIyEENS_18HashMapValueTraitsINS_10HashTraitsIyEENSB_IS4_EEEESC_E16lookupForWritingINS_22IdentityHashTranslatorIS9_EEyEENSt3__14pairIPS5_bEERKT0_
__ZN3WTF9HashTableIyNS_12KeyValuePairIyPN6CyberKit12WebPageGroupEEENS_24KeyValuePairKeyExtractorIS5_EENS_7IntHashIyEENS_18HashMapValueTraitsINS_10HashTraitsIyEENSB_IS4_EEEESC_E3addINS_17HashMapTranslatorISE_S9_EEyS4_EENS_18HashTableAddResultINS_17HashTableIteratorIyS5_S7_S9_SE_SC_EEEERKT0_RKT1_
__ZN3WTF9HashTableIyNS_12KeyValuePairIyPN6CyberKit12WebPageGroupEEENS_24KeyValuePairKeyExtractorIS5_EENS_7IntHashIyEENS_18HashMapValueTraitsINS_10HashTraitsIyEENSB_IS4_EEEESC_E4findINS_22IdentityHashTranslatorIS9_EEyEENS_17HashTableIteratorIyS5_S7_S9_SE_SC_EERKT0_
__ZN3WTF9HashTableIyNS_12KeyValuePairIyPN6CyberKit12WebPageGroupEEENS_24KeyValuePairKeyExtractorIS5_EENS_7IntHashIyEENS_18HashMapValueTraitsINS_10HashTraitsIyEENSB_IS4_EEEESC_E6expandEv
__ZN3WTF9HashTableIyNS_12KeyValuePairIyPN6CyberKit12WebPageGroupEEENS_24KeyValuePairKeyExtractorIS5_EENS_7IntHashIyEENS_18HashMapValueTraitsINS_10HashTraitsIyEENSB_IS4_EEEESC_E6lookupINS_22IdentityHashTranslatorIS9_EEyEEPS5_RKT0_
__ZN3WTF9HashTableIyNS_12KeyValuePairIyPN6CyberKit12WebPageGroupEEENS_24KeyValuePairKeyExtractorIS5_EENS_7IntHashIyEENS_18HashMapValueTraitsINS_10HashTraitsIyEENSB_IS4_EEEESC_E6rehashEi
__ZN3WTF9HashTableIyNS_12KeyValuePairIyPN6CyberKit12WebPageGroupEEENS_24KeyValuePairKeyExtractorIS5_EENS_7IntHashIyEENS_18HashMapValueTraitsINS_10HashTraitsIyEENSB_IS4_EEEESC_E6removeEPS5_
_WKPreferencesSetLoadsSiteIconsIgnoringImageLoadingPreference
__ZN6CyberKit14WebPreferences47setLoadsSiteIconsIgnoringImageLoadingPreferenceERKb
_WKPreferencesSetLoadsImagesAutomatically
__ZN6CyberKit14WebPreferences27setLoadsImagesAutomaticallyERKb
_WKPreferencesGetJavaScriptEnabled
__ZNK6CyberKit14WebPreferences17javaScriptEnabledEv
_WKPreferencesSetAuthorAndUserStylesEnabled
__ZN6CyberKit14WebPreferences29setAuthorAndUserStylesEnabledERKb
__ZN6CyberKit12WebPageGroup20preferencesDidChangeEv
__ZNK3WTF9HashTableIPN6CyberKit12WebPageProxyES3_NS_17IdentityExtractorENS_7PtrHashIS3_EENS_10HashTraitsIS3_EES8_E5beginEv
_WKPreferencesSetJavaEnabled
__ZN6CyberKit14WebPreferences14setJavaEnabledERKb
_WKPreferencesSetApplicationChromeModeEnabled
__ZN6CyberKit14WebPreferences31setApplicationChromeModeEnabledERKb
_WKPreferencesGetTabsToLinks
__ZNK6CyberKit14WebPreferences11tabsToLinksEv
_WKPreferencesSetTabsToLinks
__ZN6CyberKit14WebPreferences14setTabsToLinksERKb
_WKPreferencesSetShouldPrintBackgrounds
__ZN6CyberKit14WebPreferences25setShouldPrintBackgroundsERKb
_WKPreferencesSetWebGLEnabled
__ZN6CyberKit14WebPreferences15setWebGLEnabledERKb
_WKPreferencesSetMultithreadedWebGLEnabled
__ZN6CyberKit14WebPreferences28setMultithreadedWebGLEnabledERKb
_WKPreferencesSetForceSoftwareWebGLRendering
__ZN6CyberKit14WebPreferences30setForceSoftwareWebGLRenderingERKb
_WKMutableArrayCreate
__ZN6CyberKit12MutableArrayC1Ev
__ZN6CyberKit14ImmutableArrayC2Ev
_WKArrayAppendItem
__ZN6CyberKit12MutableArray6appendEPNS_9APIObjectE
__ZN3WTF6VectorINS_6RefPtrIN6CyberKit9APIObjectEEELm0ENS_15CrashOnOverflowEE14appendSlowCaseIPS3_EEvRKT_
__ZN3WTF6VectorINS_6RefPtrIN6CyberKit9APIObjectEEELm0ENS_15CrashOnOverflowEE15reserveCapacityEm
__ZN3WTF16VectorBufferBaseINS_6RefPtrIN6CyberKit9APIObjectEEEE14allocateBufferEm
_WKContextSetPlugInAutoStartOrigins
__ZN6CyberKit10WebContext25setPlugInAutoStartOriginsERNS_14ImmutableArrayE
__ZN6CyberKit23PlugInAutoStartProvider24setAutoStartOriginsArrayERNS_14ImmutableArrayE
__ZN3WTF6VectorINS_6StringELm0ENS_15CrashOnOverflowEE14shrinkCapacityEm
__ZNK6CyberKit14TypedAPIObjectILNS_9APIObject4TypeE18EE4typeEv
__ZN3WTF6VectorINS_6StringELm0ENS_15CrashOnOverflowEE14appendSlowCaseIS1_EEvRKT_
__ZN3WTF6VectorINS_6StringELm0ENS_15CrashOnOverflowEE14expandCapacityEmPKS1_
__ZN3WTF6VectorINS_6StringELm0ENS_15CrashOnOverflowEE15reserveCapacityEm
__ZN3WTF16VectorBufferBaseINS_6StringEE14allocateBufferEm
__ZN6CyberKit12MutableArrayD0Ev
__ZN6CyberKit14ImmutableArrayD2Ev
__ZN3WTF6VectorINS_6RefPtrIN6CyberKit9APIObjectEEELm0ENS_15CrashOnOverflowEED2Ev
__ZN3WTF16VectorDestructorILb1ENS_6RefPtrIN6CyberKit9APIObjectEEEE8destructEPS4_S6_
_WKDoubleCreate
_WKContextSetPlugInAutoStartOriginHashes
__ZN6CyberKit10WebContext30setPlugInAutoStartOriginHashesERNS_19ImmutableDictionaryE
__ZN6CyberKit23PlugInAutoStartProvider24setAutoStartOriginsTableERNS_19ImmutableDictionaryE
__ZNK3WTF9HashTableINS_6StringENS_12KeyValuePairIS1_NS_6RefPtrIN6CyberKit9APIObjectEEEEENS_24KeyValuePairKeyExtractorIS7_EENS_10StringHashENS_18HashMapValueTraitsINS_10HashTraitsIS1_EENSC_IS6_EEEESD_E5beginEv
__ZNK6CyberKit14TypedAPIObjectILNS_9APIObject4TypeE26EE4typeEv
__ZN3WTF7HashMapIjNS_6StringENS_7IntHashIjEENS_10HashTraitsIjEENS4_IS1_EEE3setERKjRKS1_
__ZN3WTF7HashMapINS_6StringENS0_IjdNS_7IntHashIjEENS_10HashTraitsIjEENS4_IdEEEENS_15CaseFoldingHashENS4_IS1_EENS4_IS7_EEE3setERKS1_RKS7_
__ZN3WTF9HashTableINS_6StringENS_12KeyValuePairIS1_NS_7HashMapIjdNS_7IntHashIjEENS_10HashTraitsIjEENS6_IdEEEEEENS_24KeyValuePairKeyExtractorISA_EENS_15CaseFoldingHashENS_18HashMapValueTraitsINS6_IS1_EENS6_IS9_EEEESF_E13allocateTableEi
__ZN3WTF9HashTableINS_6StringENS_12KeyValuePairIS1_NS_7HashMapIjdNS_7IntHashIjEENS_10HashTraitsIjEENS6_IdEEEEEENS_24KeyValuePairKeyExtractorISA_EENS_15CaseFoldingHashENS_18HashMapValueTraitsINS6_IS1_EENS6_IS9_EEEESF_E15deallocateTableEPSA_i
__ZN3WTF9HashTableINS_6StringENS_12KeyValuePairIS1_NS_7HashMapIjdNS_7IntHashIjEENS_10HashTraitsIjEENS6_IdEEEEEENS_24KeyValuePairKeyExtractorISA_EENS_15CaseFoldingHashENS_18HashMapValueTraitsINS6_IS1_EENS6_IS9_EEEESF_E16lookupForWritingINS_22IdentityHashTranslatorISD_EES1_EENSt3__14pairIPSA_bEERKT0_
__ZN3WTF9HashTableINS_6StringENS_12KeyValuePairIS1_NS_7HashMapIjdNS_7IntHashIjEENS_10HashTraitsIjEENS6_IdEEEEEENS_24KeyValuePairKeyExtractorISA_EENS_15CaseFoldingHashENS_18HashMapValueTraitsINS6_IS1_EENS6_IS9_EEEESF_E3addINS_17HashMapTranslatorISH_SD_EES1_S9_EENS_18HashTableAddResultINS_17HashTableIteratorIS1_SA_SC_SD_SH_SF_EEEERKT0_RKT1_
__ZN3WTF9HashTableINS_6StringENS_12KeyValuePairIS1_NS_7HashMapIjdNS_7IntHashIjEENS_10HashTraitsIjEENS6_IdEEEEEENS_24KeyValuePairKeyExtractorISA_EENS_15CaseFoldingHashENS_18HashMapValueTraitsINS6_IS1_EENS6_IS9_EEEESF_E4findINS_22IdentityHashTranslatorISD_EES1_EENS_17HashTableIteratorIS1_SA_SC_SD_SH_SF_EERKT0_
__ZN3WTF9HashTableINS_6StringENS_12KeyValuePairIS1_NS_7HashMapIjdNS_7IntHashIjEENS_10HashTraitsIjEENS6_IdEEEEEENS_24KeyValuePairKeyExtractorISA_EENS_15CaseFoldingHashENS_18HashMapValueTraitsINS6_IS1_EENS6_IS9_EEEESF_E6expandEv
__ZN3WTF9HashTableINS_6StringENS_12KeyValuePairIS1_NS_7HashMapIjdNS_7IntHashIjEENS_10HashTraitsIjEENS6_IdEEEEEENS_24KeyValuePairKeyExtractorISA_EENS_15CaseFoldingHashENS_18HashMapValueTraitsINS6_IS1_EENS6_IS9_EEEESF_E6lookupINS_22IdentityHashTranslatorISD_EES1_EEPSA_RKT0_
__ZN3WTF9HashTableINS_6StringENS_12KeyValuePairIS1_NS_7HashMapIjdNS_7IntHashIjEENS_10HashTraitsIjEENS6_IdEEEEEENS_24KeyValuePairKeyExtractorISA_EENS_15CaseFoldingHashENS_18HashMapValueTraitsINS6_IS1_EENS6_IS9_EEEESF_E6rehashEi
__ZN3WTF22KeyValuePairHashTraitsINS_10HashTraitsINS_6StringEEENS1_INS_7HashMapIjdNS_7IntHashIjEENS1_IjEENS1_IdEEEEEEE10emptyValueEv
__ZN3WTF15CaseFoldingHash4hashEPNS_10StringImplE
__ZN3WTF12StringHasher28addCharactersAssumingAlignedIhXadL_ZNS_15CaseFoldingHash8foldCaseIhEEtT_EEEEvPKS4_j
__ZN3WTF9HashTableIjNS_12KeyValuePairIjdEENS_24KeyValuePairKeyExtractorIS2_EENS_7IntHashIjEENS_18HashMapValueTraitsINS_10HashTraitsIjEENS8_IdEEEES9_E13allocateTableEi
__ZN3WTF9HashTableIjNS_12KeyValuePairIjdEENS_24KeyValuePairKeyExtractorIS2_EENS_7IntHashIjEENS_18HashMapValueTraitsINS_10HashTraitsIjEENS8_IdEEEES9_E16lookupForWritingINS_22IdentityHashTranslatorIS6_EEjEENSt3__14pairIPS2_bEERKT0_
__ZN3WTF9HashTableIjNS_12KeyValuePairIjdEENS_24KeyValuePairKeyExtractorIS2_EENS_7IntHashIjEENS_18HashMapValueTraitsINS_10HashTraitsIjEENS8_IdEEEES9_E3addINS_17HashMapTranslatorISB_S6_EEjdEENS_18HashTableAddResultINS_17HashTableIteratorIjS2_S4_S6_SB_S9_EEEERKT0_RKT1_
__ZN3WTF9HashTableIjNS_12KeyValuePairIjdEENS_24KeyValuePairKeyExtractorIS2_EENS_7IntHashIjEENS_18HashMapValueTraitsINS_10HashTraitsIjEENS8_IdEEEES9_E3addINS_22IdentityHashTranslatorIS6_EEjS2_EENS_18HashTableAddResultINS_17HashTableIteratorIjS2_S4_S6_SB_S9_EEEERKT0_RKT1_
__ZN3WTF9HashTableIjNS_12KeyValuePairIjdEENS_24KeyValuePairKeyExtractorIS2_EENS_7IntHashIjEENS_18HashMapValueTraitsINS_10HashTraitsIjEENS8_IdEEEES9_E4findINS_22IdentityHashTranslatorIS6_EEjEENS_17HashTableIteratorIjS2_S4_S6_SB_S9_EERKT0_
__ZN3WTF9HashTableIjNS_12KeyValuePairIjdEENS_24KeyValuePairKeyExtractorIS2_EENS_7IntHashIjEENS_18HashMapValueTraitsINS_10HashTraitsIjEENS8_IdEEEES9_E6expandEv
__ZN3WTF9HashTableIjNS_12KeyValuePairIjdEENS_24KeyValuePairKeyExtractorIS2_EENS_7IntHashIjEENS_18HashMapValueTraitsINS_10HashTraitsIjEENS8_IdEEEES9_E6lookupINS_22IdentityHashTranslatorIS6_EEjEEPS2_RKT0_
__ZN3WTF9HashTableIjNS_12KeyValuePairIjdEENS_24KeyValuePairKeyExtractorIS2_EENS_7IntHashIjEENS_18HashMapValueTraitsINS_10HashTraitsIjEENS8_IdEEEES9_E6rehashEi
__ZN3WTF9HashTableIjNS_12KeyValuePairIjdEENS_24KeyValuePairKeyExtractorIS2_EENS_7IntHashIjEENS_18HashMapValueTraitsINS_10HashTraitsIjEENS8_IdEEEES9_EC2ERKSC_
__ZN3WTF9HashTableIjNS_12KeyValuePairIjdEENS_24KeyValuePairKeyExtractorIS2_EENS_7IntHashIjEENS_18HashMapValueTraitsINS_10HashTraitsIjEENS8_IdEEEES9_EaSERKSC_
__ZN6CyberKit17MutableDictionaryD0Ev
__ZN6CyberKit19ImmutableDictionaryD2Ev
__ZN6CyberKit9WebNumberIdLNS_9APIObject4TypeE26EED0Ev
_WKContextWarmInitialProcess
__ZN6CyberKit10WebContext18warmInitialProcessEv
__ZN6CyberKit10WebContext19createNewWebProcessEv
__ZN6CyberKit10WebContext20ensureNetworkProcessEv
__ZN6CyberKit19NetworkProcessProxy6createEPNS_10WebContextE
__ZN6CyberKit19NetworkProcessProxyC2EPNS_10WebContextE
__ZN6CyberKit17ChildProcessProxyC2Ev
__ZN6CyberKit26CustomProtocolManagerProxyC1EPNS_17ChildProcessProxyE
__ZN6CyberKit26CustomProtocolManagerProxyC2EPNS_17ChildProcessProxyE
__ZN6CyberKit17ChildProcessProxy18addMessageReceiverEN7CoreIPC15StringReferenceEPNS1_15MessageReceiverE
__ZN6CyberKit17ChildProcessProxy7connectEv
__ZN6CyberKit19NetworkProcessProxy16getLaunchOptionsERNS_15ProcessLauncher13LaunchOptionsE
__ZN6CyberKit19NetworkProcessProxy24platformGetLaunchOptionsERNS_15ProcessLauncher13LaunchOptionsE
__ZN6CyberKit15ProcessLauncherC1EPNS0_6ClientERKNS0_13LaunchOptionsE
__ZN6CyberKit15ProcessLauncherC2EPNS0_6ClientERKNS0_13LaunchOptionsE
__ZN6CyberKit32NetworkProcessCreationParametersC1Ev
__ZN3WTF17BoundFunctionImplINS_15FunctionWrapperIMN6CyberKit15ProcessLauncherEFvvEEEFvPS3_EEclEv
__ZN6CyberKit16SandboxExtension6HandleC1Ev
__ZNK6CyberKit10WebContext18diskCacheDirectoryEv
__ZN6CyberKit15ProcessLauncher13launchProcessEv
__ZN6CyberKit20EnvironmentVariablesC1Ev
__ZNK6CyberKit10WebContext33platformDefaultDiskCacheDirectoryEv
__ZN6CyberKit20EnvironmentVariables32preexistingProcessServiceNameKeyEv
_WKCopyFoundationCacheDirectory
__ZNK6CyberKit20EnvironmentVariables3getEPKc
__ZNK6CyberKit20EnvironmentVariables22valueIfVariableHasNameEPKcS2_
__ZN6CyberKit20EnvironmentVariablesD1Ev
__ZN6CyberKit20EnvironmentVariablesD2Ev
__ZN3WTF6VectorIPcLm0ENS_15CrashOnOverflowEED1Ev
_cfURLCache
__ZN6CyberKit12_GLOBAL__N_110UUIDHolder6createEv
__ZN6CyberKitL16connectToServiceERKNS_15ProcessLauncher13LaunchOptionsEbPS0_MS0_FviN7CoreIPC10Connection10IdentifierEEPNS_12_GLOBAL__N_110UUIDHolderE
__ZN3WTF17BoundFunctionImplINS_15FunctionWrapperIMN6CyberKit15ProcessLauncherEFvvEEEFvPS3_EED0Ev
__ZN3WTF20ThreadSafeRefCountedIN6CyberKit15ProcessLauncherEE5derefEv
__ZN3WTF9RetainPtrIP8NSStringEC2ENS_10AdoptNSTagES2_
__ZN3WTF9RetainPtrI8NSStringEC2IPS1_EERKNS0_IT_EE
__ZN6CyberKit16SandboxExtension33createHandleForReadWriteDirectoryERKN3WTF6StringERNS0_6HandleE
__ZN6CyberKit16SandboxExtension12createHandleERKN3WTF6StringENS0_4TypeERNS0_6HandleE
__ZN6CyberKitL21resolveSymlinksInPathERKN3WTF7CStringE
_WKSandboxExtensionCreate
__ZN6CyberKit14WebPreferences36anyPageGroupsAreUsingPrivateBrowsingEv
__ZN6CyberKit10WebContext32platformInitializeNetworkProcessERNS_32NetworkProcessCreationParametersE
+[WKBrowsingContextController(Internal) customSchemes]
__ZN6CyberKit17ChildProcessProxy4sendIN8Messages14NetworkProcess24InitializeNetworkProcessEEEbRKT_yj
__ZN7CoreIPC14MessageEncoder6createENS_15StringReferenceES1_y
__ZN7CoreIPC14MessageEncoderC2ENS_15StringReferenceES1_y
__ZN7CoreIPC15ArgumentEncoderC2Ev
__ZN7CoreIPC15ArgumentEncoder6encodeEh
__ZN7CoreIPC15ArgumentEncoder4growEjm
__ZNK7CoreIPC15StringReference6encodeERNS_15ArgumentEncoderE
__ZNK7CoreIPC13DataReference6encodeERNS_15ArgumentEncoderE
__ZN7CoreIPC15ArgumentEncoder29encodeVariableLengthByteArrayERKNS_13DataReferenceE
__ZN7CoreIPC15ArgumentEncoder6encodeEy
__ZNK6CyberKit32NetworkProcessCreationParameters6encodeERN7CoreIPC15ArgumentEncoderE
__ZN7CoreIPC13ArgumentCoderIN3WTF6StringEE6encodeERNS_15ArgumentEncoderERKS2_
__ZN7CoreIPC15ArgumentEncoder6encodeEj
__ZN7CoreIPC15ArgumentEncoder6encodeEb
__ZN7CoreIPC15ArgumentEncoder21encodeFixedLengthDataEPKhmj
__ZNK6CyberKit16SandboxExtension6Handle6encodeERN7CoreIPC15ArgumentEncoderE
_WKSandboxExtensionGetSerializedFormat
_WKSandboxExtensionDestroy
__ZN7CoreIPC19VectorArgumentCoderILb0EN3WTF6StringEE6encodeERNS_15ArgumentEncoderERKNS1_6VectorIS2_Lm0ENS1_15CrashOnOverflowEEE
__ZN6CyberKit17ChildProcessProxy11sendMessageEN3WTF10PassOwnPtrIN7CoreIPC14MessageEncoderEEEj
__ZN3WTF6VectorINSt3__14pairINS_6OwnPtrIN7CoreIPC14MessageEncoderEEEjEELm0ENS_15CrashOnOverflowEE14appendSlowCaseINS2_INS_10PassOwnPtrIS5_EEjEEEEvRKT_
__ZN3WTF6VectorINSt3__14pairINS_6OwnPtrIN7CoreIPC14MessageEncoderEEEjEELm0ENS_15CrashOnOverflowEE15reserveCapacityEm
__ZN3WTF16VectorBufferBaseINSt3__14pairINS_6OwnPtrIN7CoreIPC14MessageEncoderEEEjEEE14allocateBufferEm
__ZN6CyberKit32NetworkProcessCreationParametersD2Ev
__ZN6CyberKit16SandboxExtension6HandleD1Ev
__ZN6CyberKit16SandboxExtension6HandleD2Ev
__ZN6CyberKit15WebProcessProxy6createEN3WTF10PassRefPtrINS_10WebContextEEE
__ZN6CyberKit15WebProcessProxyC2EN3WTF10PassRefPtrINS_10WebContextEEE
__ZN6CyberKit19ResponsivenessTimerC1EPNS0_6ClientE
__ZN6CyberKit15WebProcessProxy16getLaunchOptionsERNS_15ProcessLauncher13LaunchOptionsE
__ZN6CyberKit15WebProcessProxy24platformGetLaunchOptionsERNS_15ProcessLauncher13LaunchOptionsE
__ZN6CyberKit28WebProcessCreationParametersC1Ev
__ZN6CyberKit28WebProcessCreationParametersC2Ev
__ZNK6CyberKit10WebContext25applicationCacheDirectoryEv
__ZNK6CyberKit10WebContext40platformDefaultApplicationCacheDirectoryEv
__ZNK6CyberKit10WebContext17databaseDirectoryEv
__ZNK6CyberKit10WebContext32platformDefaultDatabaseDirectoryEv
__ZNK6CyberKit10WebContext22cookieStorageDirectoryEv
__ZNK6CyberKit10WebContext37platformDefaultCookieStorageDirectoryEv
__ZN3WTF6VectorINS_6StringELm0ENS_15CrashOnOverflowEE6resizeEm
__ZNK6CyberKit10WebContext16iconDatabasePathEv
__ZN6CyberKit11TextChecker5stateEv
__ZN6CyberKit11TextChecker32isContinuousSpellCheckingAllowedEv
__ZN6CyberKitL39shouldAutomaticTextReplacementBeEnabledEv
__ZN6CyberKitL42shouldAutomaticSpellingCorrectionBeEnabledEv
__ZN6CyberKitL41shouldAutomaticQuoteSubstitutionBeEnabledEv
__ZN6CyberKitL40shouldAutomaticDashSubstitutionBeEnabledEv
__ZN6CyberKit15WebProcessProxy25fullKeyboardAccessEnabledEv
+[WKFullKeyboardAccessWatcher fullKeyboardAccessEnabled]
-[WKFullKeyboardAccessWatcher init]
-[WKFullKeyboardAccessWatcher retrieveKeyboardUIModeFromPreferences:]
__ZN6CyberKit13WebURLRequest22defaultTimeoutIntervalEv
__ZN6CyberKit27WebNotificationManagerProxy37populateCopyOfNotificationPermissionsERN3WTF7HashMapINS1_6StringEbNS1_10StringHashENS1_10HashTraitsIS3_EENS5_IbEEEE
__ZN6CyberKit23WebNotificationProvider23notificationPermissionsEv
+[WKBrowsingContextController registerSchemeForCustomProtocol:]
____ZN6CyberKit10WebContext29registerNotificationObserversEv_block_invoke
__ZN6CyberKit10WebContext31registerSchemeForCustomProtocolERKN3WTF6StringE
__ZNK6CyberKit17ChildProcessProxy11isLaunchingEv
__ZN6CyberKit17ChildProcessProxy4sendIN8Messages21CustomProtocolManager14RegisterSchemeEEEbRKT_yj
_WKContextRegisterURLSchemeAsSecure
__ZN6CyberKit10WebContext25registerURLSchemeAsSecureERKN3WTF6StringE
_WKContextSetDomainRelaxationForbiddenForURLScheme
__ZN6CyberKit10WebContext40setDomainRelaxationForbiddenForURLSchemeERKN3WTF6StringE
_WKDictionaryAddItem
__ZN6CyberKit17MutableDictionary3addERKN3WTF6StringEPNS_9APIObjectE
__ZNK6CyberKit19ImmutableDictionary4keysEv
__ZN6CyberKit14ImmutableArrayC1ERN3WTF6VectorINS1_6RefPtrINS_9APIObjectEEELm0ENS1_15CrashOnOverflowEEE
__ZN6CyberKit14ImmutableArray2atINS_9WebStringEEEPT_m
__ZN6CyberKit19ImmutableDictionary3getINS_9WebNumberIbLNS_9APIObject4TypeE25EEEEEPT_RKN3WTF6StringE
__ZNK6CyberKit14TypedAPIObjectILNS_9APIObject4TypeE25EE4typeEv
__ZN6CyberKit14ImmutableArrayD0Ev
__ZN6CyberKit9WebNumberIbLNS_9APIObject4TypeE25EED0Ev
__ZNK6CyberKit23PlugInAutoStartProvider25autoStartOriginHashesCopyEv
__ZNK3WTF9HashTableINS_6StringENS_12KeyValuePairIS1_NS_7HashMapIjdNS_7IntHashIjEENS_10HashTraitsIjEENS6_IdEEEEEENS_24KeyValuePairKeyExtractorISA_EENS_15CaseFoldingHashENS_18HashMapValueTraitsINS6_IS1_EENS6_IS9_EEEESF_E5beginEv
__ZN6CyberKit10WebContext28platformInitializeWebProcessERNS_28WebProcessCreationParametersE
__ZN6CyberKit30WebContextInjectedBundleClient39getInjectedBundleInitializationUserDataEPNS_10WebContextE
__ZN6CyberKit17ChildProcessProxy4sendIN8Messages10WebProcess20InitializeWebProcessEEEbRKT_yj
__ZNK6CyberKit28WebProcessCreationParameters6encodeERN7CoreIPC15ArgumentEncoderE
__ZN7CoreIPC15ArgumentEncoder6encodeEd
__ZN7CoreIPC15ArgumentEncoder6encodeEi
__ZN7CoreIPC10AttachmentC1Ejj
__ZNK7CoreIPC10Attachment6encodeERNS_15ArgumentEncoderE
__ZN7CoreIPC15ArgumentEncoder13addAttachmentERKNS_10AttachmentE
__ZN3WTF6VectorIN7CoreIPC10AttachmentELm0ENS_15CrashOnOverflowEE14appendSlowCaseIS2_EEvRKT_
__ZN3WTF6VectorIN7CoreIPC10AttachmentELm0ENS_15CrashOnOverflowEE14expandCapacityEmPKS2_
__ZN3WTF6VectorIN7CoreIPC10AttachmentELm0ENS_15CrashOnOverflowEE15reserveCapacityEm
__ZN3WTF16VectorBufferBaseIN7CoreIPC10AttachmentEE14allocateBufferEm
__ZN7CoreIPC13ArgumentCoderIN3WTF7HashMapINS1_6StringEbNS1_10StringHashENS1_10HashTraitsIS3_EENS5_IbEEEEE6encodeERNS_15ArgumentEncoderERKS8_
__ZNK3WTF9HashTableINS_6StringENS_12KeyValuePairIS1_bEENS_24KeyValuePairKeyExtractorIS3_EENS_10StringHashENS_18HashMapValueTraitsINS_10HashTraitsIS1_EENS8_IbEEEES9_E4findINS_22IdentityHashTranslatorIS6_EES1_EENS_22HashTableConstIteratorIS1_S3_S5_S6_SB_S9_EERKT0_
__ZNK3WTF9HashTableINS_6StringENS_12KeyValuePairIS1_bEENS_24KeyValuePairKeyExtractorIS3_EENS_10StringHashENS_18HashMapValueTraitsINS_10HashTraitsIS1_EENS8_IbEEEES9_E5beginEv
__ZN7CoreIPC13ArgumentCoderIN3WTF7HashMapIjdNS1_7IntHashIjEENS1_10HashTraitsIjEENS5_IdEEEEE6encodeERNS_15ArgumentEncoderERKS8_
__ZNK6CyberKit28WebContextUserMessageEncoder6encodeERN7CoreIPC15ArgumentEncoderE
__ZNK6CyberKit18UserMessageEncoderINS_28WebContextUserMessageEncoderEE10baseEncodeERN7CoreIPC15ArgumentEncoderERNS_9APIObject4TypeE
__ZNK6CyberKit14TypedAPIObjectILNS_9APIObject4TypeE9EE4typeEv
__ZNK6CyberKit14TypedAPIObjectILNS_9APIObject4TypeE64EE4typeEv
__ZNK6CyberKit16WebPageGroupData6encodeERN7CoreIPC15ArgumentEncoderE
__ZN7CoreIPC19VectorArgumentCoderILb0EN7CyberCore14UserStyleSheetEE6encodeERNS_15ArgumentEncoderERKN3WTF6VectorIS2_Lm0ENS6_15CrashOnOverflowEEE
__ZN7CoreIPC19VectorArgumentCoderILb0EN7CyberCore10UserScriptEE6encodeERNS_15ArgumentEncoderERKN3WTF6VectorIS2_Lm0ENS6_15CrashOnOverflowEEE
__ZN3WTF6VectorINS_6RefPtrIN6CyberKit15WebProcessProxyEEELm0ENS_15CrashOnOverflowEE14appendSlowCaseIS4_EEvRKT_
__ZN3WTF6VectorINS_6RefPtrIN6CyberKit15WebProcessProxyEEELm0ENS_15CrashOnOverflowEE14expandCapacityEmPKS4_
__ZN3WTF6VectorINS_6RefPtrIN6CyberKit15WebProcessProxyEEELm0ENS_15CrashOnOverflowEE15reserveCapacityEm
__ZN3WTF16VectorBufferBaseINS_6RefPtrIN6CyberKit15WebProcessProxyEEEE14allocateBufferEm
__ZN6CyberKit28WebProcessCreationParametersD2Ev
_WKContextGetCookieManager
__ZN6CyberKit10WebContext10supplementINS_21WebCookieManagerProxyEEEPT_v
_WKCookieManagerSetClient
__ZN6CyberKit21WebCookieManagerProxy16initializeClientEPK21WKCookieManagerClient
__ZN6CyberKit9APIClientI21WKCookieManagerClientLi0EE10initializeEPKS1_
-[WKView(Private) initWithFrame:contextRef:pageGroupRef:relatedToPage:]
__ZN6CyberKit15PasteboardTypes12forSelectionEv
__ZN6CyberKit15PasteboardTypes10forEditingEv
__Z26InitCyberCoreSystemInterfacev
____Z26InitCyberCoreSystemInterfacev_block_invoke
_WKRecommendedScrollerStyle
-[WKViewData .cxx_construct]
__ZN6CyberKit14PageClientImpl6createEP6WKView
__ZN6CyberKit14PageClientImplC2EP6WKView
__ZN3WTF9RetainPtrIP22WKEditorUndoTargetObjCEC2ENS_10AdoptNSTagES2_
__ZN3WTF9RetainPtrI22WKEditorUndoTargetObjCEC2IPS1_EERKNS0_IT_EE
__ZN6CyberKit15CorrectionPanelC1Ev
__ZN6CyberKit10WebContext13createWebPageEPNS_10PageClientEPNS_12WebPageGroupEPNS_12WebPageProxyE
__ZN3WTF6RefPtrIN6CyberKit15WebProcessProxyEEaSERKS3_
__ZN6CyberKit15WebProcessProxy13createWebPageEPNS_10PageClientEPNS_10WebContextEPNS_12WebPageGroupE
__ZN6CyberKit12WebPageProxy6createEPNS_10PageClientEN3WTF10PassRefPtrINS_15WebProcessProxyEEEPNS_12WebPageGroupEy
__ZN6CyberKit12WebPageProxyC2EPNS_10PageClientEN3WTF10PassRefPtrINS_15WebProcessProxyEEEPNS_12WebPageGroupEy
__ZN3WTF10makeStringIPKcNS_6StringES2_S3_S2_EES3_T_T0_T1_T2_T3_
__ZN3WTF13tryMakeStringIPKcNS_6StringES2_S3_S2_EENS_10PassRefPtrINS_10StringImplEEET_T0_T1_T2_T3_
__ZN6CyberKit16WebHitTestResult4DataC1Ev
__ZN6CyberKit40GeolocationPermissionRequestManagerProxyC1EPNS_12WebPageProxyE
__ZN6CyberKit41NotificationPermissionRequestManagerProxyC1EPNS_12WebPageProxyE
__ZN6CyberKit14PageClientImpl14isViewInWindowEv
__ZN6CyberKit14PageClientImpl13isViewVisibleEv
__ZN6CyberKit18WebBackForwardListC1EPNS_12WebPageProxyE
__ZN6CyberKit11TextChecker26isSmartInsertDeleteEnabledEv
__ZN6CyberKit10WebContext10statisticsEv
__ZN6CyberKit12WebPageGroup7addPageEPNS_12WebPageProxyE
__ZN3WTF9HashTableIPN6CyberKit12WebPageProxyES3_NS_17IdentityExtractorENS_7PtrHashIS3_EENS_10HashTraitsIS3_EES8_E3addINS_22IdentityHashTranslatorIS6_EES3_S3_EENS_18HashTableAddResultINS_17HashTableIteratorIS3_S3_S4_S6_S8_S8_EEEERKT0_RKT1_
__ZN3WTF9HashTableIPN6CyberKit12WebPageProxyES3_NS_17IdentityExtractorENS_7PtrHashIS3_EENS_10HashTraitsIS3_EES8_E6expandEv
__ZN3WTF9HashTableIPN6CyberKit12WebPageProxyES3_NS_17IdentityExtractorENS_7PtrHashIS3_EENS_10HashTraitsIS3_EES8_E6rehashEi
__ZN6CyberKit17WebInspectorProxyC1EPNS_12WebPageProxyE
__ZN6CyberKit17WebInspectorProxyC2EPNS_12WebPageProxyE
__ZNK6CyberKit12WebPageProxy7processEv
__ZN6CyberKit17ChildProcessProxy18addMessageReceiverEN7CoreIPC15StringReferenceEyPNS1_15MessageReceiverE
__ZN7CoreIPC18MessageReceiverMap18addMessageReceiverENS_15StringReferenceEyPNS_15MessageReceiverE
__ZN3WTF8PairHashIN7CoreIPC15StringReferenceEyE4hashERKNSt3__14pairIS2_yEE
__ZN6CyberKit25WebFullScreenManagerProxy6createEPNS_12WebPageProxyE
__ZN3WTF6RefPtrIN6CyberKit25WebFullScreenManagerProxyEEaSERKNS_10PassRefPtrIS2_EE
__ZN6CyberKit14StorageManager29createSessionStorageNamespaceEyPN7CoreIPC10ConnectionEj
__ZN3WTF4bindIMN6CyberKit14StorageManagerEFvyPN7CoreIPC10ConnectionEjEPS2_yNS_6RefPtrIS4_EEjEENS_8FunctionIFNS_15FunctionWrapperIT_E10ResultTypeEvEEESD_RKT0_RKT1_RKT2_RKT3_
__ZN6CyberKitL13globalPageMapEv
__ZN6CyberKit15WebProcessProxy25pageIsProcessSuppressibleEPNS_12WebPageProxyE
__ZN6CyberKit14StorageManager37createSessionStorageNamespaceInternalEyPN7CoreIPC10ConnectionEj
__ZNK6CyberKit14WebPreferences44pageVisibilityBasedProcessSuppressionEnabledEv
__ZN3WTF9HashTableIyyNS_17IdentityExtractorENS_7IntHashIyEENS_10HashTraitsIyEES5_E3addINS_22IdentityHashTranslatorIS3_EEyyEENS_18HashTableAddResultINS_17HashTableIteratorIyyS1_S3_S5_S5_EEEERKT0_RKT1_
__ZN3WTF7HashMapIyNS_6RefPtrIN6CyberKit14StorageManager23SessionStorageNamespaceEEENS_7IntHashIyEENS_10HashTraitsIyEENS8_IS5_EEE3setERKyNS_10PassRefPtrIS4_EE
__ZN3WTF9HashTableIyyNS_17IdentityExtractorENS_7IntHashIyEENS_10HashTraitsIyEES5_E6expandEv
__ZN3WTF9HashTableIyyNS_17IdentityExtractorENS_7IntHashIyEENS_10HashTraitsIyEES5_E6rehashEi
__ZN6CyberKit15WebProcessProxy29updateProcessSuppressionStateEv
-[WKView _intrinsicDeviceScaleFactor]
__ZN6CyberKit12WebPageProxy29setIntrinsicDeviceScaleFactorEf
__ZN6CyberKit12WebPageProxy17initializeWebPageEv
__ZN3WTF6VectorINS_6RefPtrIN6CyberKit22WebBackForwardListItemEEELm0ENS_15CrashOnOverflowEEC2ERKS6_
__ZN6CyberKit14PageClientImpl22createDrawingAreaProxyEv
-[WKView(Internal) _createDrawingAreaProxy]
__ZN6CyberKit34TiledCoreAnimationDrawingAreaProxy6createEPNS_12WebPageProxyE
__ZN6CyberKit16DrawingAreaProxyC2ENS_15DrawingAreaTypeEPNS_12WebPageProxyE
__ZNK6CyberKit12WebPageProxy8viewSizeEv
__ZN6CyberKit14PageClientImpl8viewSizeEv
__ZN3WTF9HashTableINSt3__14pairIN7CoreIPC15StringReferenceEyEENS_12KeyValuePairIS5_PNS3_15MessageReceiverEEENS_24KeyValuePairKeyExtractorIS9_EENS_8PairHashIS4_yEENS_18HashMapValueTraitsINS_10HashTraitsIS5_EENSF_IS8_EEEESG_E13allocateTableEi
__ZN3WTF9HashTableINSt3__14pairIN7CoreIPC15StringReferenceEyEENS_12KeyValuePairIS5_PNS3_15MessageReceiverEEENS_24KeyValuePairKeyExtractorIS9_EENS_8PairHashIS4_yEENS_18HashMapValueTraitsINS_10HashTraitsIS5_EENSF_IS8_EEEESG_E16lookupForWritingINS_22IdentityHashTranslatorISD_EES5_EENS2_IPS9_bEERKT0_
__ZN3WTF9HashTableINSt3__14pairIN7CoreIPC15StringReferenceEyEENS_12KeyValuePairIS5_PNS3_15MessageReceiverEEENS_24KeyValuePairKeyExtractorIS9_EENS_8PairHashIS4_yEENS_18HashMapValueTraitsINS_10HashTraitsIS5_EENSF_IS8_EEEESG_E3addINS_17HashMapTranslatorISI_SD_EES5_S8_EENS_18HashTableAddResultINS_17HashTableIteratorIS5_S9_SB_SD_SI_SG_EEEERKT0_RKT1_
__ZN3WTF9HashTableINSt3__14pairIN7CoreIPC15StringReferenceEyEENS_12KeyValuePairIS5_PNS3_15MessageReceiverEEENS_24KeyValuePairKeyExtractorIS9_EENS_8PairHashIS4_yEENS_18HashMapValueTraitsINS_10HashTraitsIS5_EENSF_IS8_EEEESG_E4findINS_22IdentityHashTranslatorISD_EES5_EENS_17HashTableIteratorIS5_S9_SB_SD_SI_SG_EERKT0_
__ZN3WTF9HashTableINSt3__14pairIN7CoreIPC15StringReferenceEyEENS_12KeyValuePairIS5_PNS3_15MessageReceiverEEENS_24KeyValuePairKeyExtractorIS9_EENS_8PairHashIS4_yEENS_18HashMapValueTraitsINS_10HashTraitsIS5_EENSF_IS8_EEEESG_E6expandEv
__ZN3WTF9HashTableINSt3__14pairIN7CoreIPC15StringReferenceEyEENS_12KeyValuePairIS5_PNS3_15MessageReceiverEEENS_24KeyValuePairKeyExtractorIS9_EENS_8PairHashIS4_yEENS_18HashMapValueTraitsINS_10HashTraitsIS5_EENSF_IS8_EEEESG_E6lookupINS_22IdentityHashTranslatorISD_EES5_EEPS9_RKT0_
__ZN3WTF9HashTableINSt3__14pairIN7CoreIPC15StringReferenceEyEENS_12KeyValuePairIS5_PNS3_15MessageReceiverEEENS_24KeyValuePairKeyExtractorIS9_EENS_8PairHashIS4_yEENS_18HashMapValueTraitsINS_10HashTraitsIS5_EENSF_IS8_EEEESG_E6rehashEi
__ZN3WTF9HashTableINSt3__14pairIN7CoreIPC15StringReferenceEyEENS_12KeyValuePairIS5_PNS3_15MessageReceiverEEENS_24KeyValuePairKeyExtractorIS9_EENS_8PairHashIS4_yEENS_18HashMapValueTraitsINS_10HashTraitsIS5_EENSF_IS8_EEEESG_E6removeEPS9_
__ZNK6CyberKit12WebPageProxy18creationParametersEv
__ZN6CyberKit12SessionStateC1Ev
__ZN6CyberKit14PageClientImpl18isViewWindowActiveEv
__ZN6CyberKit14PageClientImpl13isViewFocusedEv
-[WKView(Internal) _isFocused]
__ZNK3WTF9HashTableINS_6StringENS_12KeyValuePairIS1_jEENS_24KeyValuePairKeyExtractorIS3_EENS_10StringHashENS_18HashMapValueTraitsINS_10HashTraitsIS1_EENS8_IjEEEES9_E4findINS_22IdentityHashTranslatorIS6_EES1_EENS_22HashTableConstIteratorIS1_S3_S5_S6_SB_S9_EERKT0_
__ZNK3WTF9HashTableINS_6StringENS_12KeyValuePairIS1_jEENS_24KeyValuePairKeyExtractorIS3_EENS_10StringHashENS_18HashMapValueTraitsINS_10HashTraitsIS1_EENS8_IjEEEES9_E5beginEv
__ZNK3WTF9HashTableINS_6StringENS_12KeyValuePairIS1_dEENS_24KeyValuePairKeyExtractorIS3_EENS_10StringHashENS_18HashMapValueTraitsINS_10HashTraitsIS1_EENS8_IdEEEES9_E4findINS_22IdentityHashTranslatorIS6_EES1_EENS_22HashTableConstIteratorIS1_S3_S5_S6_SB_S9_EERKT0_
__ZNK3WTF9HashTableINS_6StringENS_12KeyValuePairIS1_dEENS_24KeyValuePairKeyExtractorIS3_EENS_10StringHashENS_18HashMapValueTraitsINS_10HashTraitsIS1_EENS8_IdEEEES9_E5beginEv
__ZNK3WTF9HashTableINS_6StringENS_12KeyValuePairIS1_fEENS_24KeyValuePairKeyExtractorIS3_EENS_10StringHashENS_18HashMapValueTraitsINS_10HashTraitsIS1_EENS8_IfEEEES9_E5beginEv
__ZN3WTF6VectorIN7CyberCore14UserStyleSheetELm0ENS_15CrashOnOverflowEEaSERKS4_
__ZN3WTF6VectorIN7CyberCore10UserScriptELm0ENS_15CrashOnOverflowEEaSERKS4_
__ZN6CyberKit12SessionStateC1ERKN3WTF6VectorINS1_6RefPtrINS_22WebBackForwardListItemEEELm0ENS1_15CrashOnOverflowEEEj
__ZN3WTF6VectorINS_6RefPtrIN6CyberKit22WebBackForwardListItemEEELm0ENS_15CrashOnOverflowEED2Ev
__ZN6CyberKit22WebBackForwardListItem16highedUsedItemIDEv
__ZNK6CyberKit11WebUIClient30canRunBeforeUnloadConfirmPanelEv
__ZN6CyberKit14PageClientImpl10colorSpaceEv
-[WKView(Internal) _colorSpace]
__ZN3WTF9RetainPtrI12NSColorSpaceEaSEPS1_
__ZN3WTF9RetainPtrIP12CGColorSpaceEaSES2_
__ZN6CyberKit17ChildProcessProxy4sendIN8Messages10WebProcess13CreateWebPageEEEbRKT_yj
__ZNK6CyberKit25WebPageCreationParameters6encodeERN7CoreIPC15ArgumentEncoderE
__ZN7CoreIPC13ArgumentCoderIN7CyberCore7IntSizeEE6encodeERNS_15ArgumentEncoderERKS2_
__ZNK6CyberKit19WebPreferencesStore6encodeERN7CoreIPC15ArgumentEncoderE
__ZN7CoreIPC13ArgumentCoderIN3WTF7HashMapINS1_6StringES3_NS1_10StringHashENS1_10HashTraitsIS3_EES6_EEE6encodeERNS_15ArgumentEncoderERKS7_
__ZN7CoreIPC13ArgumentCoderIN3WTF7HashMapINS1_6StringEjNS1_10StringHashENS1_10HashTraitsIS3_EENS5_IjEEEEE6encodeERNS_15ArgumentEncoderERKS8_
__ZN7CoreIPC13ArgumentCoderIN3WTF7HashMapINS1_6StringEdNS1_10StringHashENS1_10HashTraitsIS3_EENS5_IdEEEEE6encodeERNS_15ArgumentEncoderERKS8_
__ZN7CoreIPC13ArgumentCoderIN3WTF7HashMapINS1_6StringEfNS1_10StringHashENS1_10HashTraitsIS3_EENS5_IfEEEEE6encodeERNS_15ArgumentEncoderERKS8_
__ZN7CoreIPC13ArgumentCoderIN7CyberCore5ColorEE6encodeERNS_15ArgumentEncoderERKS2_
__ZNK6CyberKit12SessionState6encodeERN7CoreIPC15ArgumentEncoderE
__ZN7CoreIPC19VectorArgumentCoderILb0EN3WTF6RefPtrIN6CyberKit22WebBackForwardListItemEEEE6encodeERNS_15ArgumentEncoderERKNS1_6VectorIS5_Lm0ENS1_15CrashOnOverflowEEE
__ZN7CoreIPC15ArgumentEncoder6encodeEf
__ZNK6CyberKit14ColorSpaceData6encodeERN7CoreIPC15ArgumentEncoderE
__ZN7CoreIPC6encodeERNS_15ArgumentEncoderEPK8__CFData
__ZN6CyberKit25WebPageCreationParametersD2Ev
__ZN3WTF6VectorIN7CyberCore10UserScriptELm0ENS_15CrashOnOverflowEED2Ev
__ZN3WTF6VectorIN7CyberCore14UserStyleSheetELm0ENS_15CrashOnOverflowEED2Ev
__ZN6CyberKit17ChildProcessProxy4sendIN8Messages7WebPage18SetVisibilityStateEEEbRKT_yj
__ZN6CyberKit17ChildProcessProxy4sendIN8Messages7WebPage27SetSmartInsertDeleteEnabledEEEbRKT_yj
__ZN6CyberKit12WebPageProxy17fullScreenManagerEv
__ZN6CyberKit25WebFullScreenManagerProxy10setWebViewEP6WKView
-[WKView(Private) _registerDraggedTypes]
__ZN6CyberKit15PasteboardTypes6forURLEv
-[WKView(Private) wantsUpdateLayer]
-[WKView isFlipped]
-[WKView(Private) pageRef]
_WKPageSetPageContextMenuClient
__ZN6CyberKit12WebPageProxy27initializeContextMenuClientEPK23WKPageContextMenuClient
__ZN6CyberKit9APIClientI23WKPageContextMenuClientLi3EE10initializeEPKS1_
_WKPageSetPageFindClient
__ZN6CyberKit12WebPageProxy20initializeFindClientEPK16WKPageFindClient
__ZN6CyberKit9APIClientI16WKPageFindClientLi0EE10initializeEPKS1_
_WKPageSetPageFormClient
__ZN6CyberKit12WebPageProxy20initializeFormClientEPK16WKPageFormClient
__ZN6CyberKit9APIClientI16WKPageFormClientLi0EE10initializeEPKS1_
_WKPageSetPageLoaderClient
__ZN6CyberKit12WebPageProxy22initializeLoaderClientEPK18WKPageLoaderClient
__ZN6CyberKit9APIClientI18WKPageLoaderClientLi3EE10initializeEPKS1_
__ZN6CyberKit17ChildProcessProxy4sendIN8Messages7WebPage25ListenForLayoutMilestonesEEEbRKT_yj
__ZN6CyberKit17ChildProcessProxy4sendIN8Messages7WebPage41SetWillGoToBackForwardItemCallbackEnabledEEEbRKT_yj
_WKPageSetPagePolicyClient
__ZN6CyberKit12WebPageProxy22initializePolicyClientEPK18WKPagePolicyClient
__ZN6CyberKit9APIClientI18WKPagePolicyClientLi0EE10initializeEPKS1_
_WKPageSetPageUIClient
__ZN6CyberKit12WebPageProxy18initializeUIClientEPK14WKPageUIClient
__ZN6CyberKit9APIClientI14WKPageUIClientLi2EE10initializeEPKS1_
__ZN6CyberKit17ChildProcessProxy4sendIN8Messages7WebPage33SetCanRunBeforeUnloadConfirmPanelEEEbRKT_yj
__ZNK6CyberKit11WebUIClient11canRunModalEv
__ZN6CyberKit12WebPageProxy14setCanRunModalEb
__ZN6CyberKit17ChildProcessProxy4sendIN8Messages7WebPage14SetCanRunModalEEEbRKT_yj
_WKPageSetApplicationNameForUserAgent
__ZN6CyberKit12WebPageProxy30setApplicationNameForUserAgentERKN3WTF6StringE
__ZN6CyberKit12WebPageProxy12setUserAgentERKN3WTF6StringE
__ZN6CyberKit17ChildProcessProxy4sendIN8Messages7WebPage12SetUserAgentEEEbRKT_yj
_WKPageGetMainFrame
_WKPageCopyTitle
__ZNK6CyberKit12WebPageProxy9pageTitleEv
_WKURLCreateWithUTF8CString
_WKIconDatabaseRetainIconForURL
__ZN6CyberKit15WebIconDatabase20retainIconForPageURLERKN3WTF6StringE
__ZN6CyberKit6WebURLD0Ev
_WKIconDatabaseTryGetCGImageForURL
__ZN6CyberKit15WebIconDatabase15imageForPageURLERKN3WTF6StringERKN7CyberCore7IntSizeE
_WKGetGlyphTransformedAdvances
_WKURLCreateWithCFURL
_WKUInt64Create
_WKContextPostMessageToInjectedBundle
__ZN6CyberKit10WebContext27postMessageToInjectedBundleERKN3WTF6StringEPNS_9APIObjectE
__ZN7CoreIPC15ArgumentEncoder6createEv
__ZNK6CyberKit14TypedAPIObjectILNS_9APIObject4TypeE1EE4typeEv
__ZNK6CyberKit14TypedAPIObjectILNS_9APIObject4TypeE19EE4typeEv
__ZNK6CyberKit14TypedAPIObjectILNS_9APIObject4TypeE27EE4typeEv
__ZN6CyberKit17ChildProcessProxy4sendIN8Messages10WebProcess25PostInjectedBundleMessageEEEbRKT_yj
__ZN7CoreIPC15ArgumentEncoderD0Ev
__ZN7CoreIPC15ArgumentEncoderD2Ev
__ZN6CyberKit9WebNumberIyLNS_9APIObject4TypeE27EED0Ev
_WKArrayGetSize
_WKArrayGetItemAtIndex
_WKSecurityOriginCreate
__ZN6CyberKit17WebSecurityOrigin6createERKN3WTF6StringES4_i
__ZN6CyberKit17WebSecurityOrigin6createEN3WTF10PassRefPtrIN7CyberCore14SecurityOriginEEE
_WKNotificationManagerProviderDidUpdateNotificationPolicy
__ZN6CyberKit27WebNotificationManagerProxy35providerDidUpdateNotificationPolicyEPKNS_17WebSecurityOriginEb
__ZN6CyberKit17ChildProcessProxy4sendIN8Messages22WebNotificationManager29DidUpdateNotificationDecisionEEEbRKT_yj
__ZN6CyberKit17WebSecurityOriginD0Ev
__ZN3WTF20ThreadSafeRefCountedIN7CyberCore14SecurityOriginEE5derefEv
__ZN7CyberCore14SecurityOriginD2Ev
-[WKView(Private) fullScreenPlaceholderView]
_WKPageGetScaleFactor
-[WKView setFrameSize:]
-[WKView(Private) frameSizeUpdatesDisabled]
-[WKView renewGState]
__ZN3WTF6OwnPtrIN6CyberKit19FindIndicatorWindowEE5clearEv
-[WKView _setDrawingAreaSize:]
__ZN6CyberKit16DrawingAreaProxy7setSizeERKN7CyberCore7IntSizeES4_S4_
__ZN6CyberKit34TiledCoreAnimationDrawingAreaProxy13sizeDidChangeEv
__ZNK6CyberKit12WebPageProxy7isValidEv
__ZN6CyberKit34TiledCoreAnimationDrawingAreaProxy18sendUpdateGeometryEv
__ZN6CyberKit17ChildProcessProxy4sendIN8Messages11DrawingArea14UpdateGeometryEEEbRKT_yj
-[WKView viewWillMoveToWindow:]
__ZN6CyberKit14PageClientImpl27viewWillMoveToAnotherWindowEv
-[WKView removeWindowObservers]
-[WKView addWindowObserversForWindow:]
-[WKView viewDidMoveToWindow]
-[WKView _setIsWindowOccluded:]
__ZN6CyberKit12WebPageProxy18viewStateDidChangeEj
__ZN6CyberKit12WebPageProxy34updateBackingStoreDiscardableStateEv
__ZN6CyberKit16DrawingAreaProxy28setBackingStoreIsDiscardableEb
-[WKView doWindowDidChangeScreen]
__ZN6CyberKit12WebPageProxy21windowScreenDidChangeEj
__ZN6CyberKit17ChildProcessProxy4sendIN8Messages7WebPage21WindowScreenDidChangeEEEbRKT_yj
-[WKView _updateWindowVisibility]
__ZN6CyberKit12WebPageProxy21updateWindowIsVisibleEb
__ZN6CyberKit17ChildProcessProxy4sendIN8Messages7WebPage18SetWindowIsVisibleEEEbRKT_yj
__ZN6CyberKit17ChildProcessProxy4sendIN8Messages7WebPage9SetActiveEEEbRKT_yj
-[WKView(Private) isDeferringViewInWindowChanges]
__ZN6CyberKit17ChildProcessProxy4sendIN8Messages7WebPage13SetIsInWindowEEEbRKT_yj
__ZN6CyberKit14PageClientImpl20viewLayerHostingModeEv
-[WKView _updateWindowAndViewFrames]
___copy_helper_block_406
-[WKView _accessibilityRegisterUIProcessTokens]
_WKAXRemoteTokenForElement
__ZN6CyberKit12WebPageProxy36registerUIProcessAccessibilityTokensERKN7CoreIPC13DataReferenceES4_
__ZN6CyberKit17ChildProcessProxy4sendIN8Messages7WebPage36RegisterUIProcessAccessibilityTokensEEEbRKT_yj
-[WKView viewDidChangeBackingProperties]
_WKPageCopyPendingAPIRequestURL
_WKPagePostMessageToInjectedBundle
__ZN6CyberKit12WebPageProxy27postMessageToInjectedBundleERKN3WTF6StringEPNS_9APIObjectE
__ZN6CyberKit17ChildProcessProxy4sendIN8Messages7WebPage25PostInjectedBundleMessageEEEbRKT_yj
-[WKView _windowDidResize:]
_WKCachePartitionKey
_init_kCFURLCachePartitionKey
_CFNetworkLibrary
_WKCFURLRequestAllowAllPostCaching
-[WKView mouseDownCanMoveWindow]
_WKURLRequestCreateWithWKURL
__ZN6CyberKit13WebURLRequest6createERKN7CyberCore4KURLE
__ZN7CyberCore19ResourceRequestBaseC2ERKNS_4KURLENS_26ResourceRequestCachePolicyE
__ZN7CyberCore15ResourceRequestC2ERKS0_
__ZNK3WTF9HashTableINS_12AtomicStringENS_12KeyValuePairIS1_NS_6StringEEENS_24KeyValuePairKeyExtractorIS4_EENS_15CaseFoldingHashENS_18HashMapValueTraitsINS_10HashTraitsIS1_EENS9_IS3_EEEESA_E5beginEv
__ZN3WTF6VectorINS_6StringELm0ENS_15CrashOnOverflowEEC2ERKS3_
__ZN7CyberCore19ResourceRequestBaseD2Ev
_WKURLRequestCopyNSURLRequest
__ZNK6CyberKit13WebURLRequest15platformRequestEv
_WKPageGetProcessIdentifier
__ZNK6CyberKit12WebPageProxy17processIdentifierEv
_WKPageLoadURLRequest
__ZN6CyberKit12WebPageProxy14loadURLRequestEPNS_13WebURLRequestEPNS_9APIObjectE
__ZN6CyberKit12WebPageProxy37maybeInitializeSandboxExtensionHandleERKN7CyberCore4KURLERNS_16SandboxExtension6HandleE
__ZN6CyberKit17ChildProcessProxy4sendIN8Messages7WebPage14LoadURLRequestEEEbRKT_yj
__ZN7CoreIPC13ArgumentCoderIN7CyberCore15ResourceRequestEE6encodeERNS_15ArgumentEncoderERKS2_
__ZN7CoreIPC13ArgumentCoderIN7CyberCore15ResourceRequestEE18encodePlatformDataERNS_15ArgumentEncoderERKS2_
__ZN3WTF9RetainPtrI12NSURLRequestEC2EPS1_
__ZN7CoreIPC16tokenNullTypeRefEv
_WKNSURLRequestCreateSerializableRepresentation
_createSerializableRepresentation
__ZN7CoreIPC6encodeERNS_15ArgumentEncoderEPK14__CFDictionary
__ZN7CoreIPCL17typeFromCFTypeRefEPKv
__ZN7CoreIPC6encodeERNS_15ArgumentEncoderEPK10__CFString
__ZN3WTF6VectorIhLm128ENS_15CrashOnOverflowEED1Ev
__ZN7CoreIPC6encodeERNS_15ArgumentEncoderEPKv
__ZN7CoreIPC6encodeERNS_15ArgumentEncoderEPK10__CFNumber
__ZN3WTF16VectorBufferBaseIhE14allocateBufferEm
__ZN3WTF6VectorIhLm0ENS_15CrashOnOverflowEED1Ev
__ZN3WTF6VectorIPKvLm32ENS_15CrashOnOverflowEED1Ev
__ZN7CoreIPC6encodeERNS_15ArgumentEncoderEPK9__CFArray
__ZN7CoreIPC6encodeERNS_15ArgumentEncoderEPK7__CFURL
__ZN3WTF6VectorIcLm512ENS_15CrashOnOverflowEED1Ev
__ZN6CyberKit19ResponsivenessTimer5startEv
__ZN6CyberKit6WebURLC2ERKN3WTF6StringE
_WKURLCopyCFURL
_WKPageGetEstimatedProgress
__ZNK6CyberKit12WebPageProxy17estimatedProgressEv
__ZN6CyberKit13WebURLRequestD0Ev
_WKPageCanGoBack
__ZNK6CyberKit12WebPageProxy9canGoBackEv
__ZN6CyberKit18WebBackForwardList8backItemEv
_WKPageCanGoForward
__ZNK6CyberKit12WebPageProxy12canGoForwardEv
__ZN6CyberKit18WebBackForwardList11forwardItemEv
_WKSetCGFontRenderingMode
-[WKView(Private) updateLayer]
-[WKView drawsBackground]
-[WKView drawsTransparentBackground]
__ZN6CyberKit34TiledCoreAnimationDrawingAreaProxy29waitForPossibleGeometryUpdateEd
-[WKView _windowDidOrderOnScreen:]
-[WKView(Internal) _isWindowOccluded]
_WKIconDatabaseEnableDatabaseCleanup
__ZN6CyberKit15WebIconDatabase21enableDatabaseCleanupEv
_WKContextGetProcessSuppressionEnabled
__ZN6CyberKitL37applicationWindowModificationsStartedEjPvjS0_j
__ZN6CyberKitL24applicationBecameVisibleEjPvjS0_j
-[WKView _windowDidChangeOcclusionState:]
__ZN6CyberKit15WebProcessProxy21pageVisibilityChangedEPNS_12WebPageProxyE
__ZN3WTF7HashSetIyNS_7IntHashIyEENS_10HashTraitsIyEEE6removeERKy
__ZNK3WTF9HashTableIyyNS_17IdentityExtractorENS_7IntHashIyEENS_10HashTraitsIyEES5_E4findINS_22IdentityHashTranslatorIS3_EEyEENS_22HashTableConstIteratorIyyS1_S3_S5_S5_EERKT0_
__ZN3WTF9HashTableIyyNS_17IdentityExtractorENS_7IntHashIyEENS_10HashTraitsIyEES5_E6lookupINS_22IdentityHashTranslatorIS3_EEyEEPyRKT0_
__ZN3WTF9HashTableIyyNS_17IdentityExtractorENS_7IntHashIyEENS_10HashTraitsIyEES5_E6removeEPy
__ZN6CyberKit34TiledCoreAnimationDrawingAreaProxy19visibilityDidChangeEv
__ZN6CyberKit17ChildProcessProxy4sendIN8Messages11DrawingArea14ResumePaintingEEEbRKT_yj
__ZThn16_N6CyberKit15WebIconDatabase18didFinishURLImportEv
__ZN6CyberKit15WebIconDatabase18didFinishURLImportEv
__ZThn16_N6CyberKit15WebIconDatabase27didImportIconDataForPageURLERKN3WTF6StringE
__ZN6CyberKit15WebIconDatabase29notifyIconDataReadyForPageURLERKN3WTF6StringE
__ZN6CyberKit21WebIconDatabaseClient23iconDataReadyForPageURLEPNS_15WebIconDatabaseEPNS_6WebURLE
__ZN6CyberKit15WebIconDatabase23didChangeIconForPageURLERKN3WTF6StringE
__ZN6CyberKit21WebIconDatabaseClient23didChangeIconForPageURLEPNS_15WebIconDatabaseEPNS_6WebURLE
_WKIconDatabaseTryCopyCGImageArrayForURL
_WKGetCFURLResponseMIMEType
_WKCreateMemoryStatusPressureCriticalDispatchOnMainQueue
___36-[WKView _updateWindowAndViewFrames]_block_invoke
__ZN6CyberKit12WebPageProxy26windowAndViewFramesChangedERKN7CyberCore9FloatRectERKNS1_10FloatPointE
__ZN6CyberKit11WebUIClient11windowFrameEPNS_12WebPageProxyE
__ZN6CyberKit14PageClientImpl18convertToUserSpaceERKN7CyberCore9FloatRectE
-[WKView(Internal) _convertToUserSpace:]
__ZN6CyberKit17ChildProcessProxy4sendIN8Messages7WebPage26WindowAndViewFramesChangedEEEbRKT_yj
__ZNK7CoreIPC10Arguments4IRKN7CyberCore9FloatRectES4_S4_RKNS1_10FloatPointEE6encodeERNS_15ArgumentEncoderE
__ZN7CoreIPC13ArgumentCoderIN7CyberCore9FloatRectEE6encodeERNS_15ArgumentEncoderERKS2_
__ZN7CoreIPC13ArgumentCoderIN7CyberCore10FloatPointEE6encodeERNS_15ArgumentEncoderERKS2_
__kCFURLCachePartitionKeyFunction
_WKCopyRequestWithStorageSession
_WKQTIncludeOnlyModernMediaFileTypes
_WKGetMIMETypeForExtension
_WKPageGetInspector
__ZN6CyberKit12WebPageProxy9inspectorEv
_WKInspectorClose
__ZN6CyberKit17WebInspectorProxy5closeEv
__ZN6CyberKit17ChildProcessProxy4sendIN8Messages12WebInspector5CloseEEEbRKT_yj
__ZN6CyberKit17WebInspectorProxy8didCloseEv
-[WKView viewDidHide]
_WKCGContextGetShouldSmoothFonts
_WKSetNSURLRequestShouldContentSniff
_WKHTTPCookiesForURL
_WKGetUserToBaseCTM
_WKCGContextDrawsWithCorrectShadowOffsets
__ZN7CyberCore7RunLoop5TimerIN6CyberKit19ResponsivenessTimerEE5firedEv
__ZN6CyberKit19ResponsivenessTimer10timerFiredEv
__ZThn104_N6CyberKit15WebProcessProxy21didBecomeUnresponsiveEPNS_19ResponsivenessTimerE
__ZN6CyberKit15WebProcessProxy21didBecomeUnresponsiveEPNS_19ResponsivenessTimerE
__ZN3WTF6VectorINS_6RefPtrIN6CyberKit12WebPageProxyEEELm0ENS_15CrashOnOverflowEE6resizeEm
__ZN3WTF6VectorINS_6RefPtrIN6CyberKit12WebPageProxyEEELm0ENS_15CrashOnOverflowEE15reserveCapacityEm
__ZN3WTF16VectorBufferBaseINS_6RefPtrIN6CyberKit12WebPageProxyEEEE14allocateBufferEm
__ZN3WTF6RefPtrIN6CyberKit12WebPageProxyEEaSEPS2_
__ZN6CyberKit12WebPageProxy28processDidBecomeUnresponsiveEv
__ZN6CyberKit15WebLoaderClient28processDidBecomeUnresponsiveEPNS_12WebPageProxyE
__ZN3WTF6VectorINS_6RefPtrIN6CyberKit12WebPageProxyEEELm0ENS_15CrashOnOverflowEED2Ev
__ZN3WTF16VectorDestructorILb1ENS_6RefPtrIN6CyberKit12WebPageProxyEEEE8destructEPS4_S6_
-[WKView(Private) initWithFrame:contextRef:pageGroupRef:]
__ZN6CyberKit10WebContext22ensureSharedWebProcessEv
__ZNK6CyberKit10WebContext31platformDefaultIconDatabasePathEv
__ZN6CyberKit19ImmutableDictionaryC1Ev
__ZN6CyberKit14ImmutableArrayC1Ev
__ZN6CyberKit19ImmutableDictionaryD0Ev
__ZN3WTF6VectorINS_6StringELm0ENS_15CrashOnOverflowEE14appendSlowCaseIP8NSStringEEvRKT_
__ZN3WTF6VectorINSt3__14pairINS_6StringENS_6RefPtrIN6CyberKit9APIObjectEEEEELm0ENS_15CrashOnOverflowEE14shrinkCapacityEm
__ZN3WTF6RefPtrIN6CyberKit15WebProcessProxyEEaSEPS2_
-[WKView _shouldUseTiledDrawingArea]
__ZN6CyberKit20DrawingAreaProxyImpl6createEPNS_12WebPageProxyE
__ZN6CyberKit20DrawingAreaProxyImplC2EPNS_12WebPageProxyE
__ZN6CyberKit16LayerTreeContextC1Ev
_WKPreferencesCreateCopy
__ZN6CyberKit14WebPreferencesC1ERKS0_
__ZN6CyberKit14WebPreferencesC2ERKS0_
_WKPreferencesSetPageVisibilityBasedProcessSuppressionEnabled
__ZN6CyberKit14WebPreferences47setPageVisibilityBasedProcessSuppressionEnabledERKb
__ZN6CyberKit14WebPreferences15removePageGroupEPNS_12WebPageGroupE
__ZNK3WTF9HashTableIPN6CyberKit12WebPageGroupES3_NS_17IdentityExtractorENS_7PtrHashIS3_EENS_10HashTraitsIS3_EES8_E4findINS_22IdentityHashTranslatorIS6_EES3_EENS_22HashTableConstIteratorIS3_S3_S4_S6_S8_S8_EERKT0_
__ZN3WTF9HashTableIPN6CyberKit12WebPageGroupES3_NS_17IdentityExtractorENS_7PtrHashIS3_EENS_10HashTraitsIS3_EES8_E6lookupINS_22IdentityHashTranslatorIS6_EES3_EEPS3_RKT0_
__ZN3WTF9HashTableIPN6CyberKit12WebPageGroupES3_NS_17IdentityExtractorENS_7PtrHashIS3_EENS_10HashTraitsIS3_EES8_E6removeEPS3_
__ZN6CyberKit14WebPreferencesD0Ev
__ZN6CyberKit14WebPreferencesD2Ev
__ZN6CyberKit12WebPageProxy20preferencesDidChangeEv
__ZN6CyberKit15WebProcessProxy22pagePreferencesChangedEPNS_12WebPageProxyE
__ZN6CyberKit14PageClientImpl20preferencesDidChangeEv
-[WKView(Internal) _preferencesDidChange]
__ZN6CyberKit17ChildProcessProxy4sendIN8Messages7WebPage20PreferencesDidChangeEEEbRKT_yj
_WKPageSetMediaVolume
__ZN6CyberKit12WebPageProxy14setMediaVolumeEf
__ZN6CyberKit17ChildProcessProxy4sendIN8Messages7WebPage14SetMediaVolumeEEEbRKT_yj
_WKPageSetCustomBackingScaleFactor
__ZN6CyberKit12WebPageProxy26setCustomDeviceScaleFactorEf
_WKPageLoadURL
__ZN6CyberKit12WebPageProxy7loadURLERKN3WTF6StringEPNS_9APIObjectE
__ZN6CyberKit17ChildProcessProxy4sendIN8Messages7WebPage7LoadURLEEEbRKT_yj
_WebContentServiceInitializer
__ZN6CyberKit20EnvironmentUtilities27stripValuesEndingWithStringEPKcS2_
__ZN3WTF6VectorIcLm0ENS_15CrashOnOverflowEE4growEm
__ZN3WTF6VectorIcLm0ENS_15CrashOnOverflowEE15reserveCapacityEm
__ZN3WTF16VectorBufferBaseIcE14allocateBufferEm
__ZN6CyberKit21XPCServiceInitializerINS_10WebProcessENS_29XPCServiceInitializerDelegateEEEvP17_xpc_connection_sPv
__ZN6CyberKit17InitializeCyberKit2Ev
__ZN6CyberKit29XPCServiceInitializerDelegate23getConnectionIdentifierERN7CoreIPC10Connection10IdentifierE
__ZN6CyberKit29XPCServiceInitializerDelegate19getClientIdentifierERN3WTF6StringE
__ZN6CyberKit29XPCServiceInitializerDelegate20getClientProcessNameERN3WTF6StringE
__ZN6CyberKit29XPCServiceInitializerDelegate26getExtraInitializationDataERN3WTF7HashMapINS1_6StringES3_NS1_10StringHashENS1_10HashTraitsIS3_EES6_EE
__ZN6CyberKit10WebProcess6sharedEv
__ZN6CyberKit10WebProcessC2Ev
__ZN6CyberKit12ChildProcessC2Ev
__ZN6CyberKit15EventDispatcher6createEv
__ZN6CyberKit20WebIconDatabaseProxyC1EPNS_10WebProcessE
__ZN6CyberKit12ChildProcess18addMessageReceiverEN7CoreIPC15StringReferenceEPNS1_15MessageReceiverE
__ZN6CyberKit24WebResourceLoadSchedulerC1Ev
__ZN6CyberKit24WebResourceLoadSchedulerC2Ev
_WKInitializeMaximumHTTPConnectionCountPerHost
__ZN6CyberKit30PluginProcessConnectionManager6createEv
__ZN6CyberKit21WebPlatformStrategies10initializeEv
__ZN6CyberKit10WebProcess13addSupplementINS_21WebGeolocationManagerEEEvv
__ZN6CyberKit21WebGeolocationManager14supplementNameEv
__ZN6CyberKit21WebGeolocationManagerC1EPNS_10WebProcessE
__ZN6CyberKit10WebProcess13addSupplementINS_26WebApplicationCacheManagerEEEvv
__ZN6CyberKit26WebApplicationCacheManager14supplementNameEv
__ZN6CyberKit26WebApplicationCacheManagerC1EPNS_12ChildProcessE
__ZN6CyberKit10WebProcess13addSupplementINS_23WebResourceCacheManagerEEEvv
__ZN6CyberKit23WebResourceCacheManager14supplementNameEv
__ZN6CyberKit23WebResourceCacheManagerC1EPNS_10WebProcessE
__ZN6CyberKit10WebProcess13addSupplementINS_16WebCookieManagerEEEvv
__ZN6CyberKit16WebCookieManager14supplementNameEv
__ZN6CyberKit16WebCookieManagerC1EPNS_12ChildProcessE
__ZN3WTF9HashTableIPKcNS_12KeyValuePairIS2_NS_6OwnPtrIN6CyberKit20WebProcessSupplementEEEEENS_24KeyValuePairKeyExtractorIS8_EENS_7PtrHashIS2_EENS_18HashMapValueTraitsINS_10HashTraitsIS2_EENSE_IS7_EEEESF_E15deallocateTableEPS8_i
__ZN3WTF9HashTableIPKcNS_12KeyValuePairIS2_NS_6OwnPtrIN6CyberKit20WebProcessSupplementEEEEENS_24KeyValuePairKeyExtractorIS8_EENS_7PtrHashIS2_EENS_18HashMapValueTraitsINS_10HashTraitsIS2_EENSE_IS7_EEEESF_E16lookupForWritingINS_22IdentityHashTranslatorISC_EES2_EENSt3__14pairIPS8_bEERKT0_
__ZN3WTF9HashTableIPKcNS_12KeyValuePairIS2_NS_6OwnPtrIN6CyberKit20WebProcessSupplementEEEEENS_24KeyValuePairKeyExtractorIS8_EENS_7PtrHashIS2_EENS_18HashMapValueTraitsINS_10HashTraitsIS2_EENSE_IS7_EEEESF_E3addINS_17HashMapTranslatorISH_SC_EES2_NS_10PassOwnPtrIS6_EEEENS_18HashTableAddResultINS_17HashTableIteratorIS2_S8_SA_SC_SH_SF_EEEERKT0_RKT1_
__ZN3WTF9HashTableIPKcNS_12KeyValuePairIS2_NS_6OwnPtrIN6CyberKit20WebProcessSupplementEEEEENS_24KeyValuePairKeyExtractorIS8_EENS_7PtrHashIS2_EENS_18HashMapValueTraitsINS_10HashTraitsIS2_EENSE_IS7_EEEESF_E4findINS_22IdentityHashTranslatorISC_EES2_EENS_17HashTableIteratorIS2_S8_SA_SC_SH_SF_EERKT0_
__ZN3WTF9HashTableIPKcNS_12KeyValuePairIS2_NS_6OwnPtrIN6CyberKit20WebProcessSupplementEEEEENS_24KeyValuePairKeyExtractorIS8_EENS_7PtrHashIS2_EENS_18HashMapValueTraitsINS_10HashTraitsIS2_EENSE_IS7_EEEESF_E5beginEv
__ZN3WTF9HashTableIPKcNS_12KeyValuePairIS2_NS_6OwnPtrIN6CyberKit20WebProcessSupplementEEEEENS_24KeyValuePairKeyExtractorIS8_EENS_7PtrHashIS2_EENS_18HashMapValueTraitsINS_10HashTraitsIS2_EENSE_IS7_EEEESF_E6expandEv
__ZN3WTF9HashTableIPKcNS_12KeyValuePairIS2_NS_6OwnPtrIN6CyberKit20WebProcessSupplementEEEEENS_24KeyValuePairKeyExtractorIS8_EENS_7PtrHashIS2_EENS_18HashMapValueTraitsINS_10HashTraitsIS2_EENSE_IS7_EEEESF_E6lookupINS_22IdentityHashTranslatorISC_EES2_EEPS8_RKT0_
__ZN3WTF9HashTableIPKcNS_12KeyValuePairIS2_NS_6OwnPtrIN6CyberKit20WebProcessSupplementEEEEENS_24KeyValuePairKeyExtractorIS8_EENS_7PtrHashIS2_EENS_18HashMapValueTraitsINS_10HashTraitsIS2_EENSE_IS7_EEEESF_E6rehashEi
__ZN6CyberKit10WebProcess13addSupplementINS_20WebMediaCacheManagerEEEvv
__ZN6CyberKit20WebMediaCacheManager14supplementNameEv
__ZN6CyberKit20WebMediaCacheManagerC1EPNS_10WebProcessE
__ZN6CyberKit10WebProcess13addSupplementINS_21AuthenticationManagerEEEvv
__ZN6CyberKit21AuthenticationManager14supplementNameEv
__ZN6CyberKit21AuthenticationManagerC1EPNS_12ChildProcessE
__ZN6CyberKit10WebProcess13addSupplementINS_18WebDatabaseManagerEEEvv
__ZN6CyberKit18WebDatabaseManager14supplementNameEv
__ZN6CyberKit18WebDatabaseManagerC1EPNS_10WebProcessE
__ZN6CyberKit10WebProcess13addSupplementINS_22WebNotificationManagerEEEvv
__ZN6CyberKit22WebNotificationManager14supplementNameEv
__ZN6CyberKit22WebNotificationManagerC1EPNS_10WebProcessE
__ZN6CyberKit10WebProcess13addSupplementINS_21CustomProtocolManagerEEEvv
__ZN6CyberKit21CustomProtocolManager14supplementNameEv
__ZN6CyberKit21CustomProtocolManagerC1EPNS_12ChildProcessE
__ZN6CyberKit21CustomProtocolManagerC2EPNS_12ChildProcessE
__ZN6CyberKit12ChildProcess10initializeERKNS_36ChildProcessInitializationParametersE
__ZN6CyberKit12ChildProcess18platformInitializeEv
__ZN6CyberKit12ChildProcess36setProcessSuppressionEnabledInternalEb
__ZN3WTF9RetainPtrIP11objc_objectEaSI11objc_objectEERS3_PT_
__ZN6CyberKit10WebProcess17initializeProcessERKNS_36ChildProcessInitializationParametersE
__ZN6CyberKit10WebProcess25platformInitializeProcessERKNS_36ChildProcessInitializationParametersE
_WKAXRegisterRemoteApp
__ZN6CyberKit11SecItemShim6sharedEv
____ZN6CyberKit11SecItemShim6sharedEv_block_invoke
__ZN6CyberKit11SecItemShim10initializeEPNS_12ChildProcessE
__ZN6CyberKit10WebProcess21initializeProcessNameERKNS_36ChildProcessInitializationParametersE
_WKSetVisibleApplicationName
__ZN6CyberKit31SandboxInitializationParametersC1Ev
__ZN6CyberKit10WebProcess17initializeSandboxERKNS_36ChildProcessInitializationParametersERNS_31SandboxInitializationParametersE
__ZN6CyberKit12ChildProcess17initializeSandboxERKNS_36ChildProcessInitializationParametersERNS_31SandboxInitializationParametersE
__ZN3WTFplIPKcEENS_12StringAppendINS_6StringET_EERKS4_S5_
__ZN3WTFplINS_6StringEPKcS1_EENS_12StringAppendINS4_IT_T0_EET1_EERKS7_S8_
__ZNK3WTF12StringAppendINS0_INS_6StringEPKcEES1_EcvS1_Ev
__ZN3WTF13tryMakeStringINS_12StringAppendINS_6StringEPKcEES2_EENS_10PassRefPtrINS_10StringImplEEET_T0_
__ZN3WTF12StringAppendINS_6StringEPKcE7writeToEPh
__ZN6CyberKit31SandboxInitializationParameters12addParameterEPKcS2_
__ZN3WTF6VectorIPKcLm0ENS_15CrashOnOverflowEE14appendSlowCaseIS2_EEvRKT_
__ZN3WTF6VectorIPKcLm0ENS_15CrashOnOverflowEE14expandCapacityEmPKS2_
__ZN3WTF6VectorIPKcLm0ENS_15CrashOnOverflowEE15reserveCapacityEm
__ZN3WTF16VectorBufferBaseIPKcE14allocateBufferEm
__ZN6CyberKit31SandboxInitializationParameters16addPathParameterEPKcP8NSString
__ZN6CyberKit31SandboxInitializationParameters18appendPathInternalEPKcS2_
__ZN6CyberKit31SandboxInitializationParameters25addConfDirectoryParameterEPKci
__ZN6CyberKit31SandboxInitializationParameters16addPathParameterEPKcS2_
__ZN6CyberKit15ProcessLauncher25didFinishLaunchingProcessEiN7CoreIPC10Connection10IdentifierE
__ZN6CyberKit15WebProcessProxy18didFinishLaunchingEPNS_15ProcessLauncherEN7CoreIPC10Connection10IdentifierE
__ZNK6CyberKit31SandboxInitializationParameters19namedParameterArrayEv
__ZN6CyberKit17ChildProcessProxy18didFinishLaunchingEPNS_15ProcessLauncherEN7CoreIPC10Connection10IdentifierE
__ZN7CoreIPC10Connection22createServerConnectionENS0_10IdentifierEPNS0_6ClientEPN7CyberCore7RunLoopE
__ZN7CoreIPC10ConnectionC2ENS0_10IdentifierEbPNS0_6ClientEPN7CyberCore7RunLoopE
__ZN7CoreIPC10Connection16SyncMessageState11getOrCreateEPN7CyberCore7RunLoopE
__ZN7CoreIPC10Connection16SyncMessageState24syncMessageStateMapMutexEv
__ZN7CoreIPC10Connection16SyncMessageState19syncMessageStateMapEv
__ZN7CoreIPC10Connection18platformInitializeENS0_10IdentifierE
__ZN7CoreIPC10Connection40setShouldCloseConnectionOnMachExceptionsEv
__ZN6CyberKit15WebProcessProxy18connectionWillOpenEPN7CoreIPC10ConnectionE
__ZN6CyberKit16SecItemShimProxy6sharedEv
____ZN6CyberKit16SecItemShimProxy6sharedEv_block_invoke
__ZN6CyberKit16SecItemShimProxy20initializeConnectionEPN7CoreIPC10ConnectionE
__ZN7CoreIPC10Connection27addWorkQueueMessageReceiverENS_15StringReferenceEP9WorkQueuePNS0_24WorkQueueMessageReceiverE
__ZN6CyberKit12WebPageProxy18connectionWillOpenEPN7CoreIPC10ConnectionE
__ZN7CoreIPC10Connection48addWorkQueueMessageReceiverOnConnectionWorkQueueENS_15StringReferenceEP9WorkQueuePNS0_24WorkQueueMessageReceiverE
__ZN6CyberKit14StorageManager43setAllowedSessionStorageNamespaceConnectionEyPN7CoreIPC10ConnectionE
__ZN3WTF6RefPtrI9WorkQueueEaSERKS2_
__ZN3WTF4bindIMN6CyberKit14StorageManagerEFvyPN7CoreIPC10ConnectionEEPS2_yNS_6RefPtrIS4_EEEENS_8FunctionIFNS_15FunctionWrapperIT_E10ResultTypeEvEEESD_RKT0_RKT1_RKT2_
__ZN3WTF6RefPtrIN7CoreIPC10Connection24WorkQueueMessageReceiverEEaSERKS4_
__ZN3WTF20ThreadSafeRefCountedIN7CoreIPC10ConnectionEE5derefEv
__ZN6CyberKit14StorageManager51setAllowedSessionStorageNamespaceConnectionInternalEyPN7CoreIPC10ConnectionE
__ZN6CyberKit10WebContext25processWillOpenConnectionEPNS_15WebProcessProxyE
__ZN6CyberKit14StorageManager25processWillOpenConnectionEPNS_15WebProcessProxyE
__ZN7CoreIPC10Connection4openEv
__Z22setMachPortQueueLengthjj
__ZN7CoreIPCL25createDataAvailableSourceEjP9WorkQueueRKN3WTF8FunctionIFvvEEE
__ZNK3WTF8FunctionIFvvEEcvU13block_pointerS1_Ev
__ZN7CoreIPC10Connection11sendMessageEN3WTF10PassOwnPtrINS_14MessageEncoderEEEj
__ZN3WTF5DequeINS_6OwnPtrIN7CoreIPC14MessageEncoderEEELm0EE22expandCapacityIfNeededEv
__ZN3WTF5DequeINS_6OwnPtrIN7CoreIPC14MessageEncoderEEELm0EE14expandCapacityEv
__ZN3WTF16VectorBufferBaseINS_6OwnPtrIN7CoreIPC14MessageEncoderEEEE14allocateBufferEm
__ZN3WTF17BoundFunctionImplINS_15FunctionWrapperIMN7CoreIPC10ConnectionEFvvEEEFvPS3_EEclEv
__ZN7CoreIPC10Connection20sendOutgoingMessagesEv
__ZN3WTF17BoundFunctionImplINS_15FunctionWrapperIMN7CoreIPC10ConnectionEFvvEEEFvPS3_EED0Ev
____ZN7CoreIPC10Connection4openEv_block_invoke
__ZN3WTF6VectorINSt3__14pairINS_6OwnPtrIN7CoreIPC14MessageEncoderEEEjEELm0ENS_15CrashOnOverflowEE14shrinkCapacityEm
__ZN3WTF6VectorINSt3__14pairINS_6OwnPtrIN7CoreIPC14MessageEncoderEEEjEELm0ENS_15CrashOnOverflowEE6shrinkEm
__ZN6CyberKit25WebConnectionToWebProcess6createEPNS_15WebProcessProxyE
__ZN6CyberKit13WebConnectionC2Ev
__ZN6CyberKit10WebContext25processDidFinishLaunchingEPNS_15WebProcessProxyE
__ZN6CyberKit19VisitedLinkProvider25processDidFinishLaunchingEPNS_15WebProcessProxyE
__ZN3WTF9HashTableIPN6CyberKit15WebProcessProxyES3_NS_17IdentityExtractorENS_7PtrHashIS3_EENS_10HashTraitsIS3_EES8_E3addINS_22IdentityHashTranslatorIS6_EES3_S3_EENS_18HashTableAddResultINS_17HashTableIteratorIS3_S3_S4_S6_S8_S8_EEEERKT0_RKT1_
__ZN3WTF9HashTableIPN6CyberKit15WebProcessProxyES3_NS_17IdentityExtractorENS_7PtrHashIS3_EENS_10HashTraitsIS3_EES8_E6expandEv
__ZN3WTF9HashTableIPN6CyberKit15WebProcessProxyES3_NS_17IdentityExtractorENS_7PtrHashIS3_EENS_10HashTraitsIS3_EES8_E6rehashEi
__ZN6CyberKit10WebContext20populateVisitedLinksEv
__ZN6CyberKit16WebHistoryClient20populateVisitedLinksEPNS_10WebContextE
_WKContextAddVisitedLink
__ZN6CyberKit10WebContext14addVisitedLinkERKN3WTF6StringE
__ZN6CyberKit19VisitedLinkProvider14addVisitedLinkEy
__ZN3WTF9HashTableIyyNS_17IdentityExtractorEN7CyberCore12LinkHashHashENS_10HashTraitsIyEES5_E3addINS_22IdentityHashTranslatorIS3_EEyyEENS_18HashTableAddResultINS_17HashTableIteratorIyyS1_S3_S5_S5_EEEERKT0_RKT1_
__ZN3WTF9HashTableIyyNS_17IdentityExtractorEN7CyberCore12LinkHashHashENS_10HashTraitsIyEES5_E6expandEv
__ZN3WTF9HashTableIyyNS_17IdentityExtractorEN7CyberCore12LinkHashHashENS_10HashTraitsIyEES5_E6rehashEi
__ZN3WTF9HashTableIyyNS_17IdentityExtractorEN7CyberCore12LinkHashHashENS_10HashTraitsIyEES5_E16lookupForWritingINS_22IdentityHashTranslatorIS3_EEyEENSt3__14pairIPybEERKT0_
__ZN3WTF9HashTableIyyNS_17IdentityExtractorEN7CyberCore12LinkHashHashENS_10HashTraitsIyEES5_E4findINS_22IdentityHashTranslatorIS3_EEyEENS_17HashTableIteratorIyyS1_S3_S5_S5_EERKT0_
__ZN3WTF9HashTableIyyNS_17IdentityExtractorEN7CyberCore12LinkHashHashENS_10HashTraitsIyEES5_E6lookupINS_22IdentityHashTranslatorIS3_EEyEEPyRKT0_
_WKEnableSandboxStyleFileQuarantine
__ZN7CoreIPC10Connection22createClientConnectionENS0_10IdentifierEPNS0_6ClientEPN7CyberCore7RunLoopE
__ZN7CoreIPC10Connection40setDidCloseOnConnectionWorkQueueCallbackEPFvPS0_E
__ZN6CyberKit10WebProcess20initializeConnectionEPN7CoreIPC10ConnectionE
__ZN6CyberKit12ChildProcess20initializeConnectionEPN7CoreIPC10ConnectionE
__ZN7CoreIPC10Connection37setShouldExitOnSyncMessageSendFailureEb
__ZN6CyberKit15EventDispatcher20initializeConnectionEPN7CoreIPC10ConnectionE
__ZN6CyberKit30PluginProcessConnectionManager20initializeConnectionEPN7CoreIPC10ConnectionE
__ZN6CyberKit11SecItemShim20initializeConnectionEPN7CoreIPC10ConnectionE
__ZN6CyberKit21CustomProtocolManager20initializeConnectionEPN7CoreIPC10ConnectionE
__ZN6CyberKit22ChildProcessSupplement20initializeConnectionEPN7CoreIPC10ConnectionE
__ZN6CyberKit24WebConnectionToUIProcess6createEPNS_10WebProcessE
__ZN7CoreIPC10Connection78setOnlySendMessagesAsDispatchWhenWaitingForSyncReplyWhenProcessingSuchAMessageEb
__ZN3WTF9HashTableIN7CoreIPC15StringReferenceENS_12KeyValuePairIS2_NSt3__14pairINS_6RefPtrI9WorkQueueEENS6_INS1_10Connection24WorkQueueMessageReceiverEEEEEEENS_24KeyValuePairKeyExtractorISD_EENS2_4HashENS_18HashMapValueTraitsINS_10HashTraitsIS2_EENSI_ISC_EEEESJ_E13allocateTableEi
__ZN3WTF9HashTableIN7CoreIPC15StringReferenceENS_12KeyValuePairIS2_NSt3__14pairINS_6RefPtrI9WorkQueueEENS6_INS1_10Connection24WorkQueueMessageReceiverEEEEEEENS_24KeyValuePairKeyExtractorISD_EENS2_4HashENS_18HashMapValueTraitsINS_10HashTraitsIS2_EENSI_ISC_EEEESJ_E15deallocateTableEPSD_i
__ZN3WTF9HashTableIN7CoreIPC15StringReferenceENS_12KeyValuePairIS2_NSt3__14pairINS_6RefPtrI9WorkQueueEENS6_INS1_10Connection24WorkQueueMessageReceiverEEEEEEENS_24KeyValuePairKeyExtractorISD_EENS2_4HashENS_18HashMapValueTraitsINS_10HashTraitsIS2_EENSI_ISC_EEEESJ_E16lookupForWritingINS_22IdentityHashTranslatorISG_EES2_EENS5_IPSD_bEERKT0_
__ZN3WTF9HashTableIN7CoreIPC15StringReferenceENS_12KeyValuePairIS2_NSt3__14pairINS_6RefPtrI9WorkQueueEENS6_INS1_10Connection24WorkQueueMessageReceiverEEEEEEENS_24KeyValuePairKeyExtractorISD_EENS2_4HashENS_18HashMapValueTraitsINS_10HashTraitsIS2_EENSI_ISC_EEEESJ_E3addINS_17HashMapTranslatorISL_SG_EES2_SC_EENS_18HashTableAddResultINS_17HashTableIteratorIS2_SD_SF_SG_SL_SJ_EEEERKT0_RKT1_
__ZN3WTF9HashTableIN7CoreIPC15StringReferenceENS_12KeyValuePairIS2_NSt3__14pairINS_6RefPtrI9WorkQueueEENS6_INS1_10Connection24WorkQueueMessageReceiverEEEEEEENS_24KeyValuePairKeyExtractorISD_EENS2_4HashENS_18HashMapValueTraitsINS_10HashTraitsIS2_EENSI_ISC_EEEESJ_E4findINS_22IdentityHashTranslatorISG_EES2_EENS_17HashTableIteratorIS2_SD_SF_SG_SL_SJ_EERKT0_
__ZN3WTF9HashTableIN7CoreIPC15StringReferenceENS_12KeyValuePairIS2_NSt3__14pairINS_6RefPtrI9WorkQueueEENS6_INS1_10Connection24WorkQueueMessageReceiverEEEEEEENS_24KeyValuePairKeyExtractorISD_EENS2_4HashENS_18HashMapValueTraitsINS_10HashTraitsIS2_EENSI_ISC_EEEESJ_E6expandEv
__ZN3WTF9HashTableIN7CoreIPC15StringReferenceENS_12KeyValuePairIS2_NSt3__14pairINS_6RefPtrI9WorkQueueEENS6_INS1_10Connection24WorkQueueMessageReceiverEEEEEEENS_24KeyValuePairKeyExtractorISD_EENS2_4HashENS_18HashMapValueTraitsINS_10HashTraitsIS2_EENSI_ISC_EEEESJ_E6lookupINS_22IdentityHashTranslatorISG_EES2_EEPSD_RKT0_
__ZN3WTF9HashTableIN7CoreIPC15StringReferenceENS_12KeyValuePairIS2_NSt3__14pairINS_6RefPtrI9WorkQueueEENS6_INS1_10Connection24WorkQueueMessageReceiverEEEEEEENS_24KeyValuePairKeyExtractorISD_EENS2_4HashENS_18HashMapValueTraitsINS_10HashTraitsIS2_EENSI_ISC_EEEESJ_E6rehashEi
__ZN3WTF9HashTableIN7CoreIPC15StringReferenceENS_12KeyValuePairIS2_NSt3__14pairINS_6RefPtrI9WorkQueueEENS6_INS1_10Connection24WorkQueueMessageReceiverEEEEEEENS_24KeyValuePairKeyExtractorISD_EENS2_4HashENS_18HashMapValueTraitsINS_10HashTraitsIS2_EENSI_ISC_EEEESJ_E6removeEPSD_
__ZN7CoreIPC10Connection24initializeDeadNameSourceEv
__ZNK7CoreIPC10Connection31platformCanSendOutgoingMessagesEv
__ZN3WTF5DequeINS_6OwnPtrIN7CoreIPC14MessageEncoderEEELm0EE11removeFirstEv
__ZN6CyberKit31SandboxInitializationParametersD1Ev
__ZN7CoreIPC10Connection19sendOutgoingMessageEN3WTF10PassOwnPtrINS_14MessageEncoderEEE
__ZN6CyberKit31SandboxInitializationParametersD2Ev
__ZN7CoreIPC15ArgumentEncoder18releaseAttachmentsEv
__ZN3WTF6VectorIPKcLm0ENS_15CrashOnOverflowEED1Ev
__ZN6CyberKit29XPCServiceInitializerDelegateD1Ev
__ZN3WTF6VectorIN7CoreIPC10AttachmentELm0ENS_15CrashOnOverflowEED1Ev
__ZN7CoreIPC14MessageEncoderD0Ev
__ZN6CyberKit26WebContextConnectionClient19didCreateConnectionEPNS_10WebContextEPNS_13WebConnectionE
__ZNK6CyberKit10WebContext40canEnableProcessSuppressionForWebProcessEPKNS_15WebProcessProxyE
__ZNK6CyberKit15WebProcessProxy30allPagesAreProcessSuppressibleEv
____ZNK3WTF8FunctionIFvvEEcvU13block_pointerS1_Ev_block_invoke
__ZN7CoreIPC10Connection25receiveSourceEventHandlerEv
__ZN7CoreIPCL16readFromMachPortEjRN3WTF6VectorIcLm4164ENS0_15CrashOnOverflowEEE
__ZN3WTF6VectorIcLm4164ENS_15CrashOnOverflowEE6resizeEm
__ZN3WTF6VectorIN7CoreIPC10AttachmentELm0ENS_15CrashOnOverflowEEC2Em
__ZN7CoreIPC10AttachmentC1Ev
__ZN7CoreIPC14MessageDecoder6createERKNS_13DataReferenceERN3WTF6VectorINS_10AttachmentELm0ENS4_15CrashOnOverflowEEE
__ZN7CoreIPC14MessageDecoderC2ERKNS_13DataReferenceERN3WTF6VectorINS_10AttachmentELm0ENS4_15CrashOnOverflowEEE
__ZN7CoreIPC15ArgumentDecoderC2EPKhmRN3WTF6VectorINS_10AttachmentELm0ENS3_15CrashOnOverflowEEE
__ZN7CoreIPC15ArgumentDecoder6decodeERh
__ZN7CoreIPC15StringReference6decodeERNS_15ArgumentDecoderERS0_
__ZN7CoreIPC13DataReference6decodeERNS_15ArgumentDecoderERS0_
__ZN7CoreIPC15ArgumentDecoder29decodeVariableLengthByteArrayERNS_13DataReferenceE
__ZN7CoreIPC15ArgumentDecoder6decodeERy
__ZN7CoreIPC14MessageDecoder22setImportanceAssertionEN3WTF10PassOwnPtrINS_19ImportanceAssertionEEE
__ZN3WTF6OwnPtrIN7CoreIPC19ImportanceAssertionEEaSERKNS_10PassOwnPtrIS2_EE
__ZN3WTF10PassOwnPtrIN7CoreIPC19ImportanceAssertionEED2Ev
__ZN7CoreIPC8MachPort6decodeERNS_15ArgumentDecoderERS0_
__ZN7CoreIPC10Attachment6decodeERNS_15ArgumentDecoderERS0_
__ZN7CoreIPC15ArgumentDecoder16removeAttachmentERNS_10AttachmentE
__ZN7CyberCore7RunLoop5TimerIN6CyberKit19VisitedLinkProviderEE5firedEv
__ZN7CoreIPC10AttachmentC1EPvjjb
__ZN6CyberKit19VisitedLinkProvider29pendingVisitedLinksTimerFiredEv
__ZN3WTF6VectorIyLm0ENS_15CrashOnOverflowEE6resizeEm
__ZN3WTF6VectorIyLm0ENS_15CrashOnOverflowEE15reserveCapacityEm
__ZN3WTF16VectorBufferBaseIyE14allocateBufferEm
__ZN6CyberKit12SharedMemory14systemPageSizeEv
__ZN6CyberKit12SharedMemory6createEm
__ZN6CyberKit12SharedMemory18createFromVMBufferEPvm
__ZN6CyberKit16VisitedLinkTable15setSharedMemoryEN3WTF10PassRefPtrINS_12SharedMemoryEEE
__ZN3WTF10RefCountedIN6CyberKit12SharedMemoryEE5derefEv
__ZN6CyberKit16VisitedLinkTable11addLinkHashEy
__ZN3WTF6VectorIyLm0ENS_15CrashOnOverflowEE14appendSlowCaseIyEEvRKT_
__ZN3WTF6VectorIyLm0ENS_15CrashOnOverflowEE14expandCapacityEmPKy
__Z20setMachExceptionPortj
__ZNK3WTF9HashTableIPN6CyberKit15WebProcessProxyES3_NS_17IdentityExtractorENS_7PtrHashIS3_EENS_10HashTraitsIS3_EES8_E5beginEv
__ZN7CoreIPC14MessageDecoderD0Ev
__ZN6CyberKit12SharedMemory6HandleC1Ev
__ZN3WTF6OwnPtrIN7CoreIPC19ImportanceAssertionEED2Ev
__ZN6CyberKit12SharedMemory12createHandleERNS0_6HandleENS0_10ProtectionE
__ZN7CoreIPC15ArgumentDecoderD2Ev
__ZN3WTF12VectorBufferIcLm4164EE16deallocateBufferEPc
__ZN6CyberKit17ChildProcessProxy4sendIN8Messages10WebProcess19SetVisitedLinkTableEEEbRKT_yj
__ZNK6CyberKit12SharedMemory6Handle6encodeERN7CoreIPC15ArgumentEncoderE
__ZN6CyberKit17ChildProcessProxy4sendIN8Messages10WebProcess26AllVisitedLinkStateChangedEEEbRKT_yj
__ZN7CoreIPC10Connection22processIncomingMessageEN3WTF10PassOwnPtrINS_14MessageDecoderEEE
__ZN7CoreIPC10Connection16SyncMessageState22processIncomingMessageEPS0_RN3WTF6OwnPtrINS_14MessageDecoderEEE
__ZN6CyberKit12SharedMemory6HandleD1Ev
__ZN3WTF6VectorIyLm0ENS_15CrashOnOverflowEED1Ev
__ZNK7CoreIPC14MessageDecoder44shouldDispatchMessageWhenWaitingForSyncReplyEv
__ZN7CoreIPC10Connection22enqueueIncomingMessageEN3WTF10PassOwnPtrINS_14MessageDecoderEEE
__ZN3WTF5DequeINS_6OwnPtrIN7CoreIPC14MessageDecoderEEELm0EE22expandCapacityIfNeededEv
__ZN3WTF5DequeINS_6OwnPtrIN7CoreIPC14MessageDecoderEEELm0EE14expandCapacityEv
__ZN3WTF16VectorBufferBaseINS_6OwnPtrIN7CoreIPC14MessageDecoderEEEE14allocateBufferEm
__ZN7CoreIPC14MessageDecoder6createERKNS_13DataReferenceE
__ZN7CoreIPC10Connection18dispatchOneMessageEv
__ZN3WTF5DequeINS_6OwnPtrIN7CoreIPC14MessageDecoderEEELm0EE11removeFirstEv
__ZN7CoreIPC10Connection15dispatchMessageEN3WTF10PassOwnPtrINS_14MessageDecoderEEE
__ZNK7CoreIPC14MessageDecoder13isSyncMessageEv
__ZN6CyberKit10WebProcess17didReceiveMessageEPN7CoreIPC10ConnectionERNS1_14MessageDecoderE
__ZN7CoreIPC18MessageReceiverMap15dispatchMessageEPNS_10ConnectionERNS_14MessageDecoderE
__ZN6CyberKit10WebProcess27didReceiveWebProcessMessageEPN7CoreIPC10ConnectionERNS1_14MessageDecoderE
__ZN7CoreIPC21handleMessageVariadicIN8Messages10WebProcess20InitializeWebProcessEN6CyberKit10WebProcessEMS5_FvRKNS4_28WebProcessCreationParametersERNS_14MessageDecoderEEEEvSA_PT0_T1_
__ZN6CyberKit28WebProcessCreationParameters6decodeERN7CoreIPC15ArgumentDecoderERS0_
__ZN7CoreIPC13ArgumentCoderIN3WTF6StringEE6decodeERNS_15ArgumentDecoderERS2_
__ZN7CoreIPC15ArgumentDecoder6decodeERj
__ZN7CoreIPC15ArgumentDecoder6decodeERb
__ZNK7CoreIPC15ArgumentDecoder28bufferIsLargeEnoughToContainEjm
__ZN7CoreIPC15ArgumentDecoder21decodeFixedLengthDataEPhmj
__ZN6CyberKit16SandboxExtension6Handle6decodeERN7CoreIPC15ArgumentDecoderERS1_
_WKSandboxExtensionCreateFromSerializedFormat
__ZN7CoreIPC19VectorArgumentCoderILb0EN3WTF6StringEE6decodeERNS_15ArgumentDecoderERNS1_6VectorIS2_Lm0ENS1_15CrashOnOverflowEEE
__ZN3WTF16VectorBufferBaseINS_6StringEE16reallocateBufferEm
__ZN7CoreIPC15ArgumentDecoder6decodeERd
__ZN7CoreIPC15ArgumentDecoder6decodeERi
__ZN7CoreIPC13ArgumentCoderIN3WTF7HashMapINS1_6StringEbNS1_10StringHashENS1_10HashTraitsIS3_EENS5_IbEEEEE6decodeERNS_15ArgumentDecoderERS8_
__ZN7CoreIPC13ArgumentCoderIN3WTF7HashMapIjdNS1_7IntHashIjEENS1_10HashTraitsIjEENS5_IdEEEEE6decodeERNS_15ArgumentDecoderERS8_
__ZN6CyberKit10WebProcess20initializeWebProcessERKNS_28WebProcessCreationParametersERN7CoreIPC14MessageDecoderE
__ZN6CyberKit10WebProcess28platformInitializeWebProcessERKNS_28WebProcessCreationParametersERN7CoreIPC14MessageDecoderE
__ZN6CyberKit16SandboxExtension18consumePermanentlyERKNS0_6HandleE
_WKSandboxExtensionConsume
__ZN3WTF9RetainPtrIP10NSURLCacheEC2ENS_10AdoptNSTagES2_
__ZN6CyberKit32InjectedBundleUserMessageDecoder6decodeERN7CoreIPC15ArgumentDecoderERS0_
__ZN6CyberKit18UserMessageDecoderINS_32InjectedBundleUserMessageDecoderEE10baseDecodeERN7CoreIPC15ArgumentDecoderERS1_RNS_9APIObject4TypeE
__ZN6CyberKit16WebPageGroupData6decodeERN7CoreIPC15ArgumentDecoderERS0_
__ZN7CoreIPC19VectorArgumentCoderILb0EN7CyberCore14UserStyleSheetEE6decodeERNS_15ArgumentDecoderERN3WTF6VectorIS2_Lm0ENS6_15CrashOnOverflowEEE
__ZN3WTF6VectorIN7CyberCore14UserStyleSheetELm0ENS_15CrashOnOverflowEE14shrinkCapacityEm
__ZN7CoreIPC19VectorArgumentCoderILb0EN7CyberCore10UserScriptEE6decodeERNS_15ArgumentDecoderERN3WTF6VectorIS2_Lm0ENS6_15CrashOnOverflowEEE
__ZN3WTF6VectorIN7CyberCore10UserScriptELm0ENS_15CrashOnOverflowEE14shrinkCapacityEm
__ZN6CyberKit10WebProcess12webPageGroupERKNS_16WebPageGroupDataE
__ZN3WTF9HashTableIyNS_12KeyValuePairIyNS_6RefPtrIN6CyberKit17WebPageGroupProxyEEEEENS_24KeyValuePairKeyExtractorIS6_EENS_7IntHashIyEENS_18HashMapValueTraitsINS_10HashTraitsIyEENSC_IS5_EEEESD_E15deallocateTableEPS6_i
__ZN3WTF9HashTableIyNS_12KeyValuePairIyNS_6RefPtrIN6CyberKit17WebPageGroupProxyEEEEENS_24KeyValuePairKeyExtractorIS6_EENS_7IntHashIyEENS_18HashMapValueTraitsINS_10HashTraitsIyEENSC_IS5_EEEESD_E16lookupForWritingINS_22IdentityHashTranslatorISA_EEyEENSt3__14pairIPS6_bEERKT0_
__ZN3WTF9HashTableIyNS_12KeyValuePairIyNS_6RefPtrIN6CyberKit17WebPageGroupProxyEEEEENS_24KeyValuePairKeyExtractorIS6_EENS_7IntHashIyEENS_18HashMapValueTraitsINS_10HashTraitsIyEENSC_IS5_EEEESD_E3addINS_17HashMapTranslatorISF_SA_EEyNS_10PassRefPtrIS4_EEEENS_18HashTableAddResultINS_17HashTableIteratorIyS6_S8_SA_SF_SD_EEEERKT0_RKT1_
__ZN3WTF9HashTableIyNS_12KeyValuePairIyNS_6RefPtrIN6CyberKit17WebPageGroupProxyEEEEENS_24KeyValuePairKeyExtractorIS6_EENS_7IntHashIyEENS_18HashMapValueTraitsINS_10HashTraitsIyEENSC_IS5_EEEESD_E4findINS_22IdentityHashTranslatorISA_EEyEENS_17HashTableIteratorIyS6_S8_SA_SF_SD_EERKT0_
__ZN3WTF9HashTableIyNS_12KeyValuePairIyNS_6RefPtrIN6CyberKit17WebPageGroupProxyEEEEENS_24KeyValuePairKeyExtractorIS6_EENS_7IntHashIyEENS_18HashMapValueTraitsINS_10HashTraitsIyEENSC_IS5_EEEESD_E6expandEv
__ZN3WTF9HashTableIyNS_12KeyValuePairIyNS_6RefPtrIN6CyberKit17WebPageGroupProxyEEEEENS_24KeyValuePairKeyExtractorIS6_EENS_7IntHashIyEENS_18HashMapValueTraitsINS_10HashTraitsIyEENSC_IS5_EEEESD_E6lookupINS_22IdentityHashTranslatorISA_EEyEEPS6_RKT0_
__ZN3WTF9HashTableIyNS_12KeyValuePairIyNS_6RefPtrIN6CyberKit17WebPageGroupProxyEEEEENS_24KeyValuePairKeyExtractorIS6_EENS_7IntHashIyEENS_18HashMapValueTraitsINS_10HashTraitsIyEENSC_IS5_EEEESD_E6rehashEi
__ZN3WTF17HashMapTranslatorINS_18HashMapValueTraitsINS_10HashTraitsIyEENS2_INS_6RefPtrIN6CyberKit17WebPageGroupProxyEEEEEEENS_7IntHashIyEEE9translateINS_12KeyValuePairIyS7_EEyNS_10PassRefPtrIS6_EEEEvRT_RKT0_RKT1_
__ZN6CyberKit17WebPageGroupProxy6createERKNS_16WebPageGroupDataE
__ZN6CyberKit17WebPageGroupProxyC2ERKNS_16WebPageGroupDataE
__ZN3WTF6VectorIN7CyberCore14UserStyleSheetELm0ENS_15CrashOnOverflowEEC2ERKS4_
__ZN3WTF6VectorIN7CyberCore10UserScriptELm0ENS_15CrashOnOverflowEEC2ERKS4_
__ZN3WTF6RefPtrIN6CyberKit9APIObjectEEaSEPS2_
__ZN6CyberKit19ImmutableDictionaryC1ERN3WTF7HashMapINS1_6StringENS1_6RefPtrINS_9APIObjectEEENS1_10StringHashENS1_10HashTraitsIS3_EENS8_IS6_EEEE
__ZN6CyberKit19ImmutableDictionaryC2ERN3WTF7HashMapINS1_6StringENS1_6RefPtrINS_9APIObjectEEENS1_10StringHashENS1_10HashTraitsIS3_EENS8_IS6_EEEE
__ZN6CyberKit14InjectedBundleC1ERKN3WTF6StringE
__ZN6CyberKit14InjectedBundleC2ERKN3WTF6StringE
__ZN6CyberKit16SandboxExtension6createERKNS0_6HandleE
__ZN6CyberKit14InjectedBundle4loadEPNS_9APIObjectE
__ZN6CyberKit16SandboxExtension18consumePermanentlyEv
__ZN3WTF10RefCountedIN6CyberKit16SandboxExtensionEE5derefEv
__ZN6CyberKit16SandboxExtensionD1Ev
__ZNK3WTF6String10charactersEv
__ZN6CyberKit20DrawingAreaProxyImpl28setBackingStoreIsDiscardableEb
-[WKView _windowDidBecomeKey:]
-[WKView(Internal) _updateSecureInputState]
_NetworkServiceInitializer
__ZN6CyberKit19NetworkProcessProxy18didFinishLaunchingEPNS_15ProcessLauncherEN7CoreIPC10Connection10IdentifierE
__ZN6CyberKit19NetworkProcessProxy18connectionWillOpenEPN7CoreIPC10ConnectionE
__ZNK6CyberKit10WebContext44canEnableProcessSuppressionForNetworkProcessEv
__ZN6CyberKit21XPCServiceInitializerINS_14NetworkProcessENS_29XPCServiceInitializerDelegateEEEvP17_xpc_connection_sPv
__ZN6CyberKit14NetworkProcess6sharedEv
__ZN6CyberKit14NetworkProcessC2Ev
__ZN6CyberKit28NetworkResourceLoadSchedulerC1Ev
__ZN6CyberKit28NetworkResourceLoadSchedulerC2Ev
__ZN6CyberKit10HostRecordC1ERKN3WTF6StringEi
__ZN6CyberKit28NetworkResourceLoadScheduler51platformInitializeMaximumHTTPConnectionCountPerHostEv
__ZN6CyberKit32NetworkProcessPlatformStrategies10initializeEv
__ZN6CyberKit14NetworkProcess13addSupplementINS_21AuthenticationManagerEEEvv
__ZN6CyberKit14NetworkProcess13addSupplementINS_16WebCookieManagerEEEvv
__ZN6CyberKit14NetworkProcess13addSupplementINS_21CustomProtocolManagerEEEvv
__ZN6CyberKit14NetworkProcess17initializeProcessERKNS_36ChildProcessInitializationParametersE
__ZN6CyberKit12ChildProcess22setApplicationIsDaemonEv
__ZN6CyberKit14NetworkProcess21initializeProcessNameERKNS_36ChildProcessInitializationParametersE
__ZN6CyberKit14NetworkProcess17initializeSandboxERKNS_36ChildProcessInitializationParametersERNS_31SandboxInitializationParametersE
__ZN6CyberKit14NetworkProcess20initializeConnectionEPN7CoreIPC10ConnectionE
__ZN3WTF9HashTableIPKcNS_12KeyValuePairIS2_NS_6OwnPtrIN6CyberKit24NetworkProcessSupplementEEEEENS_24KeyValuePairKeyExtractorIS8_EENS_7PtrHashIS2_EENS_18HashMapValueTraitsINS_10HashTraitsIS2_EENSE_IS7_EEEESF_E15deallocateTableEPS8_i
__ZN3WTF9HashTableIPKcNS_12KeyValuePairIS2_NS_6OwnPtrIN6CyberKit24NetworkProcessSupplementEEEEENS_24KeyValuePairKeyExtractorIS8_EENS_7PtrHashIS2_EENS_18HashMapValueTraitsINS_10HashTraitsIS2_EENSE_IS7_EEEESF_E16lookupForWritingINS_22IdentityHashTranslatorISC_EES2_EENSt3__14pairIPS8_bEERKT0_
__ZN3WTF9HashTableIPKcNS_12KeyValuePairIS2_NS_6OwnPtrIN6CyberKit24NetworkProcessSupplementEEEEENS_24KeyValuePairKeyExtractorIS8_EENS_7PtrHashIS2_EENS_18HashMapValueTraitsINS_10HashTraitsIS2_EENSE_IS7_EEEESF_E3addINS_17HashMapTranslatorISH_SC_EES2_NS_10PassOwnPtrIS6_EEEENS_18HashTableAddResultINS_17HashTableIteratorIS2_S8_SA_SC_SH_SF_EEEERKT0_RKT1_
__ZN3WTF9HashTableIPKcNS_12KeyValuePairIS2_NS_6OwnPtrIN6CyberKit24NetworkProcessSupplementEEEEENS_24KeyValuePairKeyExtractorIS8_EENS_7PtrHashIS2_EENS_18HashMapValueTraitsINS_10HashTraitsIS2_EENSE_IS7_EEEESF_E4findINS_22IdentityHashTranslatorISC_EES2_EENS_17HashTableIteratorIS2_S8_SA_SC_SH_SF_EERKT0_
__ZN3WTF9HashTableIPKcNS_12KeyValuePairIS2_NS_6OwnPtrIN6CyberKit24NetworkProcessSupplementEEEEENS_24KeyValuePairKeyExtractorIS8_EENS_7PtrHashIS2_EENS_18HashMapValueTraitsINS_10HashTraitsIS2_EENSE_IS7_EEEESF_E5beginEv
__ZN3WTF9HashTableIPKcNS_12KeyValuePairIS2_NS_6OwnPtrIN6CyberKit24NetworkProcessSupplementEEEEENS_24KeyValuePairKeyExtractorIS8_EENS_7PtrHashIS2_EENS_18HashMapValueTraitsINS_10HashTraitsIS2_EENSE_IS7_EEEESF_E6expandEv
__ZN3WTF9HashTableIPKcNS_12KeyValuePairIS2_NS_6OwnPtrIN6CyberKit24NetworkProcessSupplementEEEEENS_24KeyValuePairKeyExtractorIS8_EENS_7PtrHashIS2_EENS_18HashMapValueTraitsINS_10HashTraitsIS2_EENSE_IS7_EEEESF_E6lookupINS_22IdentityHashTranslatorISC_EES2_EEPS8_RKT0_
__ZN3WTF9HashTableIPKcNS_12KeyValuePairIS2_NS_6OwnPtrIN6CyberKit24NetworkProcessSupplementEEEEENS_24KeyValuePairKeyExtractorIS8_EENS_7PtrHashIS2_EENS_18HashMapValueTraitsINS_10HashTraitsIS2_EENSE_IS7_EEEESF_E6rehashEi
__ZThn8_N6CyberKit21CustomProtocolManager20initializeConnectionEPN7CoreIPC10ConnectionE
__ZN3WTF4bindIMN7CoreIPC10ConnectionEFvPNS2_24WorkQueueMessageReceiverEPNS1_14MessageDecoderEEPS2_NS_6RefPtrIS3_EES6_EENS_8FunctionIFNS_15FunctionWrapperIT_E10ResultTypeEvEEESE_RKT0_RKT1_RKT2_
__ZN7CoreIPC10Connection39dispatchWorkQueueMessageReceiverMessageEPNS0_24WorkQueueMessageReceiverEPNS_14MessageDecoderE
__ZThn16_N6CyberKit21CustomProtocolManager17didReceiveMessageEPN7CoreIPC10ConnectionERNS1_14MessageDecoderE
__ZN6CyberKit21CustomProtocolManager17didReceiveMessageEPN7CoreIPC10ConnectionERNS1_14MessageDecoderE
__ZN6CyberKit14NetworkProcess17didReceiveMessageEPN7CoreIPC10ConnectionERNS1_14MessageDecoderE
__ZN7CoreIPC13handleMessageIN8Messages21CustomProtocolManager14RegisterSchemeEN6CyberKit21CustomProtocolManagerEMS5_FvRKN3WTF6StringEEEEvRNS_14MessageDecoderEPT0_T1_
__ZN6CyberKit14NetworkProcess31didReceiveNetworkProcessMessageEPN7CoreIPC10ConnectionERNS1_14MessageDecoderE
__ZN7CoreIPC13handleMessageIN8Messages14NetworkProcess24InitializeNetworkProcessEN6CyberKit14NetworkProcessEMS5_FvRKNS4_32NetworkProcessCreationParametersEEEEvRNS_14MessageDecoderEPT0_T1_
__ZN6CyberKit21CustomProtocolManager14registerSchemeERKN3WTF6StringE
__ZN6CyberKit32NetworkProcessCreationParameters6decodeERN7CoreIPC15ArgumentDecoderERS0_
__ZN6CyberKit14NetworkProcess24initializeNetworkProcessERKNS_32NetworkProcessCreationParametersE
__ZN6CyberKit14NetworkProcess32platformInitializeNetworkProcessERKNS_32NetworkProcessCreationParametersE
__ZN6CyberKit21NetworkResourceLoader29fileBackedResourceMinimumSizeEv
__ZN6CyberKit14NetworkProcess13setCacheModelEj
__ZN6CyberKit14NetworkProcess21platformSetCacheModelENS_10CacheModelE
____ZN6CyberKitL10memorySizeEv_block_invoke
__ZN6CyberKit19calculateCacheSizesENS_10CacheModelEyyRjS1_S1_RdS1_RmS3_
__ZN6CyberKit23RemoteNetworkingContext46setPrivateBrowsingStorageSessionIdentifierBaseERKN3WTF6StringE
__ZN6CyberKitL43privateBrowsingStorageSessionIdentifierBaseEv
__ZThn8_N6CyberKit21CustomProtocolManager10initializeERKNS_32NetworkProcessCreationParametersE
__ZN6CyberKit21CustomProtocolManager10initializeERKNS_32NetworkProcessCreationParametersE
__ZN6CyberKit24NetworkProcessSupplement10initializeERKNS_32NetworkProcessCreationParametersE
_WKPreferencesSetDefaultFontSize
__ZN6CyberKit14WebPreferences18setDefaultFontSizeERKj
_WKPreferencesSetDefaultFixedFontSize
__ZN6CyberKit14WebPreferences23setDefaultFixedFontSizeERKj
_WKPreferencesSetJavaScriptCanOpenWindowsAutomatically
__ZN6CyberKit14WebPreferences40setJavaScriptCanOpenWindowsAutomaticallyERKb
_WKPreferencesSetOfflineWebApplicationCacheEnabled
__ZN6CyberKit14WebPreferences36setOfflineWebApplicationCacheEnabledERKb
_WKPreferencesSetDefaultTextEncodingName
__ZN6CyberKit14WebPreferences26setDefaultTextEncodingNameERKN3WTF6StringE
__ZN6CyberKit14WebPreferences31platformUpdateStringValueForKeyERKN3WTF6StringES4_
_WKPreferencesSetStandardFontFamily
__ZN6CyberKit14WebPreferences21setStandardFontFamilyERKN3WTF6StringE
_WKPreferencesSetFixedFontFamily
__ZN6CyberKit14WebPreferences18setFixedFontFamilyERKN3WTF6StringE
_WKPreferencesSetSerifFontFamily
__ZN6CyberKit14WebPreferences18setSerifFontFamilyERKN3WTF6StringE
_WKPreferencesSetSansSerifFontFamily
__ZN6CyberKit14WebPreferences22setSansSerifFontFamilyERKN3WTF6StringE
_WKPreferencesSetCursiveFontFamily
__ZN6CyberKit14WebPreferences20setCursiveFontFamilyERKN3WTF6StringE
_WKPreferencesSetFantasyFontFamily
__ZN6CyberKit14WebPreferences20setFantasyFontFamilyERKN3WTF6StringE
_WKPreferencesSetPageCacheEnabled
__ZN6CyberKit14WebPreferences16setUsesPageCacheERKb
_WKPreferencesSetDNSPrefetchingEnabled
__ZN6CyberKit14WebPreferences24setDNSPrefetchingEnabledERKb
_WKPreferencesSetWebSecurityEnabled
__ZN6CyberKit14WebPreferences21setWebSecurityEnabledERKb
_WKPreferencesSetAVFoundationEnabled
__ZN6CyberKit14WebPreferences22setAVFoundationEnabledERKb
_WKPreferencesSetFullScreenEnabled
__ZN6CyberKit14WebPreferences20setFullScreenEnabledERKb
_WKPreferencesSetNeedsSiteSpecificQuirks
__ZN6CyberKit14WebPreferences26setNeedsSiteSpecificQuirksERKb
_WKPreferencesSetWebArchiveDebugModeEnabled
__ZN6CyberKit14WebPreferences29setWebArchiveDebugModeEnabledERKb
_WKPreferencesSetLocalFileContentSniffingEnabled
__ZN6CyberKit14WebPreferences34setLocalFileContentSniffingEnabledERKb
_WKPreferencesSetPaginateDuringLayoutEnabled
__ZN6CyberKit14WebPreferences30setPaginateDuringLayoutEnabledERKb
_WKDictionaryGetItemForKey
_WKBundleSetClient
__ZN6CyberKit14InjectedBundle16initializeClientEP14WKBundleClient
__ZN6CyberKit9APIClientI14WKBundleClientLi1EE10initializeEPKS1_
_WKBooleanGetValue
_WKDictionaryCopyKeys
__ZN6CyberKit21CustomProtocolManager10initializeERKNS_28WebProcessCreationParametersE
__ZN7CoreIPC10Connection30removeWorkQueueMessageReceiverENS_15StringReferenceE
__ZN6CyberKit22WebNotificationManager10initializeERKNS_28WebProcessCreationParametersE
__ZN3WTF17BoundFunctionImplINS_15FunctionWrapperIMN7CoreIPC10ConnectionEFvNS2_15StringReferenceEEEEFvPS3_S4_EEclEv
__ZN6CyberKit20WebProcessSupplement10initializeERKNS_28WebProcessCreationParametersE
__ZThn8_N6CyberKit18WebDatabaseManager10initializeERKNS_28WebProcessCreationParametersE
__ZN7CoreIPC10Connection51removeWorkQueueMessageReceiverOnConnectionWorkQueueENS_15StringReferenceE
__ZN6CyberKit18WebDatabaseManager10initializeERKNS_28WebProcessCreationParametersE
__ZN3WTF7HashMapIN7CoreIPC15StringReferenceENSt3__14pairINS_6RefPtrI9WorkQueueEENS5_INS1_10Connection24WorkQueueMessageReceiverEEEEENS2_4HashENS_10HashTraitsIS2_EENSD_ISB_EEE6removeERKS2_
__ZN6CyberKit21WebPlatformStrategies22createDatabaseStrategyEv
__ZN9WorkQueueD1Ev
__ZThn80_N6CyberKit21WebPlatformStrategies17getDatabaseServerEv
__ZN9WorkQueue18platformInvalidateEv
__ZN3WTF17BoundFunctionImplINS_15FunctionWrapperIMN7CoreIPC10ConnectionEFvNS2_15StringReferenceEEEEFvPS3_S4_EED0Ev
__ZN6CyberKit20WebIconDatabaseProxy10setEnabledEb
__ZN6CyberKit10WebProcess13setCacheModelEj
__ZN6CyberKit10WebProcess21platformSetCacheModelENS_10CacheModelE
__ZN6CyberKit25WebFrameNetworkingContext46setPrivateBrowsingStorageSessionIdentifierBaseERKN3WTF6StringE
__ZN6CyberKit10WebProcess30ensureNetworkProcessConnectionEv
__ZN7CoreIPC10Connection8sendSyncIN8Messages15WebProcessProxy27GetNetworkProcessConnectionEEEbRKT_RKNS5_5ReplyEydj
__ZN7CoreIPC10Connection24createSyncMessageEncoderENS_15StringReferenceES1_yRy
__ZN7CoreIPC14MessageEncoder16setIsSyncMessageEb
__ZN7CoreIPC10Connection15sendSyncMessageEyN3WTF10PassOwnPtrINS_14MessageEncoderEEEdj
__ZN3WTF6VectorIN7CoreIPC10Connection16PendingSyncReplyELm0ENS_15CrashOnOverflowEE14appendSlowCaseIS3_EEvRKT_
__ZN3WTF6VectorIN7CoreIPC10Connection16PendingSyncReplyELm0ENS_15CrashOnOverflowEE14expandCapacityEmPKS3_
__ZN3WTF6VectorIN7CoreIPC10Connection16PendingSyncReplyELm0ENS_15CrashOnOverflowEE15reserveCapacityEm
__ZN3WTF16VectorBufferBaseIN7CoreIPC10Connection16PendingSyncReplyEE14allocateBufferEm
__ZN7CoreIPC10Connection16waitForSyncReplyEydj
__ZN7CoreIPC10Connection16SyncMessageState16dispatchMessagesEPS0_
__ZN3WTF6VectorIN7CoreIPC10Connection16SyncMessageState28ConnectionAndIncomingMessageELm0ENS_15CrashOnOverflowEED2Ev
__ZN7CoreIPC10Connection19dispatchSyncMessageERNS_14MessageDecoderE
__ZThn8_N6CyberKit15WebProcessProxy21didReceiveSyncMessageEPN7CoreIPC10ConnectionERNS1_14MessageDecoderERN3WTF6OwnPtrINS1_14MessageEncoderEEE
__ZN6CyberKit15WebProcessProxy21didReceiveSyncMessageEPN7CoreIPC10ConnectionERNS1_14MessageDecoderERN3WTF6OwnPtrINS1_14MessageEncoderEEE
__ZN6CyberKit17ChildProcessProxy19dispatchSyncMessageEPN7CoreIPC10ConnectionERNS1_14MessageDecoderERN3WTF6OwnPtrINS1_14MessageEncoderEEE
__ZN7CoreIPC18MessageReceiverMap19dispatchSyncMessageEPNS_10ConnectionERNS_14MessageDecoderERN3WTF6OwnPtrINS_14MessageEncoderEEE
__ZN6CyberKit10WebContext19dispatchSyncMessageEPN7CoreIPC10ConnectionERNS1_14MessageDecoderERN3WTF6OwnPtrINS1_14MessageEncoderEEE
__ZN6CyberKit15WebProcessProxy36didReceiveSyncWebProcessProxyMessageEPN7CoreIPC10ConnectionERNS1_14MessageDecoderERN3WTF6OwnPtrINS1_14MessageEncoderEEE
__ZN7CoreIPC20handleMessageDelayedIN8Messages15WebProcessProxy27GetNetworkProcessConnectionEN6CyberKit15WebProcessProxyEMS5_FvN3WTF10PassRefPtrINS3_12DelayedReplyEEEEEEvPNS_10ConnectionERNS_14MessageDecoderERNS6_6OwnPtrINS_14MessageEncoderEEEPT0_T1_
__ZN7CoreIPC18callMemberFunctionIN6CyberKit15WebProcessProxyEMS2_FvN3WTF10PassRefPtrIN8Messages15WebProcessProxy27GetNetworkProcessConnection12DelayedReplyEEEES8_EEvRKNS_10Arguments0ENS4_IT1_EEPT_T0_
__ZN6CyberKit15WebProcessProxy27getNetworkProcessConnectionEN3WTF10PassRefPtrIN8Messages15WebProcessProxy27GetNetworkProcessConnection12DelayedReplyEEE
__ZN6CyberKit10WebContext27getNetworkProcessConnectionEN3WTF10PassRefPtrIN8Messages15WebProcessProxy27GetNetworkProcessConnection12DelayedReplyEEE
__ZN6CyberKit19NetworkProcessProxy27getNetworkProcessConnectionEN3WTF10PassRefPtrIN8Messages15WebProcessProxy27GetNetworkProcessConnection12DelayedReplyEEE
__ZN3WTF5DequeINS_6RefPtrIN8Messages15WebProcessProxy27GetNetworkProcessConnection12DelayedReplyEEELm0EE22expandCapacityIfNeededEv
__ZN3WTF5DequeINS_6RefPtrIN8Messages15WebProcessProxy27GetNetworkProcessConnection12DelayedReplyEEELm0EE14expandCapacityEv
__ZN3WTF16VectorBufferBaseINS_6RefPtrIN8Messages15WebProcessProxy27GetNetworkProcessConnection12DelayedReplyEEEE14allocateBufferEm
__ZN7CoreIPC10Connection4sendIN8Messages14NetworkProcess35CreateNetworkConnectionToWebProcessEEEbRKT_yj
__ZN7CoreIPC14MessageEncoder47setShouldDispatchMessageWhenWaitingForSyncReplyEb
__ZN3WTF9HashTableINS_6RefPtrIN7CoreIPC10ConnectionEEES4_NS_17IdentityExtractorENS_7PtrHashIS4_EENS_10HashTraitsIS4_EES9_E3addINS_22IdentityHashTranslatorIS7_EES4_S4_EENS_18HashTableAddResultINS_17HashTableIteratorIS4_S4_S5_S7_S9_S9_EEEERKT0_RKT1_
__ZN3WTF9HashTableINS_6RefPtrIN7CoreIPC10ConnectionEEES4_NS_17IdentityExtractorENS_7PtrHashIS4_EENS_10HashTraitsIS4_EES9_E6expandEv
__ZN3WTF9HashTableINS_6RefPtrIN7CoreIPC10ConnectionEEES4_NS_17IdentityExtractorENS_7PtrHashIS4_EENS_10HashTraitsIS4_EES9_E6rehashEi
__ZN3WTF9HashTableINS_6RefPtrIN7CoreIPC10ConnectionEEES4_NS_17IdentityExtractorENS_7PtrHashIS4_EENS_10HashTraitsIS4_EES9_E15deallocateTableEPS4_i
__ZN3WTF6RefPtrIN7CoreIPC10ConnectionEEaSERKS3_
__ZN3WTF4bindIMN7CoreIPC10Connection16SyncMessageStateEFvPS2_EPS3_NS_6RefPtrIS2_EEEENS_8FunctionIFNS_15FunctionWrapperIT_E10ResultTypeEvEEESC_RKT0_RKT1_
__ZN3WTF6VectorIN7CoreIPC10Connection16SyncMessageState28ConnectionAndIncomingMessageELm0ENS_15CrashOnOverflowEE14appendSlowCaseIS4_EEvRKT_
__ZN3WTF6VectorIN7CoreIPC10Connection16SyncMessageState28ConnectionAndIncomingMessageELm0ENS_15CrashOnOverflowEE14expandCapacityEmPKS4_
__ZN3WTF6VectorIN7CoreIPC10Connection16SyncMessageState28ConnectionAndIncomingMessageELm0ENS_15CrashOnOverflowEE15reserveCapacityEm
__ZN3WTF16VectorBufferBaseIN7CoreIPC10Connection16SyncMessageState28ConnectionAndIncomingMessageEE14allocateBufferEm
__ZN3WTF17BoundFunctionImplINS_15FunctionWrapperIMN7CoreIPC10Connection16SyncMessageStateEFvPS3_EEEFvPS4_NS_6RefPtrIS3_EEEEclEv
__ZN3WTF11VectorMoverILb0EN7CoreIPC10Connection16SyncMessageState28ConnectionAndIncomingMessageEE4moveEPKS4_S7_PS4_
__ZN7CoreIPC10Connection16SyncMessageState63dispatchMessageAndResetDidScheduleDispatchMessagesForConnectionEPS0_
__ZN3WTF7HashSetINS_6RefPtrIN7CoreIPC10ConnectionEEENS_7PtrHashIS4_EENS_10HashTraitsIS4_EEE6removeERKS4_
__ZNK3WTF9HashTableINS_6RefPtrIN7CoreIPC10ConnectionEEES4_NS_17IdentityExtractorENS_7PtrHashIS4_EENS_10HashTraitsIS4_EES9_E4findINS_22IdentityHashTranslatorIS7_EES4_EENS_22HashTableConstIteratorIS4_S4_S5_S7_S9_S9_EERKT0_
__ZN3WTF9HashTableINS_6RefPtrIN7CoreIPC10ConnectionEEES4_NS_17IdentityExtractorENS_7PtrHashIS4_EENS_10HashTraitsIS4_EES9_E6lookupINS_22IdentityHashTranslatorIS7_EES4_EEPS4_RKT0_
__ZN3WTF9HashTableINS_6RefPtrIN7CoreIPC10ConnectionEEES4_NS_17IdentityExtractorENS_7PtrHashIS4_EENS_10HashTraitsIS4_EES9_E6removeEPS4_
__ZN6CyberKit14NetworkProcess35createNetworkConnectionToWebProcessEv
__ZN6CyberKit29NetworkConnectionToWebProcess6createEN7CoreIPC10Connection10IdentifierE
__ZN6CyberKit29NetworkConnectionToWebProcessC2EN7CoreIPC10Connection10IdentifierE
__ZN3WTF6VectorINS_6RefPtrIN6CyberKit29NetworkConnectionToWebProcessEEELm0ENS_15CrashOnOverflowEE14appendSlowCaseINS_10PassRefPtrIS3_EEEEvRKT_
__ZN3WTF6VectorINS_6RefPtrIN6CyberKit29NetworkConnectionToWebProcessEEELm0ENS_15CrashOnOverflowEE15reserveCapacityEm
__ZN3WTF16VectorBufferBaseINS_6RefPtrIN6CyberKit29NetworkConnectionToWebProcessEEEE14allocateBufferEm
__ZN7CoreIPC10Connection4sendIN8Messages19NetworkProcessProxy38DidCreateNetworkConnectionToWebProcessEEEbRKT_yj
__ZN3WTF6VectorIN7CoreIPC10Connection16SyncMessageState28ConnectionAndIncomingMessageELm0ENS_15CrashOnOverflowEE6shrinkEm
__ZN3WTF17BoundFunctionImplINS_15FunctionWrapperIMN7CoreIPC10Connection16SyncMessageStateEFvPS3_EEEFvPS4_NS_6RefPtrIS3_EEEED0Ev
__ZN3WTF17BoundFunctionImplINS_15FunctionWrapperIMN7CoreIPC10Connection16SyncMessageStateEFvPS3_EEEFvPS4_NS_6RefPtrIS3_EEEED2Ev
__ZN3WTF20ThreadSafeRefCountedIN7CoreIPC10Connection16SyncMessageStateEE5derefEv
__ZThn8_N6CyberKit19NetworkProcessProxy17didReceiveMessageEPN7CoreIPC10ConnectionERNS1_14MessageDecoderE
__ZN6CyberKit19NetworkProcessProxy17didReceiveMessageEPN7CoreIPC10ConnectionERNS1_14MessageDecoderE
__ZN6CyberKit17ChildProcessProxy15dispatchMessageEPN7CoreIPC10ConnectionERNS1_14MessageDecoderE
__ZN6CyberKit10WebContext15dispatchMessageEPN7CoreIPC10ConnectionERNS1_14MessageDecoderE
__ZN6CyberKit19NetworkProcessProxy36didReceiveNetworkProcessProxyMessageEPN7CoreIPC10ConnectionERNS1_14MessageDecoderE
__ZN7CoreIPC13handleMessageIN8Messages19NetworkProcessProxy38DidCreateNetworkConnectionToWebProcessEN6CyberKit19NetworkProcessProxyEMS5_FvRKNS_10AttachmentEEEEvRNS_14MessageDecoderEPT0_T1_
__ZN6CyberKit19NetworkProcessProxy38didCreateNetworkConnectionToWebProcessERKN7CoreIPC10AttachmentE
__ZN3WTF5DequeINS_6RefPtrIN8Messages15WebProcessProxy27GetNetworkProcessConnection12DelayedReplyEEELm0EE11removeFirstEv
__ZN8Messages15WebProcessProxy27GetNetworkProcessConnection12DelayedReply4sendERKN7CoreIPC10AttachmentE
__ZN7CoreIPC10Connection13sendSyncReplyEN3WTF10PassOwnPtrINS_14MessageEncoderEEE
__ZN3WTF20ThreadSafeRefCountedIN8Messages15WebProcessProxy27GetNetworkProcessConnection12DelayedReplyEE5derefEv
__ZN8Messages15WebProcessProxy27GetNetworkProcessConnection12DelayedReplyD1Ev
__ZN8Messages15WebProcessProxy27GetNetworkProcessConnection12DelayedReplyD2Ev
__ZN7CoreIPC10Connection24processIncomingSyncReplyEN3WTF10PassOwnPtrINS_14MessageDecoderEEE
__ZN6CyberKit24NetworkProcessConnectionC1EN7CoreIPC10Connection10IdentifierE
__ZN6CyberKit24NetworkProcessConnectionC2EN7CoreIPC10Connection10IdentifierE
__ZN3WTF6RefPtrIN6CyberKit24NetworkProcessConnectionEEaSERKNS_10PassRefPtrIS2_EE
__ZN6CyberKit17CookieStorageShim6sharedEv
__ZN6CyberKit17CookieStorageShim10initializeEv
__ZN6CyberKit10WebProcess25postInjectedBundleMessageERKN7CoreIPC13DataReferenceE
__ZN7CoreIPC15ArgumentDecoder6createEPKhm
__ZN3WTF6VectorINS_6RefPtrIN6CyberKit9APIObjectEEELm0ENS_15CrashOnOverflowEE14appendSlowCaseINS_10PassRefPtrIS3_EEEEvRKT_
__ZN6CyberKit14InjectedBundle17didReceiveMessageERKN3WTF6StringEPNS_9APIObjectE
__ZN6CyberKit20InjectedBundleClient17didReceiveMessageEPNS_14InjectedBundleERKN3WTF6StringEPNS_9APIObjectE
_WKStringIsEqual
_WKGetTypeID
_WKArrayGetTypeID
_WKStringGetTypeID
_WKURLGetTypeID
_WKUInt64GetTypeID
_WKUInt64GetValue
__ZN7CoreIPC15ArgumentDecoderD0Ev
_WKBundleScriptWorldCreateWorld
__ZN6CyberKit25InjectedBundleScriptWorld6createEv
__ZN6CyberKit25InjectedBundleScriptWorldC2EN3WTF10PassRefPtrIN7CyberCore15DOMWrapperWorldEEE
__ZN6CyberKitL9allWorldsEv
_WKBooleanGetTypeID
_WKBundleAddOriginAccessWhitelistEntry
__ZN6CyberKit14InjectedBundle29addOriginAccessWhitelistEntryERKN3WTF6StringES4_S4_b
__ZNK6CyberKit14TypedAPIObjectILNS_9APIObject4TypeE81EE4typeEv
_WKBundlePageGroupGetTypeID
_WKBundleAddUserStyleSheet
__ZN6CyberKit14InjectedBundle17addUserStyleSheetEPNS_17WebPageGroupProxyEPNS_25InjectedBundleScriptWorldERKN3WTF6StringES8_PNS_14ImmutableArrayESA_N7CyberCore25UserContentInjectedFramesE
__ZNK6CyberKit25InjectedBundleScriptWorld9coreWorldEv
__ZN6CyberKitL14toStringVectorEPNS_14ImmutableArrayE
_WKBundleAddUserScript
__ZN6CyberKit14InjectedBundle13addUserScriptEPNS_17WebPageGroupProxyEPNS_25InjectedBundleScriptWorldERKN3WTF6StringES8_PNS_14ImmutableArrayESA_N7CyberCore23UserScriptInjectionTimeENSB_25UserContentInjectedFramesE
__ZThn8_N6CyberKit22WebNotificationManager17didReceiveMessageEPN7CoreIPC10ConnectionERNS1_14MessageDecoderE
__ZN6CyberKit22WebNotificationManager17didReceiveMessageEPN7CoreIPC10ConnectionERNS1_14MessageDecoderE
__ZN7CoreIPC13handleMessageIN8Messages22WebNotificationManager29DidUpdateNotificationDecisionEN6CyberKit22WebNotificationManagerEMS5_FvRKN3WTF6StringEbEEEvRNS_14MessageDecoderEPT0_T1_
__ZN7CoreIPC10Arguments2IN3WTF6StringEbE6decodeERNS_15ArgumentDecoderERS3_
__ZN6CyberKit22WebNotificationManager29didUpdateNotificationDecisionERKN3WTF6StringEb
__ZN3WTF9HashTableIPN7CyberCore15DOMWrapperWorldENS_12KeyValuePairIS3_PN6CyberKit25InjectedBundleScriptWorldEEENS_24KeyValuePairKeyExtractorIS8_EENS_7PtrHashIS3_EENS_18HashMapValueTraitsINS_10HashTraitsIS3_EENSE_IS7_EEEESF_E16lookupForWritingINS_22IdentityHashTranslatorISC_EES3_EENSt3__14pairIPS8_bEERKT0_
__ZN3WTF9HashTableIPN7CyberCore15DOMWrapperWorldENS_12KeyValuePairIS3_PN6CyberKit25InjectedBundleScriptWorldEEENS_24KeyValuePairKeyExtractorIS8_EENS_7PtrHashIS3_EENS_18HashMapValueTraitsINS_10HashTraitsIS3_EENSE_IS7_EEEESF_E3addINS_17HashMapTranslatorISH_SC_EES3_S7_EENS_18HashTableAddResultINS_17HashTableIteratorIS3_S8_SA_SC_SH_SF_EEEERKT0_RKT1_
__ZN3WTF9HashTableIPN7CyberCore15DOMWrapperWorldENS_12KeyValuePairIS3_PN6CyberKit25InjectedBundleScriptWorldEEENS_24KeyValuePairKeyExtractorIS8_EENS_7PtrHashIS3_EENS_18HashMapValueTraitsINS_10HashTraitsIS3_EENSE_IS7_EEEESF_E4findINS_22IdentityHashTranslatorISC_EES3_EENS_17HashTableIteratorIS3_S8_SA_SC_SH_SF_EERKT0_
__ZN3WTF9HashTableIPN7CyberCore15DOMWrapperWorldENS_12KeyValuePairIS3_PN6CyberKit25InjectedBundleScriptWorldEEENS_24KeyValuePairKeyExtractorIS8_EENS_7PtrHashIS3_EENS_18HashMapValueTraitsINS_10HashTraitsIS3_EENSE_IS7_EEEESF_E6expandEv
__ZN3WTF9HashTableIPN7CyberCore15DOMWrapperWorldENS_12KeyValuePairIS3_PN6CyberKit25InjectedBundleScriptWorldEEENS_24KeyValuePairKeyExtractorIS8_EENS_7PtrHashIS3_EENS_18HashMapValueTraitsINS_10HashTraitsIS3_EENSE_IS7_EEEESF_E6lookupINS_22IdentityHashTranslatorISC_EES3_EEPS8_RKT0_
__ZN3WTF9HashTableIPN7CyberCore15DOMWrapperWorldENS_12KeyValuePairIS3_PN6CyberKit25InjectedBundleScriptWorldEEENS_24KeyValuePairKeyExtractorIS8_EENS_7PtrHashIS3_EENS_18HashMapValueTraitsINS_10HashTraitsIS3_EENSE_IS7_EEEESF_E6rehashEi
__ZN3WTF9HashTableIPN7CyberCore15DOMWrapperWorldENS_12KeyValuePairIS3_PN6CyberKit25InjectedBundleScriptWorldEEENS_24KeyValuePairKeyExtractorIS8_EENS_7PtrHashIS3_EENS_18HashMapValueTraitsINS_10HashTraitsIS3_EENSE_IS7_EEEESF_E6removeEPS8_
__ZN7CoreIPC13handleMessageIN8Messages10WebProcess13CreateWebPageEN6CyberKit10WebProcessEMS5_FvyRKNS4_25WebPageCreationParametersEEEEvRNS_14MessageDecoderEPT0_T1_
__ZN7CoreIPC10Arguments2IyN6CyberKit25WebPageCreationParametersEE6decodeERNS_15ArgumentDecoderERS3_
__ZN6CyberKit25WebPageCreationParameters6decodeERN7CoreIPC15ArgumentDecoderERS0_
__ZN7CoreIPC13ArgumentCoderIN7CyberCore7IntSizeEE6decodeERNS_15ArgumentDecoderERS2_
__ZN6CyberKit19WebPreferencesStore6decodeERN7CoreIPC15ArgumentDecoderERS0_
__ZN7CoreIPC13ArgumentCoderIN3WTF7HashMapINS1_6StringES3_NS1_10StringHashENS1_10HashTraitsIS3_EES6_EEE6decodeERNS_15ArgumentDecoderERS7_
__ZN7CoreIPC13ArgumentCoderIN3WTF7HashMapINS1_6StringEjNS1_10StringHashENS1_10HashTraitsIS3_EENS5_IjEEEEE6decodeERNS_15ArgumentDecoderERS8_
__ZN7CoreIPC13ArgumentCoderIN3WTF7HashMapINS1_6StringEdNS1_10StringHashENS1_10HashTraitsIS3_EENS5_IdEEEEE6decodeERNS_15ArgumentDecoderERS8_
__ZN7CoreIPC13ArgumentCoderIN3WTF7HashMapINS1_6StringEfNS1_10StringHashENS1_10HashTraitsIS3_EENS5_IfEEEEE6decodeERNS_15ArgumentDecoderERS8_
__ZN7CoreIPC13ArgumentCoderIN7CyberCore5ColorEE6decodeERNS_15ArgumentDecoderERS2_
__ZN6CyberKit12SessionState6decodeERN7CoreIPC15ArgumentDecoderERS0_
__ZN7CoreIPC19VectorArgumentCoderILb0EN3WTF6RefPtrIN6CyberKit22WebBackForwardListItemEEEE6decodeERNS_15ArgumentDecoderERNS1_6VectorIS5_Lm0ENS1_15CrashOnOverflowEEE
__ZN3WTF6VectorINS_6RefPtrIN6CyberKit22WebBackForwardListItemEEELm0ENS_15CrashOnOverflowEE14shrinkCapacityEm
__ZN7CoreIPC15ArgumentDecoder6decodeERf
__ZN6CyberKit14ColorSpaceData6decodeERN7CoreIPC15ArgumentDecoderERS0_
__ZN7CoreIPC6decodeERNS_15ArgumentDecoderERN3WTF9RetainPtrIPK8__CFDataEE
__ZN6CyberKit10WebProcess13createWebPageEyRKNS_25WebPageCreationParametersE
__ZN3WTF17HashMapTranslatorINS_18HashMapValueTraitsINS_10HashTraitsIyEENS2_INS_6RefPtrIN6CyberKit7WebPageEEEEEEENS_7IntHashIyEEE9translateINS_12KeyValuePairIyS7_EEyNS_10PassRefPtrIS6_EEEEvRT_RKT0_RKT1_
__ZN6CyberKit7WebPage6createEyRKNS_25WebPageCreationParametersE
__ZN6CyberKit7WebPageC2EyRKNS_25WebPageCreationParametersE
__ZN6CyberKit14FindControllerC1EPNS_7WebPageE
__ZN6CyberKit35GeolocationPermissionRequestManagerC1EPNS_7WebPageE
__ZN6CyberKit23WebBackForwardListProxyC1EPNS_7WebPageE
__ZN3WTF6RefPtrIN7CyberCore15BackForwardListEEaSIN6CyberKit23WebBackForwardListProxyEEERS3_RKNS_10PassRefPtrIT_EE
__ZN6CyberKit24WebAlternativeTextClientC1EPNS_7WebPageE
__ZN6CyberKit15WebPlugInClientC1EPNS_7WebPageE
__ZNK7CyberCore20InspectorStateClient29supportsInspectorStateUpdatesEv
__ZN6CyberKit15WebChromeClient24incrementActivePageCountEv
__ZN6CyberKit12ChildProcess24incrementActiveTaskCountEv
__ZN3WTF6OwnPtrIN7CyberCore4PageEEaSERKNS_10PassOwnPtrIS2_EE
__ZN3WTF10PassOwnPtrIN7CyberCore4PageEED2Ev
__ZN6CyberKit21WebNotificationClientC1EPNS_7WebPageE
__ZN3WTF6RefPtrIN6CyberKit17WebPageGroupProxyEEaSEPS2_
__ZN6CyberKit11DrawingArea6createEPNS_7WebPageERKNS_25WebPageCreationParametersE
__ZN6CyberKit29TiledCoreAnimationDrawingArea6createEPNS_7WebPageERKNS_25WebPageCreationParametersE
__ZN6CyberKit29TiledCoreAnimationDrawingAreaC2EPNS_7WebPageERKNS_25WebPageCreationParametersE
__ZN6CyberKit11DrawingAreaC2ENS_15DrawingAreaTypeEPNS_7WebPageE
__ZN6CyberKit15EventDispatcher23addScrollingTreeForPageEPNS_7WebPageE
__ZN3WTF7HashMapIyNS_6RefPtrIN7CyberCore13ScrollingTreeEEENS_7IntHashIyEENS_10HashTraitsIyEENS7_IS4_EEE3setERKyNS_10PassRefPtrIS3_EE
__ZN3WTF9RetainPtrI7CALayerEaSI11objc_objectEERS2_PT_
__ZN6CyberKit29TiledCoreAnimationDrawingArea25updateLayerHostingContextEv
__ZN6CyberKit19LayerHostingContext21createForWindowServerEv
__ZN3WTF10PassOwnPtrIN6CyberKit19LayerHostingContextEED2Ev
_WKCAContextMakeRemoteForWindowServer
__ZN3WTF9RetainPtrIP16__WKCAContextRefEaSES2_
__ZN3WTF6OwnPtrIN6CyberKit19LayerHostingContextEED2Ev
__ZN3WTF6OwnPtrIN6CyberKit19LayerHostingContextEEaSERKNS_10PassOwnPtrIS2_EE
__ZN6CyberKit19LayerHostingContext12setRootLayerEP7CALayer
_WKCAContextSetLayer
__ZN6CyberKit29TiledCoreAnimationDrawingArea13setColorSpaceERKNS_14ColorSpaceDataE
__ZN6CyberKit19LayerHostingContext13setColorSpaceEP12CGColorSpace
_WKCAContextSetColorSpace
__ZNK6CyberKit19LayerHostingContext9contextIDEv
_WKCAContextGetContextId
__ZThn24_N6CyberKit7WebPage26messageSenderDestinationIDEv
__ZN7CoreIPC13MessageSender4sendIN8Messages16DrawingAreaProxy31EnterAcceleratedCompositingModeEEEbRKT_y
__ZNK6CyberKit16LayerTreeContext6encodeERN7CoreIPC15ArgumentEncoderE
__ZN7CoreIPC13MessageSender11sendMessageEN3WTF10PassOwnPtrINS_14MessageEncoderEEE
__ZThn24_N6CyberKit7WebPage23messageSenderConnectionEv
__ZN6CyberKit16LayerTreeContextD1Ev
__ZN6CyberKit11DrawingArea18setPaintingEnabledEb
__ZN6CyberKit7WebPage17updatePreferencesERKNS_19WebPreferencesStoreE
__ZThn8_N6CyberKit15WebProcessProxy17didReceiveMessageEPN7CoreIPC10ConnectionERNS1_14MessageDecoderE
__ZN6CyberKit15WebProcessProxy17didReceiveMessageEPN7CoreIPC10ConnectionERNS1_14MessageDecoderE
__ZN6CyberKit16DrawingAreaProxy17didReceiveMessageEPN7CoreIPC10ConnectionERNS1_14MessageDecoderE
__ZN7CoreIPC13handleMessageIN8Messages16DrawingAreaProxy31EnterAcceleratedCompositingModeEN6CyberKit16DrawingAreaProxyEMS5_FvyRKNS4_16LayerTreeContextEEEEvRNS_14MessageDecoderEPT0_T1_
__ZN7CoreIPC10Arguments2IyN6CyberKit16LayerTreeContextEE6decodeERNS_15ArgumentDecoderERS3_
__ZN6CyberKit16LayerTreeContext6decodeERN7CoreIPC15ArgumentDecoderERS0_
__ZN6CyberKit34TiledCoreAnimationDrawingAreaProxy31enterAcceleratedCompositingModeEyRKNS_16LayerTreeContextE
__ZN6CyberKit12WebPageProxy31enterAcceleratedCompositingModeERKNS_16LayerTreeContextE
__ZN6CyberKit14PageClientImpl31enterAcceleratedCompositingModeERKNS_16LayerTreeContextE
_WKMakeRenderLayer
-[WKView(Internal) _setAcceleratedCompositingModeRootLayer:]
__ZN3WTF9RetainPtrIP13WKFlippedViewEC2ENS_10AdoptNSTagES2_
__ZN3WTF9RetainPtrI6NSViewEaSIP13WKFlippedViewEERS2_ONS0_IT_EE
-[WKFlippedView isFlipped]
__ZN3WTF9RetainPtrIP7CALayerEC2ENS_10AdoptNSTagES2_
__ZN3WTF9RetainPtrI7CALayerEC2IPS1_EERKNS0_IT_EE
__ZNK6CyberKit19WebPreferencesStore20getStringValueForKeyERKN3WTF6StringE
__ZN3WTF12AtomicStringC2ERKNS_6StringE
__ZNK6CyberKit19WebPreferencesStore20getDoubleValueForKeyERKN3WTF6StringE
__ZN6CyberKitL11valueForKeyIN3WTF7HashMapINS1_6StringEdNS1_10StringHashENS1_10HashTraitsIS3_EENS5_IdEEEEEENT_10MappedTypeERKS9_RKNS9_7KeyTypeE
__ZN6CyberKit18defaultValueForKeyIdEET_RKN3WTF6StringE
__ZN3WTF9HashTableINS_6StringENS_12KeyValuePairIS1_dEENS_24KeyValuePairKeyExtractorIS3_EENS_10StringHashENS_18HashMapValueTraitsINS_10HashTraitsIS1_EENS8_IdEEEES9_E13allocateTableEi
__ZN3WTF9HashTableINS_6StringENS_12KeyValuePairIS1_dEENS_24KeyValuePairKeyExtractorIS3_EENS_10StringHashENS_18HashMapValueTraitsINS_10HashTraitsIS1_EENS8_IdEEEES9_E15deallocateTableEPS3_i
__ZN3WTF9HashTableINS_6StringENS_12KeyValuePairIS1_dEENS_24KeyValuePairKeyExtractorIS3_EENS_10StringHashENS_18HashMapValueTraitsINS_10HashTraitsIS1_EENS8_IdEEEES9_E16lookupForWritingINS_22IdentityHashTranslatorIS6_EES1_EENSt3__14pairIPS3_bEERKT0_
__ZN3WTF9HashTableINS_6StringENS_12KeyValuePairIS1_dEENS_24KeyValuePairKeyExtractorIS3_EENS_10StringHashENS_18HashMapValueTraitsINS_10HashTraitsIS1_EENS8_IdEEEES9_E3addINS_17HashMapTranslatorISB_S6_EES1_dEENS_18HashTableAddResultINS_17HashTableIteratorIS1_S3_S5_S6_SB_S9_EEEERKT0_RKT1_
__ZN3WTF9HashTableINS_6StringENS_12KeyValuePairIS1_dEENS_24KeyValuePairKeyExtractorIS3_EENS_10StringHashENS_18HashMapValueTraitsINS_10HashTraitsIS1_EENS8_IdEEEES9_E3addINS_22IdentityHashTranslatorIS6_EES1_S3_EENS_18HashTableAddResultINS_17HashTableIteratorIS1_S3_S5_S6_SB_S9_EEEERKT0_RKT1_
__ZN3WTF9HashTableINS_6StringENS_12KeyValuePairIS1_dEENS_24KeyValuePairKeyExtractorIS3_EENS_10StringHashENS_18HashMapValueTraitsINS_10HashTraitsIS1_EENS8_IdEEEES9_E4findINS_22IdentityHashTranslatorIS6_EES1_EENS_17HashTableIteratorIS1_S3_S5_S6_SB_S9_EERKT0_
__ZN3WTF9HashTableINS_6StringENS_12KeyValuePairIS1_dEENS_24KeyValuePairKeyExtractorIS3_EENS_10StringHashENS_18HashMapValueTraitsINS_10HashTraitsIS1_EENS8_IdEEEES9_E6expandEv
__ZN3WTF9HashTableINS_6StringENS_12KeyValuePairIS1_dEENS_24KeyValuePairKeyExtractorIS3_EENS_10StringHashENS_18HashMapValueTraitsINS_10HashTraitsIS1_EENS8_IdEEEES9_E6lookupINS_22IdentityHashTranslatorIS6_EES1_EEPS3_RKT0_
__ZN3WTF9HashTableINS_6StringENS_12KeyValuePairIS1_dEENS_24KeyValuePairKeyExtractorIS3_EENS_10StringHashENS_18HashMapValueTraitsINS_10HashTraitsIS1_EENS8_IdEEEES9_E6rehashEi
__ZN3WTF9HashTableINS_6StringENS_12KeyValuePairIS1_dEENS_24KeyValuePairKeyExtractorIS3_EENS_10StringHashENS_18HashMapValueTraitsINS_10HashTraitsIS1_EENS8_IdEEEES9_EC2ERKSC_
__ZN3WTF9HashTableINS_6StringENS_12KeyValuePairIS1_dEENS_24KeyValuePairKeyExtractorIS3_EENS_10StringHashENS_18HashMapValueTraitsINS_10HashTraitsIS1_EENS8_IdEEEES9_EaSERKSC_
__ZN6CyberKit7WebPage28platformPreferencesDidChangeERKNS_19WebPreferencesStoreE
__ZN6CyberKit7WebPage9inspectorEv
__ZN6CyberKit12WebInspector6createEPNS_7WebPageEPN7CyberCore24InspectorFrontendChannelE
__ZN6CyberKit12WebInspector35setInspectorUsesCyberKitUserInterfaceEb
__ZN6CyberKit15classFromPDFKitEP8NSString
__ZN6CyberKit29TiledCoreAnimationDrawingArea17updatePreferencesERKNS_19WebPreferencesStoreE
__ZN6CyberKit7WebPage18platformInitializeEv
__ZN3WTF17BoundFunctionImplINS_15FunctionWrapperIMN7CyberCore13ScrollingTreeEFvbEEEFvPS3_bEEclEv
__ZN3WTF12SchedulePair6createEP9NSRunLoopPK10__CFString
__ZN3WTF17BoundFunctionImplINS_15FunctionWrapperIMN7CyberCore13ScrollingTreeEFvbEEEFvPS3_bEED0Ev
__ZN3WTF20ThreadSafeRefCountedIN7CyberCore13ScrollingTreeEE5derefEv
_WKAXInitializeElementWithPresenterPid
-[WKAccessibilityWebPageObject setWebPage:]
-[WKAccessibilityWebPageObject accessibilityShouldUseUniqueId]
__ZN7CoreIPC13MessageSender4sendIN8Messages12WebPageProxy36RegisterWebProcessAccessibilityTokenEEEbRKT_y
__ZN3WTF9RetainPtrI28WKAccessibilityWebPageObjectEaSEPS1_
__ZN6CyberKit8WebFrame15createMainFrameEPNS_7WebPageE
__ZN6CyberKit8WebFrameC2Ev
__ZN6CyberKit20WebFrameLoaderClientC1EPNS_8WebFrameE
__ZN6CyberKit10WebProcess11addWebFrameEyPNS_8WebFrameE
__ZN7CoreIPC13MessageSender4sendIN8Messages12WebPageProxy18DidCreateMainFrameEEEbRKT_y
__ZN6CyberKit8WebFrame4initEPNS_7WebPageERKN3WTF6StringEPN7CyberCore21HTMLFrameOwnerElementE
__ZThn24_N6CyberKit12WebPageProxy17didReceiveMessageEPN7CoreIPC10ConnectionERNS1_14MessageDecoderE
__ZN6CyberKit12WebPageProxy17didReceiveMessageEPN7CoreIPC10ConnectionERNS1_14MessageDecoderE
__ZN6CyberKit12WebPageProxy36registerWebProcessAccessibilityTokenERKN7CoreIPC13DataReferenceE
__ZN6CyberKit14PageClientImpl36accessibilityWebProcessTokenReceivedERKN7CoreIPC13DataReferenceE
-[WKView(Internal) _setAccessibilityWebProcessToken:]
_WKAXRemoteElementForToken
__ZN3WTF9RetainPtrIP11objc_objectEaSES2_
-[WKView _updateRemoteAccessibilityRegistration:]
_WKAXRegisterRemoteProcess
__ZN6CyberKit12WebPageProxy18didCreateMainFrameEy
__ZNK6CyberKit15WebProcessProxy14canCreateFrameEy
__ZN6CyberKit13WebFrameProxyC1EPNS_12WebPageProxyEy
__ZN6CyberKit15WebProcessProxy12frameCreatedEyPNS_13WebFrameProxyE
__ZN3WTF7HashMapIyNS_6RefPtrIN6CyberKit13WebFrameProxyEEENS_7IntHashIyEENS_10HashTraitsIyEENS7_IS4_EEE3setERKyNS_10PassRefPtrIS3_EE
__ZN3WTF17HashMapTranslatorINS_18HashMapValueTraitsINS_10HashTraitsIyEENS2_INS_6RefPtrIN6CyberKit13WebFrameProxyEEEEEEENS_7IntHashIyEEE9translateINS_12KeyValuePairIyS7_EEyNS_10PassRefPtrIS6_EEEEvRT_RKT0_RKT1_
__ZN6CyberKit20WebFrameLoaderClient20createDocumentLoaderERKN7CyberCore15ResourceRequestERKNS1_14SubstituteDataE
__ZN6CyberKit20WebFrameLoaderClient25setMainFrameDocumentReadyEb
__ZN6CyberKit20WebFrameLoaderClient17setCopiesOnScrollEv
__ZN6CyberKit20WebFrameLoaderClient31prepareForDataSourceReplacementEv
__ZN6CyberKit20WebFrameLoaderClient31transitionToCommittedForNewPageEv
__ZNK6CyberKit8WebFrame4pageEv
__ZN6CyberKit7WebPage12fromCorePageEPN7CyberCore4PageE
__ZNK7CyberCore12ChromeClient25shouldPaintEntireContentsEv
__ZN6CyberKit20WebFrameLoaderClient21didChangeScrollOffsetEv
__ZN6CyberKit29TiledCoreAnimationDrawingArea32didChangeScrollOffsetForAnyFrameEv
__ZN6CyberKit29TiledCoreAnimationDrawingArea25invalidateAllPageOverlaysEv
__ZNK6CyberKit8WebFrame11isMainFrameEv
__ZNK6CyberKit20WebFrameLoaderClient29shouldAlwaysUsePluginDocumentERKN3WTF6StringE
__ZNK6CyberKit20WebFrameLoaderClient11hasHTMLViewEv
__ZN6CyberKit21WebPlatformStrategies20createLoaderStrategyEv
__ZThn88_N6CyberKit21WebPlatformStrategies21resourceLoadSchedulerEv
__ZN6CyberKit21WebPlatformStrategies21resourceLoadSchedulerEv
__ZN6CyberKit10WebProcess24webResourceLoadSchedulerEv
__ZN6CyberKit24WebResourceLoadScheduler22suspendPendingRequestsEv
__ZNK6CyberKit15WebChromeClient26allowedCompositingTriggersEv
__ZNK6CyberKit15WebChromeClient20graphicsLayerFactoryEv
__ZN6CyberKit11DrawingArea20graphicsLayerFactoryEv
__ZN6CyberKit15WebChromeClient29scheduleCompositingLayerFlushEv
__ZN6CyberKit29TiledCoreAnimationDrawingArea29scheduleCompositingLayerFlushEv
__ZNK6CyberKit15WebChromeClient13underlayColorEv
_WKCGPatternCreateWithImageAndTransform
__ZN6CyberKit15WebChromeClient23attachRootGraphicsLayerEPN7CyberCore5FrameEPNS1_13GraphicsLayerE
__ZN6CyberKit7WebPage31enterAcceleratedCompositingModeEPN7CyberCore13GraphicsLayerE
__ZN6CyberKit29TiledCoreAnimationDrawingArea23setRootCompositingLayerEPN7CyberCore13GraphicsLayerE
__ZN6CyberKit29TiledCoreAnimationDrawingArea23setRootCompositingLayerEP7CALayer
__ZN6CyberKit29TiledCoreAnimationDrawingArea33updateMainFrameClipsToExposedRectEv
__ZN6CyberKit29TiledCoreAnimationDrawingArea20updateDebugInfoLayerEb
__ZN6CyberKit15WebChromeClient37setNeedsOneShotDrawingSynchronizationEv
__ZN6CyberKit24WebResourceLoadScheduler21resumePendingRequestsEv
__ZNK6CyberKit15WebChromeClient35dispatchViewportPropertiesDidChangeERKN7CyberCore17ViewportArgumentsE
__ZN6CyberKit15WebChromeClient28numWheelEventHandlersChangedEj
__ZN6CyberKit7WebPage28numWheelEventHandlersChangedEj
__ZN6CyberKit20WebFrameLoaderClient11allowScriptEb
__ZN7CyberCore17FrameLoaderClient12allowPluginsEb
__ZN6CyberKit20WebFrameLoaderClient15finishedLoadingEPN7CyberCore14DocumentLoaderE
__ZNK6CyberKit20WebFrameLoaderClient17overrideMediaTypeEv
__ZN6CyberKit20WebFrameLoaderClient24documentElementAvailableEv
__ZN7CyberCore17FrameLoaderClient22dispatchWillInsertBodyEv
__ZN6CyberKit20WebFrameLoaderClient18frameLoadCompletedEv
__ZN6CyberKit20WebFrameLoaderClient21forceLayoutForNonHTMLEv
__ZN6CyberKit20WebFrameLoaderClient23createNetworkingContextEv
__ZN3WTF10RefCountedIN7CyberCore5FrameEE5derefEv
__ZN6CyberKit7WebPage17setUseFixedLayoutEb
__ZN6CyberKit7WebPage18setDrawsBackgroundEb
__ZN6CyberKit7WebPage29setDrawsTransparentBackgroundEb
__ZN6CyberKit7WebPage9setActiveEb
__ZN6CyberKit15WebChromeClient29invalidateContentsAndRootViewERKN7CyberCore7IntRectEb
__ZN6CyberKit29TiledCoreAnimationDrawingArea21setNeedsDisplayInRectERKN7CyberCore7IntRectE
__ZN6CyberKit20WebFrameLoaderClient17dispatchDidLayoutEv
__ZN6CyberKit30InjectedBundlePageLoaderClient17didLayoutForFrameEPNS_7WebPageEPNS_8WebFrameE
__ZN6CyberKit7WebPage47recomputeShortCircuitHorizontalWheelEventsStateEv
__ZN7CoreIPC13MessageSender4sendIN8Messages12WebPageProxy39SetCanShortCircuitHorizontalWheelEventsEEEbRKT_y
__ZNK6CyberKit7WebPage14renderTreeSizeEv
__ZN7CoreIPC13MessageSender4sendIN8Messages12WebPageProxy17SetRenderTreeSizeEEEbRKT_y
__ZN6CyberKit7WebPage18mainFrameDidLayoutEv
__ZNK7CyberCore12ChromeClient13layoutUpdatedEPNS_5FrameE
__ZNK3WTF9HashTableIPN6CyberKit10PluginViewES3_NS_17IdentityExtractorENS_7PtrHashIS3_EENS_10HashTraitsIS3_EES8_E5beginEv
__ZN6CyberKit7WebPage30exitAcceleratedCompositingModeEv
__ZN6CyberKit7WebPage13setIsInWindowEb
__ZN6CyberKit7WebPage20setMinimumLayoutSizeERKN7CyberCore7IntSizeE
__ZN6CyberKit7WebPage37setAutoSizingShouldExpandToViewHeightEb
__ZN6CyberKit23WebBackForwardListProxy29setHighestItemIDFromUIProcessEy
__ZNK6CyberKit12SessionState7isEmptyEv
__ZN6CyberKit12ChildProcess18addMessageReceiverEN7CoreIPC15StringReferenceEyPNS1_15MessageReceiverE
__ZN6CyberKit14InjectedBundle13didCreatePageEPNS_7WebPageE
__ZN6CyberKit20InjectedBundleClient13didCreatePageEPNS_14InjectedBundleEPNS_7WebPageE
_WKBundlePageGetPageGroup
_WKBundlePageListenForLayoutMilestones
__ZN6CyberKit7WebPage25listenForLayoutMilestonesEj
_WKBundlePageSetContextMenuClient
__ZN6CyberKit7WebPage41initializeInjectedBundleContextMenuClientEP29WKBundlePageContextMenuClient
__ZN6CyberKit9APIClientI29WKBundlePageContextMenuClientLi0EE10initializeEPKS1_
_WKBundlePageSetFormClient
__ZN6CyberKit7WebPage34initializeInjectedBundleFormClientEP22WKBundlePageFormClient
__ZN6CyberKit9APIClientI22WKBundlePageFormClientLi2EE10initializeEPKS1_
_WKBundlePageSetPageLoaderClient
__ZN6CyberKit7WebPage36initializeInjectedBundleLoaderClientEP24WKBundlePageLoaderClient
__ZN6CyberKit9APIClientI24WKBundlePageLoaderClientLi6EE10initializeEPKS1_
_WKBundlePageSetResourceLoadClient
__ZN6CyberKit7WebPage42initializeInjectedBundleResourceLoadClientEP30WKBundlePageResourceLoadClient
__ZN6CyberKit9APIClientI30WKBundlePageResourceLoadClientLi1EE10initializeEPKS1_
_WKBundlePageSetPolicyClient
__ZN6CyberKit7WebPage36initializeInjectedBundlePolicyClientEP24WKBundlePagePolicyClient
__ZN6CyberKit9APIClientI24WKBundlePagePolicyClientLi0EE10initializeEPKS1_
_WKBundlePageSetDiagnosticLoggingClient
__ZN6CyberKit7WebPage47initializeInjectedBundleDiagnosticLoggingClientEP35WKBundlePageDiagnosticLoggingClient
__ZN6CyberKit9APIClientI35WKBundlePageDiagnosticLoggingClientLi0EE10initializeEPKS1_
_WKBundlePageSetUIClient
__ZN6CyberKit7WebPage32initializeInjectedBundleUIClientEP20WKBundlePageUIClient
__ZN6CyberKit9APIClientI20WKBundlePageUIClientLi2EE10initializeEPKS1_
__ZN6CyberKit12ChildProcess18disableTerminationEv
__ZThn16_N6CyberKit7WebPage17didReceiveMessageEPN7CoreIPC10ConnectionERNS1_14MessageDecoderE
__ZN6CyberKit7WebPage17didReceiveMessageEPN7CoreIPC10ConnectionERNS1_14MessageDecoderE
__ZN6CyberKit7WebPage24didReceiveWebPageMessageEPN7CoreIPC10ConnectionERNS1_14MessageDecoderE
__ZN7CoreIPC13handleMessageIN8Messages7WebPage18SetVisibilityStateEN6CyberKit7WebPageEMS5_FvjbEEEvRNS_14MessageDecoderEPT0_T1_
__ZN7CoreIPC10Arguments2IjbE6decodeERNS_15ArgumentDecoderERS1_
__ZN6CyberKit7WebPage18setVisibilityStateEjb
__ZN6CyberKit7WebPage27setSmartInsertDeleteEnabledEb
__ZN7CoreIPC13handleMessageIN8Messages7WebPage12SetUserAgentEN6CyberKit7WebPageEMS5_FvRKN3WTF6StringEEEEvRNS_14MessageDecoderEPT0_T1_
__ZN6CyberKit7WebPage12setUserAgentERKN3WTF6StringE
__ZN6CyberKit11DrawingArea28didReceiveDrawingAreaMessageEPN7CoreIPC10ConnectionERNS1_14MessageDecoderE
__ZN7CoreIPC13handleMessageIN8Messages11DrawingArea14UpdateGeometryEN6CyberKit11DrawingAreaEMS5_FvRKN7CyberCore7IntSizeES9_EEEvRNS_14MessageDecoderEPT0_T1_
__ZN7CoreIPC10Arguments2IN7CyberCore7IntSizeES2_E6decodeERNS_15ArgumentDecoderERS3_
__ZN6CyberKit29TiledCoreAnimationDrawingArea14updateGeometryERKN7CyberCore7IntSizeES4_
__ZN6CyberKit7WebPage7setSizeERKN7CyberCore7IntSizeE
__ZN6CyberKit29TiledCoreAnimationDrawingArea15setNeedsDisplayEv
__ZNK6CyberKit7WebPage13mainFrameViewEv
__ZN6CyberKit7WebPage14layoutIfNeededEv
__ZNK6CyberKit15WebChromeClient19contentsSizeChangedEPN7CyberCore5FrameERKNS1_7IntSizeE
__ZNK6CyberKit8WebFrame10isFrameSetEv
__ZN6CyberKit29TiledCoreAnimationDrawingArea27mainFrameContentSizeChangedERKN7CyberCore7IntSizeE
_WKBundleFrameIsMainFrame
__ZN6CyberKit29TiledCoreAnimationDrawingArea11flushLayersEv
__ZN7CoreIPC13MessageSender4sendIN8Messages16DrawingAreaProxy17DidUpdateGeometryEEEbRKT_y
__ZN6CyberKit7WebPage21windowScreenDidChangeEy
__ZN6CyberKit7WebPage18setWindowIsVisibleEb
__ZN6CyberKit34TiledCoreAnimationDrawingAreaProxy17didUpdateGeometryEv
__ZN6CyberKit10WebProcess18pageDidEnterWindowEy
__ZNK7CyberCore9TimerBase15alignedFireTimeEd
__ZN7CoreIPC10Arguments2INS_13DataReferenceES1_E6decodeERNS_15ArgumentDecoderERS2_
__ZN6CyberKit7WebPage36registerUIProcessAccessibilityTokensERKN7CoreIPC13DataReferenceES4_
_WKAXSetWindowForRemoteElement
-[WKAccessibilityWebPageObject setRemoteParent:]
__ZN7CoreIPC21handleMessageVariadicIN8Messages7WebPage25PostInjectedBundleMessageEN6CyberKit7WebPageEMS5_FvRKN3WTF6StringERNS_14MessageDecoderEEEEvSB_PT0_T1_
__ZN6CyberKit7WebPage25postInjectedBundleMessageERKN3WTF6StringERN7CoreIPC14MessageDecoderE
__ZN6CyberKit14InjectedBundle23didReceiveMessageToPageEPNS_7WebPageERKN3WTF6StringEPNS_9APIObjectE
__ZN6CyberKit20InjectedBundleClient23didReceiveMessageToPageEPNS_14InjectedBundleEPNS_7WebPageERKN3WTF6StringEPNS_9APIObjectE
_WKDoubleGetTypeID
_WKDictionaryGetTypeID
__ZN7CoreIPC21handleMessageVariadicIN8Messages7WebPage14LoadURLRequestEN6CyberKit7WebPageEMS5_FvRKN7CyberCore15ResourceRequestERKNS4_16SandboxExtension6HandleERNS_14MessageDecoderEEEEvSF_PT0_T1_
__ZN7CyberCore15ResourceRequestC2Ev
__ZN7CoreIPC10Arguments2IN7CyberCore15ResourceRequestEN6CyberKit16SandboxExtension6HandleEE6decodeERNS_15ArgumentDecoderERS6_
__ZN7CoreIPC13ArgumentCoderIN7CyberCore15ResourceRequestEE6decodeERNS_15ArgumentDecoderERS2_
__ZN7CyberCore15ResourceRequest17setCachePartitionERKN3WTF6StringE
__ZN7CoreIPC13ArgumentCoderIN7CyberCore15ResourceRequestEE18decodePlatformDataERNS_15ArgumentDecoderERS2_
__ZN7CoreIPC6decodeERNS_15ArgumentDecoderERN3WTF9RetainPtrIPK14__CFDictionaryEE
__ZN7CoreIPC6decodeERNS_15ArgumentDecoderERN3WTF9RetainPtrIPK10__CFStringEE
__ZN7CoreIPC6decodeERNS_15ArgumentDecoderERN3WTF9RetainPtrIPKvEE
__ZN7CoreIPC6decodeERNS_15ArgumentDecoderERN3WTF9RetainPtrIPK10__CFNumberEE
__ZN7CoreIPC6decodeERNS_15ArgumentDecoderERN3WTF9RetainPtrIPK11__CFBooleanEE
__ZN7CoreIPC6decodeERNS_15ArgumentDecoderERN3WTF9RetainPtrIPK9__CFArrayEE
__ZN7CoreIPC6decodeERNS_15ArgumentDecoderERN3WTF9RetainPtrIPK7__CFURLEE
__ZN3WTF9RetainPtrIPKvEaSES2_
_WKNSURLRequestFromSerializableRepresentation
_createArchiveList
_dictionaryValueOfType
__ZN7CyberCore15ResourceRequestC2EP12NSURLRequest
__ZN7CyberCore19ResourceRequestBaseC2Ev
__ZN7CyberCore4KURLC2Ev
__ZN7CyberCore19ResourceRequestBaseaSERKS0_
__ZN3WTF6VectorINS_6StringELm0ENS_15CrashOnOverflowEEaSERKS3_
__ZN3WTF6RefPtrIN7CyberCore8FormDataEEaSERKS3_
__ZN3WTF9RetainPtrI12NSURLRequestEaSERKS2_
__ZN6CyberKit7WebPage14loadURLRequestERKN7CyberCore15ResourceRequestERKNS_16SandboxExtension6HandleERN7CoreIPC14MessageDecoderE
__ZN6CyberKit7WebPage23SandboxExtensionTracker9beginLoadEPNS_8WebFrameERKNS_16SandboxExtension6HandleE
__ZN6CyberKit30InjectedBundlePageLoaderClient18willLoadURLRequestEPNS_7WebPageERKN7CyberCore15ResourceRequestEPNS_9APIObjectE
__ZN6CyberKit20WebFrameLoaderClient9userAgentERKN7CyberCore4KURLE
__ZN6CyberKit20WebFrameLoaderClient17cancelPolicyCheckEv
__ZN6CyberKit8WebFrame24invalidatePolicyListenerEv
__ZN6CyberKit20WebFrameLoaderClient39dispatchDecidePolicyForNavigationActionEMN7CyberCore13PolicyCheckerEFvNS1_12PolicyActionEERKNS1_16NavigationActionERKNS1_15ResourceRequestEN3WTF10PassRefPtrINS1_9FormStateEEE
__ZN6CyberKit30InjectedBundleNavigationAction6createEPNS_8WebFrameERKN7CyberCore16NavigationActionEN3WTF10PassRefPtrINS3_9FormStateEEE
__ZN6CyberKit30InjectedBundleNavigationActionC2EPNS_8WebFrameERKN7CyberCore16NavigationActionEN3WTF10PassRefPtrINS3_9FormStateEEE
__ZN6CyberKit30InjectedBundleNavigationAction28modifiersForNavigationActionERKN7CyberCore16NavigationActionE
__ZN6CyberKit30InjectedBundlePagePolicyClient31decidePolicyForNavigationActionEPNS_7WebPageEPNS_8WebFrameEPNS_30InjectedBundleNavigationActionERKN7CyberCore15ResourceRequestERN3WTF6RefPtrINS_9APIObjectEEE
__ZN6CyberKit13WebURLRequestC1ERKN7CyberCore15ResourceRequestE
__ZN3WTF9HashTableINS_12AtomicStringENS_12KeyValuePairIS1_NS_6StringEEENS_24KeyValuePairKeyExtractorIS4_EENS_15CaseFoldingHashENS_18HashMapValueTraitsINS_10HashTraitsIS1_EENS9_IS3_EEEESA_E15deallocateTableEPS4_i
__ZN3WTF9HashTableINS_12AtomicStringENS_12KeyValuePairIS1_NS_6StringEEENS_24KeyValuePairKeyExtractorIS4_EENS_15CaseFoldingHashENS_18HashMapValueTraitsINS_10HashTraitsIS1_EENS9_IS3_EEEESA_E16lookupForWritingINS_22IdentityHashTranslatorIS7_EES1_EENSt3__14pairIPS4_bEERKT0_
__ZN3WTF9HashTableINS_12AtomicStringENS_12KeyValuePairIS1_NS_6StringEEENS_24KeyValuePairKeyExtractorIS4_EENS_15CaseFoldingHashENS_18HashMapValueTraitsINS_10HashTraitsIS1_EENS9_IS3_EEEESA_E3addINS_17HashMapTranslatorISC_S7_EES1_S3_EENS_18HashTableAddResultINS_17HashTableIteratorIS1_S4_S6_S7_SC_SA_EEEERKT0_RKT1_
__ZN3WTF9HashTableINS_12AtomicStringENS_12KeyValuePairIS1_NS_6StringEEENS_24KeyValuePairKeyExtractorIS4_EENS_15CaseFoldingHashENS_18HashMapValueTraitsINS_10HashTraitsIS1_EENS9_IS3_EEEESA_E3addINS_22IdentityHashTranslatorIS7_EES1_S4_EENS_18HashTableAddResultINS_17HashTableIteratorIS1_S4_S6_S7_SC_SA_EEEERKT0_RKT1_
__ZN3WTF9HashTableINS_12AtomicStringENS_12KeyValuePairIS1_NS_6StringEEENS_24KeyValuePairKeyExtractorIS4_EENS_15CaseFoldingHashENS_18HashMapValueTraitsINS_10HashTraitsIS1_EENS9_IS3_EEEESA_E4findINS_22IdentityHashTranslatorIS7_EES1_EENS_17HashTableIteratorIS1_S4_S6_S7_SC_SA_EERKT0_
__ZN3WTF9HashTableINS_12AtomicStringENS_12KeyValuePairIS1_NS_6StringEEENS_24KeyValuePairKeyExtractorIS4_EENS_15CaseFoldingHashENS_18HashMapValueTraitsINS_10HashTraitsIS1_EENS9_IS3_EEEESA_E6expandEv
__ZN3WTF9HashTableINS_12AtomicStringENS_12KeyValuePairIS1_NS_6StringEEENS_24KeyValuePairKeyExtractorIS4_EENS_15CaseFoldingHashENS_18HashMapValueTraitsINS_10HashTraitsIS1_EENS9_IS3_EEEESA_E6lookupINS_22IdentityHashTranslatorIS7_EES1_EEPS4_RKT0_
__ZN3WTF9HashTableINS_12AtomicStringENS_12KeyValuePairIS1_NS_6StringEEENS_24KeyValuePairKeyExtractorIS4_EENS_15CaseFoldingHashENS_18HashMapValueTraitsINS_10HashTraitsIS1_EENS9_IS3_EEEESA_E6rehashEi
__ZN3WTF9HashTableINS_12AtomicStringENS_12KeyValuePairIS1_NS_6StringEEENS_24KeyValuePairKeyExtractorIS4_EENS_15CaseFoldingHashENS_18HashMapValueTraitsINS_10HashTraitsIS1_EENS9_IS3_EEEESA_E6removeEPS4_
__ZN3WTF9HashTableINS_12AtomicStringENS_12KeyValuePairIS1_NS_6StringEEENS_24KeyValuePairKeyExtractorIS4_EENS_15CaseFoldingHashENS_18HashMapValueTraitsINS_10HashTraitsIS1_EENS9_IS3_EEEESA_EC2ERKSD_
__ZN3WTF9HashTableINS_12AtomicStringENS_12KeyValuePairIS1_NS_6StringEEENS_24KeyValuePairKeyExtractorIS4_EENS_15CaseFoldingHashENS_18HashMapValueTraitsINS_10HashTraitsIS1_EENS9_IS3_EEEESA_EaSERKSD_
_WKBundlePageCanHandleRequest
__ZN6CyberKit7WebPage16canHandleRequestERKN7CyberCore15ResourceRequestE
__ZN6CyberKit7WebPage24platformCanHandleRequestERKN7CyberCore15ResourceRequestE
_WKBundleNavigationActionGetNavigationType
_WKBundleNavigationActionCopyHitTestResult
_WKURLRequestCopyURL
__ZN6CyberKit8WebFrame19setUpPolicyListenerEMN7CyberCore13PolicyCheckerEFvNS1_12PolicyActionEE
__ZN7CoreIPC10Connection8sendSyncIN8Messages12WebPageProxy31DecidePolicyForNavigationActionEEEbRKT_RKNS5_5ReplyEydj
__ZNK7CoreIPC10Arguments6IyjjiRKN7CyberCore15ResourceRequestEyE6encodeERNS_15ArgumentEncoderE
__ZNK7CoreIPC10Arguments4IyjjiE6encodeERNS_15ArgumentEncoderE
__ZNK6CyberKit32InjectedBundleUserMessageEncoder6encodeERN7CoreIPC15ArgumentEncoderE
__ZNK6CyberKit18UserMessageEncoderINS_32InjectedBundleUserMessageEncoderEE10baseEncodeERN7CoreIPC15ArgumentEncoderERNS_9APIObject4TypeE
__ZThn24_N6CyberKit12WebPageProxy21didReceiveSyncMessageEPN7CoreIPC10ConnectionERNS1_14MessageDecoderERN3WTF6OwnPtrINS1_14MessageEncoderEEE
__ZN6CyberKit12WebPageProxy21didReceiveSyncMessageEPN7CoreIPC10ConnectionERNS1_14MessageDecoderERN3WTF6OwnPtrINS1_14MessageEncoderEEE
__ZN7CoreIPC21handleMessageVariadicIN8Messages12WebPageProxy31DecidePolicyForNavigationActionEN6CyberKit12WebPageProxyEMS5_FvyjjiRKN7CyberCore15ResourceRequestEyRNS_14MessageDecoderERbRySD_EEEvSB_RNS_14MessageEncoderEPT0_T1_
__ZN7CoreIPC10Arguments6IyjjiN7CyberCore15ResourceRequestEyE6decodeERNS_15ArgumentDecoderERS3_
__ZN7CoreIPC10Arguments5IyjjiN7CyberCore15ResourceRequestEE6decodeERNS_15ArgumentDecoderERS3_
__ZN7CoreIPC10Arguments4IyjjiE6decodeERNS_15ArgumentDecoderERS1_
__ZN7CoreIPC10Arguments3IyjjE6decodeERNS_15ArgumentDecoderERS1_
__ZN7CoreIPC10Arguments2IyjE6decodeERNS_15ArgumentDecoderERS1_
__ZN7CoreIPC18callMemberFunctionIN6CyberKit12WebPageProxyEMS2_FvyjjiRKN7CyberCore15ResourceRequestEyRNS_14MessageDecoderERbRySA_EyjjiS4_ybyyEEvRKNS_10Arguments6IT1_T2_T3_T4_T5_T6_EES8_RNS_10Arguments3IT7_T8_T9_EEPT_T0_
__ZN6CyberKit12WebPageProxy31decidePolicyForNavigationActionEyjjiRKN7CyberCore15ResourceRequestEyRN7CoreIPC14MessageDecoderERbRyS9_
__ZN6CyberKit28WebContextUserMessageDecoder6decodeERN7CoreIPC15ArgumentDecoderERS0_
__ZN6CyberKit18UserMessageDecoderINS_28WebContextUserMessageDecoderEE10baseDecodeERN7CoreIPC15ArgumentDecoderERS1_RNS_9APIObject4TypeE
__ZN6CyberKit6WebURL6createERKN3WTF6StringE
__ZN6CyberKit9WebNumberIbLNS_9APIObject4TypeE25EE6createEb
__ZN6CyberKit19ImmutableDictionary5adoptERN3WTF7HashMapINS1_6StringENS1_6RefPtrINS_9APIObjectEEENS1_10StringHashENS1_10HashTraitsIS3_EENS8_IS6_EEEE
__ZNK6CyberKit15WebProcessProxy8webFrameEy
__ZN6CyberKit15WebProcessProxy30checkURLReceivedFromWebProcessERKN7CyberCore4KURLE
__ZN6CyberKit13WebFrameProxy24setUpPolicyListenerProxyEy
__ZN6CyberKit27WebFramePolicyListenerProxyC1EPNS_13WebFrameProxyEy
__ZN6CyberKit21WebFrameListenerProxyC2EPNS_13WebFrameProxyEy
__ZN6CyberKit15WebPolicyClient31decidePolicyForNavigationActionEPNS_12WebPageProxyEPNS_13WebFrameProxyEN7CyberCore14NavigationTypeENS_8WebEvent9ModifiersENS_13WebMouseEvent6ButtonERKNS5_15ResourceRequestEPNS_27WebFramePolicyListenerProxyEPNS_9APIObjectE
_WKFrameIsMainFrame
__ZNK6CyberKit13WebFrameProxy11isMainFrameEv
_WKFramePolicyListenerUse
__ZN6CyberKit27WebFramePolicyListenerProxy3useEv
__ZN6CyberKit21WebFrameListenerProxy22receivedPolicyDecisionEN7CyberCore12PolicyActionE
__ZN6CyberKit13WebFrameProxy22receivedPolicyDecisionEN7CyberCore12PolicyActionEy
__ZN6CyberKit12WebPageProxy22receivedPolicyDecisionEN7CyberCore12PolicyActionEPNS_13WebFrameProxyEy
__ZN7CoreIPC15ArgumentEncoderlsINS_10Arguments3IbyyEEEERS0_RKT_
__ZN7CoreIPC10Arguments3IRbRyS2_E6decodeERNS_15ArgumentDecoderERS3_
__ZN7CoreIPC10Arguments2IRbRyE6decodeERNS_15ArgumentDecoderERS3_
__ZN6CyberKit8WebFrame24didReceivePolicyDecisionEyN7CyberCore12PolicyActionEy
__ZNK6CyberKit20WebFrameLoaderClient16canHandleRequestERKN7CyberCore15ResourceRequestE
__ZN6CyberKit15WebChromeClient30canRunBeforeUnloadConfirmPanelEv
__ZN6CyberKit20WebFrameLoaderClient22provisionalLoadStartedEv
__ZN6CyberKit7WebPage22didStartPageTransitionEv
__ZN6CyberKit29TiledCoreAnimationDrawingArea25setLayerTreeStateIsFrozenEb
__ZN6CyberKit20WebFrameLoaderClient27willChangeEstimatedProgressEv
__ZN6CyberKit20WebFrameLoaderClient31postProgressStartedNotificationEv
__ZN7CoreIPC13MessageSender4sendIN8Messages12WebPageProxy16DidStartProgressEEEbRKT_y
__ZN6CyberKit20WebFrameLoaderClient26didChangeEstimatedProgressEv
__ZN6CyberKit20WebFrameLoaderClient31dispatchDidStartProvisionalLoadEv
__ZN6CyberKit14FindController10hideFindUIEv
__ZN3WTF6VectorINS_6RefPtrIN7CyberCore5RangeEEELm0ENS_15CrashOnOverflowEE14shrinkCapacityEm
__ZNK6CyberKit7WebPage9mainFrameEv
__ZN6CyberKit14FindController17hideFindIndicatorEv
__ZN6CyberKit7WebPage23SandboxExtensionTracker23didStartProvisionalLoadEPNS_8WebFrameE
__ZN6CyberKit30InjectedBundlePageLoaderClient31didStartProvisionalLoadForFrameEPNS_7WebPageEPNS_8WebFrameERN3WTF6RefPtrINS_9APIObjectEEE
__ZN6CyberKit12WebPageProxy16didStartProgressEv
__ZN6CyberKit15WebLoaderClient16didStartProgressEPNS_12WebPageProxyE
_WKBundleFrameCopyProvisionalURL
__ZNK6CyberKit8WebFrame14provisionalURLEv
_WKBundlePageSetDefersLoading
__ZN6CyberKit7WebPage16setDefersLoadingEb
_WKBundleIsProcessingUserGesture
__ZN6CyberKit14InjectedBundle23isProcessingUserGestureEv
_WKBundlePageGetRenderTreeSize
__ZN7CoreIPC13MessageSender4sendIN8Messages12WebPageProxy31DidStartProvisionalLoadForFrameEEEbRKT_y
__ZNK7CoreIPC10Arguments3IyRKN3WTF6StringES4_E6encodeERNS_15ArgumentEncoderE
__ZNK6CyberKit20WebFrameLoaderClient32representationExistsForURLSchemeERKN3WTF6StringE
__ZN7CoreIPC21handleMessageVariadicIN8Messages12WebPageProxy31DidStartProvisionalLoadForFrameEN6CyberKit12WebPageProxyEMS5_FvyRKN3WTF6StringES9_RNS_14MessageDecoderEEEEvSB_PT0_T1_
__ZN7CoreIPC10Arguments3IyN3WTF6StringES2_E6decodeERNS_15ArgumentDecoderERS3_
__ZN7CoreIPC10Arguments2IyN3WTF6StringEE6decodeERNS_15ArgumentDecoderERS3_
__ZN6CyberKit12WebPageProxy31didStartProvisionalLoadForFrameEyRKN3WTF6StringES4_RN7CoreIPC14MessageDecoderE
__ZN6CyberKit12WebPageProxy25clearPendingAPIRequestURLEv
__ZN6CyberKit9WebNumberIyLNS_9APIObject4TypeE27EE6createEy
__ZN6CyberKit15WebProcessProxy30checkURLReceivedFromWebProcessERKN3WTF6StringE
__ZN6CyberKit13WebFrameProxy17setUnreachableURLERKN3WTF6StringE
__ZN6CyberKit13WebFrameProxy23didStartProvisionalLoadERKN3WTF6StringE
__ZN6CyberKit15WebLoaderClient31didStartProvisionalLoadForFrameEPNS_12WebPageProxyEPNS_13WebFrameProxyEPNS_9APIObjectE
_WKPageGetBackForwardList
_WKBackForwardListGetCurrentItem
__ZN6CyberKit18WebBackForwardList11currentItemEv
_WKFrameGetFrameLoadState
_WKFrameCopyProvisionalURL
_WKFrameCopyURL
__ZN7CyberCore17FrameLoaderClient27dispatchWillRequestResourceEPNS_21CachedResourceRequestE
__ZN6CyberKit24WebResourceLoadScheduler23scheduleSubresourceLoadEPN7CyberCore5FrameEPNS1_14CachedResourceERKNS1_15ResourceRequestENS1_20ResourceLoadPriorityERKNS1_21ResourceLoaderOptionsE
__ZN6CyberKit20WebFrameLoaderClient32assignIdentifierToInitialRequestEmPN7CyberCore14DocumentLoaderERKNS1_15ResourceRequestE
__ZN6CyberKit36InjectedBundlePageResourceLoadClient26didInitiateLoadForResourceEPNS_7WebPageEPNS_8WebFrameEyRKN7CyberCore15ResourceRequestEb
__ZN6CyberKit20WebFrameLoaderClient23dispatchWillSendRequestEPN7CyberCore14DocumentLoaderEmRNS1_15ResourceRequestERKNS1_16ResourceResponseE
__ZN6CyberKit36InjectedBundlePageResourceLoadClient23willSendRequestForFrameEPNS_7WebPageEPNS_8WebFrameEyRN7CyberCore15ResourceRequestERKNS5_16ResourceResponseE
__ZN6CyberKit14WebURLResponseC1ERKN7CyberCore16ResourceResponseE
__ZN7CyberCore16ResourceResponseC2ERKS0_
_WKBundleFrameGetFrameLoadState
__ZN6CyberKit14WebURLResponseD0Ev
__ZN7CyberCore20ResourceResponseBaseD2Ev
__ZN6CyberKit24WebResourceLoadScheduler12scheduleLoadEPN7CyberCore14ResourceLoaderEPNS1_14CachedResourceENS1_20ResourceLoadPriorityEb
__ZN6CyberKit20WebFrameLoaderClient26shouldUseCredentialStorageEPN7CyberCore14DocumentLoaderEm
__ZN6CyberKit36InjectedBundlePageResourceLoadClient26shouldUseCredentialStorageEPNS_7WebPageEPNS_8WebFrameEy
__ZN7CyberCore17FrameLoaderClient24isEmptyFrameLoaderClientEv
__ZN6CyberKit29NetworkResourceLoadParametersC1Ev
__ZN6CyberKit29NetworkResourceLoadParametersC2Ev
__ZN6CyberKit16SandboxExtension11HandleArrayC1Ev
__ZN6CyberKit10WebProcess17networkConnectionEv
__ZN7CoreIPC10Connection4sendIN8Messages29NetworkConnectionToWebProcess20ScheduleResourceLoadEEEbRKT_yj
__ZNK6CyberKit29NetworkResourceLoadParameters6encodeERN7CoreIPC15ArgumentEncoderE
__ZN6CyberKit17WebResourceLoader6createEN3WTF10PassRefPtrIN7CyberCore14ResourceLoaderEEE
__ZN3WTF7HashMapImNS_6RefPtrIN6CyberKit17WebResourceLoaderEEENS_7IntHashImEENS_10HashTraitsImEENS7_IS4_EEE3setERKmNS_10PassRefPtrIS3_EE
__ZN3WTF17HashMapTranslatorINS_18HashMapValueTraitsINS_10HashTraitsImEENS2_INS_6RefPtrIN6CyberKit17WebResourceLoaderEEEEEEENS_7IntHashImEEE9translateINS_12KeyValuePairImS7_EEmNS_10PassRefPtrIS6_EEEEvRT_RKT0_RKT1_
__ZN3WTF6RefPtrIN6CyberKit17WebResourceLoaderEEaSERKNS_10PassRefPtrIS2_EE
__ZN6CyberKit16SandboxExtension11HandleArrayD1Ev
__ZN6CyberKit16SandboxExtension11HandleArrayD2Ev
__ZN6CyberKit29NetworkConnectionToWebProcess17didReceiveMessageEPN7CoreIPC10ConnectionERNS1_14MessageDecoderE
__ZN6CyberKit29NetworkConnectionToWebProcess46didReceiveNetworkConnectionToWebProcessMessageEPN7CoreIPC10ConnectionERNS1_14MessageDecoderE
__ZN6CyberKit30InjectedBundleNavigationActionD0Ev
__ZN7CoreIPC13handleMessageIN8Messages29NetworkConnectionToWebProcess20ScheduleResourceLoadEN6CyberKit29NetworkConnectionToWebProcessEMS5_FvRKNS4_29NetworkResourceLoadParametersEEEEvRNS_14MessageDecoderEPT0_T1_
__ZN7CyberCore16FrameLoadRequestD2Ev
__ZN7CyberCore14SubstituteDataD2Ev
__ZN7CoreIPC13MessageSender4sendIN8Messages12WebPageProxy23StopResponsivenessTimerEEEbRKT_y
__ZN6CyberKit29TiledCoreAnimationDrawingArea14resumePaintingEv
__ZN6CyberKit29NetworkResourceLoadParameters6decodeERN7CoreIPC15ArgumentDecoderERS0_
__ZN6CyberKit12WebPageProxy23stopResponsivenessTimerEv
__ZN6CyberKit19ResponsivenessTimer4stopEv
__ZThn104_N6CyberKit15WebProcessProxy19didBecomeResponsiveEPNS_19ResponsivenessTimerE
__ZN6CyberKit15WebProcessProxy19didBecomeResponsiveEPNS_19ResponsivenessTimerE
__ZN6CyberKit12WebPageProxy26processDidBecomeResponsiveEv
__ZN7CoreIPC13handleMessageIN8Messages7WebPage26WindowAndViewFramesChangedEN6CyberKit7WebPageEMS5_FvRKN7CyberCore9FloatRectES9_S9_RKNS6_10FloatPointEEEEvRNS_14MessageDecoderEPT0_T1_
__ZN6CyberKit15WebLoaderClient26processDidBecomeResponsiveEPNS_12WebPageProxyE
__ZN7CoreIPC10Arguments4IN7CyberCore9FloatRectES2_S2_NS1_10FloatPointEE6decodeERNS_15ArgumentDecoderERS4_
__ZN7CoreIPC10Arguments3IN7CyberCore9FloatRectES2_S2_E6decodeERNS_15ArgumentDecoderERS3_
__ZN7CoreIPC10Arguments2IN7CyberCore9FloatRectES2_E6decodeERNS_15ArgumentDecoderERS3_
__ZN7CoreIPC13ArgumentCoderIN7CyberCore9FloatRectEE6decodeERNS_15ArgumentDecoderERS2_
__ZN7CoreIPC13ArgumentCoderIN7CyberCore10FloatPointEE6decodeERNS_15ArgumentDecoderERS2_
__ZN6CyberKit7WebPage26windowAndViewFramesChangedERKN7CyberCore9FloatRectES4_S4_RKNS1_10FloatPointE
__ZN7CoreIPC13handleMessageIN8Messages10WebProcess19SetVisitedLinkTableEN6CyberKit10WebProcessEMS5_FvRKNS4_12SharedMemory6HandleEEEEvRNS_14MessageDecoderEPT0_T1_
__ZN6CyberKit12SharedMemory6Handle6decodeERN7CoreIPC15ArgumentDecoderERS1_
__ZN6CyberKit10WebProcess19setVisitedLinkTableERKNS_12SharedMemory6HandleE
__ZN6CyberKit12SharedMemory6createERKNS0_6HandleENS0_10ProtectionE
__ZN6CyberKit10WebProcess26allVisitedLinkStateChangedEv
_WKCALayerEnumerateRectsBeingDrawnWithBlock
__ZN6CyberKit29NetworkConnectionToWebProcess20scheduleResourceLoadERKNS_29NetworkResourceLoadParametersE
__ZN6CyberKit21NetworkResourceLoaderC1ERKNS_29NetworkResourceLoadParametersEPNS_29NetworkConnectionToWebProcessE
__ZN6CyberKit21NetworkResourceLoaderC2ERKNS_29NetworkResourceLoadParametersEPNS_29NetworkConnectionToWebProcessE
__ZN6CyberKit17SchedulableLoaderC2ERKNS_29NetworkResourceLoadParametersEPNS_29NetworkConnectionToWebProcessE
__ZNK6CyberKit16SandboxExtension11HandleArray4sizeEv
__ZN3WTF17HashMapTranslatorINS_18HashMapValueTraitsINS_10HashTraitsIyEENS2_INS_6RefPtrIN6CyberKit21NetworkResourceLoaderEEEEEEENS_7IntHashIyEEE9translateINS_12KeyValuePairIyS7_EEyNS_10PassRefPtrIS6_EEEEvRT_RKT0_RKT1_
__ZN3WTF6RefPtrIN6CyberKit21NetworkResourceLoaderEEaSERKNS_10PassRefPtrIS2_EE
__ZN6CyberKit28NetworkResourceLoadScheduler14scheduleLoaderEN3WTF10PassRefPtrINS_17SchedulableLoaderEEE
__ZN6CyberKit28NetworkResourceLoadScheduler10hostForURLERKN7CyberCore4KURLENS0_16CreateHostPolicyE
__ZN3WTF9HashTableINS_6StringENS_12KeyValuePairIS1_NS_6RefPtrIN6CyberKit10HostRecordEEEEENS_24KeyValuePairKeyExtractorIS7_EENS_10StringHashENS_18HashMapValueTraitsINS_10HashTraitsIS1_EENSC_IS6_EEEESD_E15deallocateTableEPS7_i
__ZN3WTF9HashTableINS_6StringENS_12KeyValuePairIS1_NS_6RefPtrIN6CyberKit10HostRecordEEEEENS_24KeyValuePairKeyExtractorIS7_EENS_10StringHashENS_18HashMapValueTraitsINS_10HashTraitsIS1_EENSC_IS6_EEEESD_E16lookupForWritingINS_22IdentityHashTranslatorISA_EES1_EENSt3__14pairIPS7_bEERKT0_
__ZN3WTF9HashTableINS_6StringENS_12KeyValuePairIS1_NS_6RefPtrIN6CyberKit10HostRecordEEEEENS_24KeyValuePairKeyExtractorIS7_EENS_10StringHashENS_18HashMapValueTraitsINS_10HashTraitsIS1_EENSC_IS6_EEEESD_E3addINS_17HashMapTranslatorISF_SA_EES1_NS_10PassRefPtrIS5_EEEENS_18HashTableAddResultINS_17HashTableIteratorIS1_S7_S9_SA_SF_SD_EEEERKT0_RKT1_
__ZN3WTF9HashTableINS_6StringENS_12KeyValuePairIS1_NS_6RefPtrIN6CyberKit10HostRecordEEEEENS_24KeyValuePairKeyExtractorIS7_EENS_10StringHashENS_18HashMapValueTraitsINS_10HashTraitsIS1_EENSC_IS6_EEEESD_E4findINS_22IdentityHashTranslatorISA_EES1_EENS_17HashTableIteratorIS1_S7_S9_SA_SF_SD_EERKT0_
__ZN3WTF9HashTableINS_6StringENS_12KeyValuePairIS1_NS_6RefPtrIN6CyberKit10HostRecordEEEEENS_24KeyValuePairKeyExtractorIS7_EENS_10StringHashENS_18HashMapValueTraitsINS_10HashTraitsIS1_EENSC_IS6_EEEESD_E6expandEv
__ZN3WTF9HashTableINS_6StringENS_12KeyValuePairIS1_NS_6RefPtrIN6CyberKit10HostRecordEEEEENS_24KeyValuePairKeyExtractorIS7_EENS_10StringHashENS_18HashMapValueTraitsINS_10HashTraitsIS1_EENSC_IS6_EEEESD_E6lookupINS_22IdentityHashTranslatorISA_EES1_EEPS7_RKT0_
__ZN3WTF9HashTableINS_6StringENS_12KeyValuePairIS1_NS_6RefPtrIN6CyberKit10HostRecordEEEEENS_24KeyValuePairKeyExtractorIS7_EENS_10StringHashENS_18HashMapValueTraitsINS_10HashTraitsIS1_EENSC_IS6_EEEESD_E6rehashEi
__ZN3WTF9HashTableINS_6StringENS_12KeyValuePairIS1_NS_6RefPtrIN6CyberKit10HostRecordEEEEENS_24KeyValuePairKeyExtractorIS7_EENS_10StringHashENS_18HashMapValueTraitsINS_10HashTraitsIS1_EENSC_IS6_EEEESD_E6removeEPS7_
__ZN3WTF17HashMapTranslatorINS_18HashMapValueTraitsINS_10HashTraitsINS_6StringEEENS2_INS_6RefPtrIN6CyberKit10HostRecordEEEEEEENS_10StringHashEE9translateINS_12KeyValuePairIS3_S8_EES3_NS_10PassRefPtrIS7_EEEEvRT_RKT0_RKT1_
__ZNK6CyberKit10HostRecord11hasRequestsEv
__ZN6CyberKit10HostRecord22scheduleResourceLoaderEN3WTF10PassRefPtrINS_17SchedulableLoaderEEE
__ZN3WTF6RefPtrIN6CyberKit10HostRecordEEaSEPS2_
__ZN6CyberKit17SchedulableLoader13isSynchronousEv
__ZN3WTF5DequeINS_6RefPtrIN6CyberKit17SchedulableLoaderEEELm0EE22expandCapacityIfNeededEv
__ZN3WTF5DequeINS_6RefPtrIN6CyberKit17SchedulableLoaderEEELm0EE14expandCapacityEv
__ZN3WTF16VectorBufferBaseINS_6RefPtrIN6CyberKit17SchedulableLoaderEEEE14allocateBufferEm
__ZN6CyberKit10HostRecord20servePendingRequestsEN7CyberCore20ResourceLoadPriorityE
__ZN6CyberKit10HostRecord28servePendingRequestsForQueueERN3WTF5DequeINS1_6RefPtrINS_17SchedulableLoaderEEELm0EEEN7CyberCore20ResourceLoadPriorityE
__ZNK6CyberKit10HostRecord14limitsRequestsEN7CyberCore20ResourceLoadPriorityEPNS_17SchedulableLoaderE
__ZN3WTF6RefPtrIN6CyberKit17SchedulableLoaderEEaSERKS3_
__ZN3WTF16VectorDestructorILb1ENS_6RefPtrIN6CyberKit17SchedulableLoaderEEEE8destructEPS4_S6_
__ZN6CyberKit21NetworkResourceLoader5startEv
__ZN6CyberKit23RemoteNetworkingContextC1Ebbbb
__ZN6CyberKit17SchedulableLoader24consumeSandboxExtensionsEv
__ZNK6CyberKit23RemoteNetworkingContext7isValidEv
__ZNK6CyberKit23RemoteNetworkingContext14storageSessionEv
__ZThn328_N6CyberKit21NetworkResourceLoader26shouldUseCredentialStorageEPN7CyberCore14ResourceHandleE
__ZNK6CyberKit23RemoteNetworkingContext23needsSiteSpecificQuirksEv
__ZThn328_N6CyberKit21NetworkResourceLoader18usesAsyncCallbacksEv
__ZNK6CyberKit23RemoteNetworkingContext26sourceApplicationAuditDataEv
+[WKCustomProtocol canInitWithRequest:]
__ZN6CyberKit21CustomProtocolManager14supportsSchemeERKN3WTF6StringE
__ZNK7CyberCore17NetworkingContext21scheduledRunLoopPairsEv
__ZN3WTF6RefPtrIN7CyberCore14ResourceHandleEEaSERKNS_10PassRefPtrIS2_EE
__ZThn328_N6CyberKit21NetworkResourceLoader31shouldUseCredentialStorageAsyncEPN7CyberCore14ResourceHandleE
__ZN6CyberKit21NetworkResourceLoader26shouldUseCredentialStorageEPN7CyberCore14ResourceHandleE
__ZThn328_N6CyberKit21NetworkResourceLoader23didReceiveResponseAsyncEPN7CyberCore14ResourceHandleERKNS1_16ResourceResponseE
__ZN6CyberKit21NetworkResourceLoader23didReceiveResponseAsyncEPN7CyberCore14ResourceHandleERKNS1_16ResourceResponseE
__ZN6CyberKit23PlatformCertificateInfoC1ERKN7CyberCore16ResourceResponseE
_WKCopyNSURLResponseCertificateChain
__ZN6CyberKit21NetworkResourceLoader21sendAbortingOnFailureIN8Messages17WebResourceLoader37DidReceiveResponseWithCertificateInfoEEEbRKT_j
__ZN6CyberKit21NetworkResourceLoader23messageSenderConnectionEv
__ZN6CyberKit21NetworkResourceLoader26messageSenderDestinationIDEv
__ZN7CoreIPC10Connection4sendIN8Messages17WebResourceLoader37DidReceiveResponseWithCertificateInfoEEEbRKT_yj
__ZNK7CoreIPC10Arguments3IRKN7CyberCore16ResourceResponseERKN6CyberKit23PlatformCertificateInfoEbE6encodeERNS_15ArgumentEncoderE
__ZN7CoreIPC13ArgumentCoderIN7CyberCore16ResourceResponseEE6encodeERNS_15ArgumentEncoderERKS2_
__ZN7CoreIPC13ArgumentCoderIN7CyberCore16ResourceResponseEE18encodePlatformDataERNS_15ArgumentEncoderERKS2_
_WKNSURLResponseCreateSerializableRepresentation
__ZNK6CyberKit23PlatformCertificateInfo6encodeERN7CoreIPC15ArgumentEncoderE
__ZN6CyberKit24NetworkProcessConnection17didReceiveMessageEPN7CoreIPC10ConnectionERNS1_14MessageDecoderE
__ZN3WTF9HashTableImNS_12KeyValuePairImNS_6RefPtrIN6CyberKit17WebResourceLoaderEEEEENS_24KeyValuePairKeyExtractorIS6_EENS_7IntHashImEENS_18HashMapValueTraitsINS_10HashTraitsImEENSC_IS5_EEEESD_E12deleteBucketERS6_
__ZN3WTF9HashTableImNS_12KeyValuePairImNS_6RefPtrIN6CyberKit17WebResourceLoaderEEEEENS_24KeyValuePairKeyExtractorIS6_EENS_7IntHashImEENS_18HashMapValueTraitsINS_10HashTraitsImEENSC_IS5_EEEESD_E15deallocateTableEPS6_i
__ZN3WTF9HashTableImNS_12KeyValuePairImNS_6RefPtrIN6CyberKit17WebResourceLoaderEEEEENS_24KeyValuePairKeyExtractorIS6_EENS_7IntHashImEENS_18HashMapValueTraitsINS_10HashTraitsImEENSC_IS5_EEEESD_E16lookupForWritingINS_22IdentityHashTranslatorISA_EEmEENSt3__14pairIPS6_bEERKT0_
__ZN3WTF9HashTableImNS_12KeyValuePairImNS_6RefPtrIN6CyberKit17WebResourceLoaderEEEEENS_24KeyValuePairKeyExtractorIS6_EENS_7IntHashImEENS_18HashMapValueTraitsINS_10HashTraitsImEENSC_IS5_EEEESD_E3addINS_17HashMapTranslatorISF_SA_EEmNS_10PassRefPtrIS4_EEEENS_18HashTableAddResultINS_17HashTableIteratorImS6_S8_SA_SF_SD_EEEERKT0_RKT1_
__ZN3WTF9HashTableImNS_12KeyValuePairImNS_6RefPtrIN6CyberKit17WebResourceLoaderEEEEENS_24KeyValuePairKeyExtractorIS6_EENS_7IntHashImEENS_18HashMapValueTraitsINS_10HashTraitsImEENSC_IS5_EEEESD_E4findINS_22IdentityHashTranslatorISA_EEmEENS_17HashTableIteratorImS6_S8_SA_SF_SD_EERKT0_
__ZN3WTF9HashTableImNS_12KeyValuePairImNS_6RefPtrIN6CyberKit17WebResourceLoaderEEEEENS_24KeyValuePairKeyExtractorIS6_EENS_7IntHashImEENS_18HashMapValueTraitsINS_10HashTraitsImEENSC_IS5_EEEESD_E6expandEv
__ZN3WTF9HashTableImNS_12KeyValuePairImNS_6RefPtrIN6CyberKit17WebResourceLoaderEEEEENS_24KeyValuePairKeyExtractorIS6_EENS_7IntHashImEENS_18HashMapValueTraitsINS_10HashTraitsImEENSC_IS5_EEEESD_E6lookupINS_22IdentityHashTranslatorISA_EEmEEPS6_RKT0_
__ZN3WTF9HashTableImNS_12KeyValuePairImNS_6RefPtrIN6CyberKit17WebResourceLoaderEEEEENS_24KeyValuePairKeyExtractorIS6_EENS_7IntHashImEENS_18HashMapValueTraitsINS_10HashTraitsImEENSC_IS5_EEEESD_E6rehashEi
__ZN3WTF9HashTableImNS_12KeyValuePairImNS_6RefPtrIN6CyberKit17WebResourceLoaderEEEEENS_24KeyValuePairKeyExtractorIS6_EENS_7IntHashImEENS_18HashMapValueTraitsINS_10HashTraitsImEENSC_IS5_EEEESD_E6removeEPS6_
__ZN6CyberKit17WebResourceLoader34didReceiveWebResourceLoaderMessageEPN7CoreIPC10ConnectionERNS1_14MessageDecoderE
__ZN7CoreIPC13handleMessageIN8Messages17WebResourceLoader37DidReceiveResponseWithCertificateInfoEN6CyberKit17WebResourceLoaderEMS5_FvRKN7CyberCore16ResourceResponseERKNS4_23PlatformCertificateInfoEbEEEvRNS_14MessageDecoderEPT0_T1_
__ZN6CyberKit23PlatformCertificateInfoC1Ev
__ZN7CoreIPC10Arguments3IN7CyberCore16ResourceResponseEN6CyberKit23PlatformCertificateInfoEbE6decodeERNS_15ArgumentDecoderERS5_
__ZN7CoreIPC10Arguments2IN7CyberCore16ResourceResponseEN6CyberKit23PlatformCertificateInfoEE6decodeERNS_15ArgumentDecoderERS5_
__ZN7CoreIPC13ArgumentCoderIN7CyberCore16ResourceResponseEE6decodeERNS_15ArgumentDecoderERS2_
__ZN7CoreIPC13ArgumentCoderIN7CyberCore16ResourceResponseEE18decodePlatformDataERNS_15ArgumentDecoderERS2_
_WKNSURLResponseFromSerializableRepresentation
__ZN7CyberCore16ResourceResponseC2EP13NSURLResponse
__ZN3WTF9RetainPtrI13NSURLResponseEC2EPS1_
__ZN7CyberCore20ResourceResponseBaseaSERKS0_
__ZN3WTF6RefPtrIN7CyberCore18ResourceLoadTimingEEaSERKS3_
__ZN3WTF9RetainPtrI13NSURLResponseEaSERKS2_
__ZN3WTF9RetainPtrIPK9__CFArrayEaSERKS4_
__ZN6CyberKit23PlatformCertificateInfo6decodeERN7CoreIPC15ArgumentDecoderERS0_
__ZN6CyberKit17WebResourceLoader37didReceiveResponseWithCertificateInfoERKN7CyberCore16ResourceResponseERKNS_23PlatformCertificateInfoEb
_WKCopyNSURLResponseStatusLine
__ZN6CyberKit20WebFrameLoaderClient31dispatchDecidePolicyForResponseEMN7CyberCore13PolicyCheckerEFvNS1_12PolicyActionEERKNS1_16ResourceResponseERKNS1_15ResourceRequestE
__ZN6CyberKit30InjectedBundlePagePolicyClient23decidePolicyForResponseEPNS_7WebPageEPNS_8WebFrameERKN7CyberCore16ResourceResponseERKNS5_15ResourceRequestERN3WTF6RefPtrINS_9APIObjectEEE
_WKURLResponseCopyNSURLResponse
__ZNK6CyberKit14WebURLResponse16platformResponseEv
_WKBundlePageCanShowMIMEType
__ZNK6CyberKit7WebPage15canShowMIMETypeERKN3WTF6StringE
__ZNK6CyberKit20WebFrameLoaderClient15canShowMIMETypeERKN3WTF6StringE
__ZN6CyberKit20WebFrameLoaderClient26dispatchDidReceiveResponseEPN7CyberCore14DocumentLoaderEmRKNS1_16ResourceResponseE
__ZN6CyberKit36InjectedBundlePageResourceLoadClient29didReceiveResponseForResourceEPNS_7WebPageEPNS_8WebFrameEyRKN7CyberCore16ResourceResponseE
__ZN6CyberKit17WebResourceLoader26messageSenderDestinationIDEv
__ZN7CoreIPC13MessageSender4sendIN8Messages21NetworkResourceLoader26ContinueDidReceiveResponseEEEbRKT_y
__ZN6CyberKit17WebResourceLoader23messageSenderConnectionEv
__ZN3WTF9HashTableIyNS_12KeyValuePairIyNS_6RefPtrIN6CyberKit21NetworkResourceLoaderEEEEENS_24KeyValuePairKeyExtractorIS6_EENS_7IntHashIyEENS_18HashMapValueTraitsINS_10HashTraitsIyEENSC_IS5_EEEESD_E12deleteBucketERS6_
__ZN3WTF9HashTableIyNS_12KeyValuePairIyNS_6RefPtrIN6CyberKit21NetworkResourceLoaderEEEEENS_24KeyValuePairKeyExtractorIS6_EENS_7IntHashIyEENS_18HashMapValueTraitsINS_10HashTraitsIyEENSC_IS5_EEEESD_E15deallocateTableEPS6_i
__ZN3WTF9HashTableIyNS_12KeyValuePairIyNS_6RefPtrIN6CyberKit21NetworkResourceLoaderEEEEENS_24KeyValuePairKeyExtractorIS6_EENS_7IntHashIyEENS_18HashMapValueTraitsINS_10HashTraitsIyEENSC_IS5_EEEESD_E16lookupForWritingINS_22IdentityHashTranslatorISA_EEyEENSt3__14pairIPS6_bEERKT0_
__ZN3WTF9HashTableIyNS_12KeyValuePairIyNS_6RefPtrIN6CyberKit21NetworkResourceLoaderEEEEENS_24KeyValuePairKeyExtractorIS6_EENS_7IntHashIyEENS_18HashMapValueTraitsINS_10HashTraitsIyEENSC_IS5_EEEESD_E3addINS_17HashMapTranslatorISF_SA_EEyNS_10PassRefPtrIS4_EEEENS_18HashTableAddResultINS_17HashTableIteratorIyS6_S8_SA_SF_SD_EEEERKT0_RKT1_
__ZN3WTF9HashTableIyNS_12KeyValuePairIyNS_6RefPtrIN6CyberKit21NetworkResourceLoaderEEEEENS_24KeyValuePairKeyExtractorIS6_EENS_7IntHashIyEENS_18HashMapValueTraitsINS_10HashTraitsIyEENSC_IS5_EEEESD_E4findINS_22IdentityHashTranslatorISA_EEyEENS_17HashTableIteratorIyS6_S8_SA_SF_SD_EERKT0_
__ZN3WTF9HashTableIyNS_12KeyValuePairIyNS_6RefPtrIN6CyberKit21NetworkResourceLoaderEEEEENS_24KeyValuePairKeyExtractorIS6_EENS_7IntHashIyEENS_18HashMapValueTraitsINS_10HashTraitsIyEENSC_IS5_EEEESD_E6expandEv
__ZN3WTF9HashTableIyNS_12KeyValuePairIyNS_6RefPtrIN6CyberKit21NetworkResourceLoaderEEEEENS_24KeyValuePairKeyExtractorIS6_EENS_7IntHashIyEENS_18HashMapValueTraitsINS_10HashTraitsIyEENSC_IS5_EEEESD_E6lookupINS_22IdentityHashTranslatorISA_EEyEEPS6_RKT0_
__ZN3WTF9HashTableIyNS_12KeyValuePairIyNS_6RefPtrIN6CyberKit21NetworkResourceLoaderEEEEENS_24KeyValuePairKeyExtractorIS6_EENS_7IntHashIyEENS_18HashMapValueTraitsINS_10HashTraitsIyEENSC_IS5_EEEESD_E6rehashEi
__ZN3WTF9HashTableIyNS_12KeyValuePairIyNS_6RefPtrIN6CyberKit21NetworkResourceLoaderEEEEENS_24KeyValuePairKeyExtractorIS6_EENS_7IntHashIyEENS_18HashMapValueTraitsINS_10HashTraitsIyEENSC_IS5_EEEESD_E6removeEPS6_
__ZN6CyberKit21NetworkResourceLoader38didReceiveNetworkResourceLoaderMessageEPN7CoreIPC10ConnectionERNS1_14MessageDecoderE
__ZN6CyberKit21NetworkResourceLoader26continueDidReceiveResponseEv
__ZThn328_N6CyberKit21NetworkResourceLoader16didReceiveBufferEPN7CyberCore14ResourceHandleEN3WTF10PassRefPtrINS1_12SharedBufferEEEi
__ZN6CyberKit21NetworkResourceLoader16didReceiveBufferEPN7CyberCore14ResourceHandleEN3WTF10PassRefPtrINS1_12SharedBufferEEEi
__ZN6CyberKit17ShareableResource6HandleC1Ev
__ZN6CyberKit21NetworkResourceLoader37tryGetShareableHandleFromSharedBufferERNS_17ShareableResource6HandleEPN7CyberCore12SharedBufferE
__ZNK6CyberKit12SharedMemory6Handle6isNullEv
__ZN6CyberKit21NetworkResourceLoader21sendAbortingOnFailureIN8Messages17WebResourceLoader14DidReceiveDataEEEbRKT_j
__ZN7CoreIPC10Connection4sendIN8Messages17WebResourceLoader14DidReceiveDataEEEbRKT_yj
__ZN7CoreIPC15ArgumentEncoder6encodeEx
__ZThn328_N6CyberKit21NetworkResourceLoader16didFinishLoadingEPN7CyberCore14ResourceHandleEd
__ZThn336_N6CyberKit21NetworkResourceLoader26messageSenderDestinationIDEv
__ZN7CoreIPC13MessageSender4sendIN8Messages17WebResourceLoader21DidFinishResourceLoadEEEbRKT_y
__ZThn336_N6CyberKit21NetworkResourceLoader23messageSenderConnectionEv
__ZN6CyberKit21NetworkResourceLoader7cleanupEv
__ZN6CyberKit17SchedulableLoader27invalidateSandboxExtensionsEv
__ZN3WTF6VectorINS_6RefPtrIN6CyberKit16SandboxExtensionEEELm0ENS_15CrashOnOverflowEE14shrinkCapacityEm
__ZN6CyberKit28NetworkResourceLoadScheduler20scheduleRemoveLoaderEPNS_17SchedulableLoaderE
__ZN3WTF6VectorINS_6RefPtrIN6CyberKit17SchedulableLoaderEEELm0ENS_15CrashOnOverflowEE14appendSlowCaseIPS3_EEvRKT_
__ZN3WTF6VectorINS_6RefPtrIN6CyberKit17SchedulableLoaderEEELm0ENS_15CrashOnOverflowEE15reserveCapacityEm
__ZN3WTF6RefPtrIN7CyberCore14ResourceHandleEEaSEPS2_
__ZN6CyberKit28NetworkResourceLoadScheduler22removeScheduledLoadersEPv
__ZN6CyberKit28NetworkResourceLoadScheduler22removeScheduledLoadersEv
__ZN3WTF6VectorINS_6RefPtrIN6CyberKit17SchedulableLoaderEEELm0ENS_15CrashOnOverflowEEaSERKS6_
__ZN3WTF6VectorINS_6RefPtrIN6CyberKit17SchedulableLoaderEEELm0ENS_15CrashOnOverflowEE14shrinkCapacityEm
__ZN6CyberKit28NetworkResourceLoadScheduler12removeLoaderEPNS_17SchedulableLoaderE
__ZN6CyberKit10HostRecord12removeLoaderEPNS_17SchedulableLoaderE
__ZNK3WTF9HashTableINS_6RefPtrIN6CyberKit17SchedulableLoaderEEES4_NS_17IdentityExtractorENS_7PtrHashIS4_EENS_10HashTraitsIS4_EES9_E4findINS_22IdentityHashTranslatorIS7_EES4_EENS_22HashTableConstIteratorIS4_S4_S5_S7_S9_S9_EERKT0_
__ZN3WTF10RefCountedIN6CyberKit10HostRecordEE5derefEv
__ZN3WTF9HashTableINS_6RefPtrIN6CyberKit17SchedulableLoaderEEES4_NS_17IdentityExtractorENS_7PtrHashIS4_EENS_10HashTraitsIS4_EES9_E12deleteBucketERS4_
__ZN3WTF9HashTableINS_6RefPtrIN6CyberKit17SchedulableLoaderEEES4_NS_17IdentityExtractorENS_7PtrHashIS4_EENS_10HashTraitsIS4_EES9_E15deallocateTableEPS4_i
__ZN3WTF9HashTableINS_6RefPtrIN6CyberKit17SchedulableLoaderEEES4_NS_17IdentityExtractorENS_7PtrHashIS4_EENS_10HashTraitsIS4_EES9_E16lookupForWritingINS_22IdentityHashTranslatorIS7_EES4_EENSt3__14pairIPS4_bEERKT0_
__ZN3WTF9HashTableINS_6RefPtrIN6CyberKit17SchedulableLoaderEEES4_NS_17IdentityExtractorENS_7PtrHashIS4_EENS_10HashTraitsIS4_EES9_E3addINS_22IdentityHashTranslatorIS7_EES4_S4_EENS_18HashTableAddResultINS_17HashTableIteratorIS4_S4_S5_S7_S9_S9_EEEERKT0_RKT1_
__ZN3WTF9HashTableINS_6RefPtrIN6CyberKit17SchedulableLoaderEEES4_NS_17IdentityExtractorENS_7PtrHashIS4_EENS_10HashTraitsIS4_EES9_E4findINS_22IdentityHashTranslatorIS7_EES4_EENS_17HashTableIteratorIS4_S4_S5_S7_S9_S9_EERKT0_
__ZN3WTF9HashTableINS_6RefPtrIN6CyberKit17SchedulableLoaderEEES4_NS_17IdentityExtractorENS_7PtrHashIS4_EENS_10HashTraitsIS4_EES9_E6expandEv
__ZN3WTF9HashTableINS_6RefPtrIN6CyberKit17SchedulableLoaderEEES4_NS_17IdentityExtractorENS_7PtrHashIS4_EENS_10HashTraitsIS4_EES9_E6lookupINS_22IdentityHashTranslatorIS7_EES4_EEPS4_RKT0_
__ZN3WTF9HashTableINS_6RefPtrIN6CyberKit17SchedulableLoaderEEES4_NS_17IdentityExtractorENS_7PtrHashIS4_EENS_10HashTraitsIS4_EES9_E6rehashEi
__ZN3WTF9HashTableINS_6RefPtrIN6CyberKit17SchedulableLoaderEEES4_NS_17IdentityExtractorENS_7PtrHashIS4_EENS_10HashTraitsIS4_EES9_E6removeEPS4_
__ZN7CoreIPC13handleMessageIN8Messages17WebResourceLoader14DidReceiveDataEN6CyberKit17WebResourceLoaderEMS5_FvRKNS_13DataReferenceExEEEvRNS_14MessageDecoderEPT0_T1_
__ZN7CoreIPC10Arguments2INS_13DataReferenceExE6decodeERNS_15ArgumentDecoderERS2_
__ZN7CoreIPC15ArgumentDecoder6decodeERx
__ZN6CyberKit17WebResourceLoader14didReceiveDataERKN7CoreIPC13DataReferenceEx
__ZN6CyberKit20WebFrameLoaderClient39postProgressEstimateChangedNotificationEv
__ZN7CoreIPC13MessageSender4sendIN8Messages12WebPageProxy17DidChangeProgressEEEbRKT_y
__ZN3WTF6VectorINS_6RefPtrIN6CyberKit17SchedulableLoaderEEELm0ENS_15CrashOnOverflowEED2Ev
__ZN6CyberKit20WebFrameLoaderClient31dispatchDidReceiveContentLengthEPN7CyberCore14DocumentLoaderEmi
__ZN6CyberKit36InjectedBundlePageResourceLoadClient34didReceiveContentLengthForResourceEPNS_7WebPageEPNS_8WebFrameEyy
__ZN7CyberCore5TimerIN6CyberKit28NetworkResourceLoadSchedulerEE5firedEv
__ZN6CyberKit28NetworkResourceLoadScheduler17requestTimerFiredEPN7CyberCore5TimerIS0_EE
__ZN6CyberKit28NetworkResourceLoadScheduler20servePendingRequestsEN7CyberCore20ResourceLoadPriorityE
__ZN3WTF6VectorINS_6RefPtrIN6CyberKit10HostRecordEEELm0ENS_15CrashOnOverflowEE6resizeEm
__ZN3WTF6VectorINS_6RefPtrIN6CyberKit10HostRecordEEELm0ENS_15CrashOnOverflowEE15reserveCapacityEm
__ZN3WTF16VectorBufferBaseINS_6RefPtrIN6CyberKit10HostRecordEEEE14allocateBufferEm
__ZN6CyberKit20WebFrameLoaderClient17dispatchWillCloseEv
__ZNK3WTF9HashTableINS_6StringENS_12KeyValuePairIS1_NS_6RefPtrIN6CyberKit10HostRecordEEEEENS_24KeyValuePairKeyExtractorIS7_EENS_10StringHashENS_18HashMapValueTraitsINS_10HashTraitsIS1_EENSC_IS6_EEEESD_E5beginEv
__ZN6CyberKit12WebPageProxy17didChangeProgressEd
__ZN6CyberKit20WebFrameLoaderClient18makeRepresentationEPN7CyberCore14DocumentLoaderE
__ZN3WTF6RefPtrIN6CyberKit10HostRecordEEaSERKS3_
__ZN6CyberKit15WebLoaderClient17didChangeProgressEPNS_12WebPageProxyE
__ZN3WTF7HashMapINS_6StringENS_6RefPtrIN6CyberKit10HostRecordEEENS_10StringHashENS_10HashTraitsIS1_EENS7_IS5_EEE6removeERKS1_
__ZN6CyberKit15WebEditorClient23clearUndoRedoOperationsEv
__ZN3WTF6VectorINS_6RefPtrIN6CyberKit10HostRecordEEELm0ENS_15CrashOnOverflowEED2Ev
__ZN7CoreIPC13MessageSender4sendIN8Messages12WebPageProxy20ClearAllEditCommandsEEEbRKT_y
__ZN3WTF6VectorINS_6RefPtrIN6CyberKit10HostRecordEEELm0ENS_15CrashOnOverflowEE6shrinkEm
__ZN6CyberKit10HostRecordD2Ev
__ZN3WTF5DequeINS_6RefPtrIN6CyberKit17SchedulableLoaderEEELm0EED2Ev
__ZN3WTF5DequeINS_6RefPtrIN6CyberKit17SchedulableLoaderEEELm0EE10destroyAllEv
__ZN6CyberKit23WebBackForwardListProxy11itemAtIndexEi
__ZN7CoreIPC10Connection8sendSyncIN8Messages12WebPageProxy22BackForwardItemAtIndexEEEbRKT_RKNS5_5ReplyEydj
__ZN6CyberKit12WebPageProxy20clearAllEditCommandsEv
__ZN6CyberKit14PageClientImpl20clearAllEditCommandsEv
__ZN7CoreIPC13handleMessageIN8Messages12WebPageProxy22BackForwardItemAtIndexEN6CyberKit12WebPageProxyEMS5_FviRyEEEvRNS_14MessageDecoderERNS_14MessageEncoderEPT0_T1_
__ZN6CyberKit12WebPageProxy22backForwardItemAtIndexEiRy
__ZN6CyberKit18WebBackForwardList11itemAtIndexEi
__ZN6CyberKit20WebIconDatabaseProxy21releaseIconForPageURLERKN3WTF6StringE
__ZN7CoreIPC10Connection4sendIN8Messages15WebIconDatabase21ReleaseIconForPageURLEEEbRKT_yj
__ZN6CyberKit20WebIconDatabaseProxy20retainIconForPageURLERKN3WTF6StringE
__ZN7CoreIPC10Connection4sendIN8Messages15WebIconDatabase20RetainIconForPageURLEEEbRKT_yj
__ZN6CyberKitL27WK2NotifyHistoryItemChangedEPN7CyberCore11HistoryItemE
__ZN6CyberKitL18historyItemToIDMapEv
__ZThn24_N6CyberKit15WebIconDatabase17didReceiveMessageEPN7CoreIPC10ConnectionERNS1_14MessageDecoderE
__ZN6CyberKit23WebBackForwardListProxy7addItemEN3WTF10PassRefPtrIN7CyberCore11HistoryItemEEE
__ZN3WTF6RefPtrIN7CyberCore11HistoryItemEEaSERKS3_
__ZN6CyberKit15WebIconDatabase17didReceiveMessageEPN7CoreIPC10ConnectionERNS1_14MessageDecoderE
__ZN6CyberKitL18idToHistoryItemMapEv
__ZN3WTF7HashMapIyNS_6RefPtrIN7CyberCore11HistoryItemEEENS_7IntHashIyEENS_10HashTraitsIyEENS7_IS4_EEE3setERKyNS_10PassRefPtrIS3_EE
__ZN7CoreIPC13handleMessageIN8Messages15WebIconDatabase21ReleaseIconForPageURLEN6CyberKit15WebIconDatabaseEMS5_FvRKN3WTF6StringEEEEvRNS_14MessageDecoderEPT0_T1_
__ZN6CyberKitL21updateBackForwardItemEyPN7CyberCore11HistoryItemE
__ZN6CyberKit15WebIconDatabase21releaseIconForPageURLERKN3WTF6StringE
__ZN6CyberKit14EncoderAdapterC1Ev
__ZN7CoreIPC13handleMessageIN8Messages15WebIconDatabase20RetainIconForPageURLEN6CyberKit15WebIconDatabaseEMS5_FvRKN3WTF6StringEEEEvRNS_14MessageDecoderEPT0_T1_
__ZN6CyberKit14EncoderAdapter12encodeUInt32Ej
__ZN6CyberKit14EncoderAdapter12encodeUInt64Ey
__ZN6CyberKit14EncoderAdapter11encodeInt64Ex
__ZN6CyberKit14EncoderAdapter12encodeStringERKN3WTF6StringE
__ZN6CyberKit14EncoderAdapter10encodeBoolEb
__ZN6CyberKit14EncoderAdapter11encodeInt32Ei
__ZN6CyberKit14EncoderAdapter11encodeFloatEf
__ZNK6CyberKit14EncoderAdapter13dataReferenceEv
__ZN7CoreIPC10Connection4sendIN8Messages15WebProcessProxy18AddBackForwardItemEEEbRKT_yj
__ZNK7CoreIPC10Arguments4IyRKN3WTF6StringES4_S4_E6encodeERNS_15ArgumentEncoderE
__ZN7CoreIPC13MessageSender4sendIN8Messages12WebPageProxy18BackForwardAddItemEEEbRKT_y
__ZN3WTF10RefCountedIN7CyberCore11HistoryItemEE5derefEv
__ZN6CyberKit20WebFrameLoaderClient19updateGlobalHistoryEv
__ZN7CoreIPC10Connection4sendIN8Messages15WebProcessProxy29DidNavigateWithNavigationDataEEEbRKT_yj
__ZN6CyberKit15WebProcessProxy32didReceiveWebProcessProxyMessageEPN7CoreIPC10ConnectionERNS1_14MessageDecoderE
__ZN7CoreIPC13handleMessageIN8Messages15WebProcessProxy18AddBackForwardItemEN6CyberKit15WebProcessProxyEMS5_FvyRKN3WTF6StringES9_S9_RKNS_13DataReferenceEEEEvRNS_14MessageDecoderEPT0_T1_
__ZN7CoreIPC10Arguments5IyN3WTF6StringES2_S2_NS_13DataReferenceEE6decodeERNS_15ArgumentDecoderERS4_
__ZN7CoreIPC10Arguments4IyN3WTF6StringES2_S2_E6decodeERNS_15ArgumentDecoderERS3_
__ZN6CyberKit15WebProcessProxy18addBackForwardItemEyRKN3WTF6StringES4_S4_RKN7CoreIPC13DataReferenceE
__ZN3WTF9HashTableIyNS_12KeyValuePairIyNS_6RefPtrIN6CyberKit22WebBackForwardListItemEEEEENS_24KeyValuePairKeyExtractorIS6_EENS_7IntHashIyEENS_18HashMapValueTraitsINS_10HashTraitsIyEENSC_IS5_EEEESD_E15deallocateTableEPS6_i
__ZN3WTF9HashTableIyNS_12KeyValuePairIyNS_6RefPtrIN6CyberKit22WebBackForwardListItemEEEEENS_24KeyValuePairKeyExtractorIS6_EENS_7IntHashIyEENS_18HashMapValueTraitsINS_10HashTraitsIyEENSC_IS5_EEEESD_E16lookupForWritingINS_22IdentityHashTranslatorISA_EEyEENSt3__14pairIPS6_bEERKT0_
__ZN3WTF9HashTableIyNS_12KeyValuePairIyNS_6RefPtrIN6CyberKit22WebBackForwardListItemEEEEENS_24KeyValuePairKeyExtractorIS6_EENS_7IntHashIyEENS_18HashMapValueTraitsINS_10HashTraitsIyEENSC_IS5_EEEESD_E3addINS_17HashMapTranslatorISF_SA_EEyNS_10PassRefPtrIS4_EEEENS_18HashTableAddResultINS_17HashTableIteratorIyS6_S8_SA_SF_SD_EEEERKT0_RKT1_
__ZN3WTF9HashTableIyNS_12KeyValuePairIyNS_6RefPtrIN6CyberKit22WebBackForwardListItemEEEEENS_24KeyValuePairKeyExtractorIS6_EENS_7IntHashIyEENS_18HashMapValueTraitsINS_10HashTraitsIyEENSC_IS5_EEEESD_E4findINS_22IdentityHashTranslatorISA_EEyEENS_17HashTableIteratorIyS6_S8_SA_SF_SD_EERKT0_
__ZN3WTF9HashTableIyNS_12KeyValuePairIyNS_6RefPtrIN6CyberKit22WebBackForwardListItemEEEEENS_24KeyValuePairKeyExtractorIS6_EENS_7IntHashIyEENS_18HashMapValueTraitsINS_10HashTraitsIyEENSC_IS5_EEEESD_E6expandEv
__ZN3WTF9HashTableIyNS_12KeyValuePairIyNS_6RefPtrIN6CyberKit22WebBackForwardListItemEEEEENS_24KeyValuePairKeyExtractorIS6_EENS_7IntHashIyEENS_18HashMapValueTraitsINS_10HashTraitsIyEENSC_IS5_EEEESD_E6lookupINS_22IdentityHashTranslatorISA_EEyEEPS6_RKT0_
__ZN3WTF9HashTableIyNS_12KeyValuePairIyNS_6RefPtrIN6CyberKit22WebBackForwardListItemEEEEENS_24KeyValuePairKeyExtractorIS6_EENS_7IntHashIyEENS_18HashMapValueTraitsINS_10HashTraitsIyEENSC_IS5_EEEESD_E6rehashEi
__ZN6CyberKit22WebNavigationDataStoreD2Ev
__ZN3WTF17HashMapTranslatorINS_18HashMapValueTraitsINS_10HashTraitsIyEENS2_INS_6RefPtrIN6CyberKit22WebBackForwardListItemEEEEEEENS_7IntHashIyEEE9translateINS_12KeyValuePairIyS7_EEyNS_10PassRefPtrIS6_EEEEvRT_RKT0_RKT1_
__ZN6CyberKit20WebFrameLoaderClient32updateGlobalHistoryRedirectLinksEv
__ZN6CyberKit22WebBackForwardListItemC1ERKN3WTF6StringES4_S4_PKhmy
__ZNK7CyberCore14DocumentLoader30serverRedirectSourceForHistoryEv
__ZN6CyberKit22WebBackForwardListItemC2ERKN3WTF6StringES4_S4_PKhmy
__ZN7CyberCore17FrameLoaderClient30updateGlobalHistoryItemForPageEv
__ZN6CyberKit21WebPlatformStrategies25createVisitedLinkStrategyEv
__ZN3WTF6VectorIhLm0ENS_15CrashOnOverflowEE14shrinkCapacityEm
__ZN3WTF6VectorIhLm0ENS_15CrashOnOverflowEE15reserveCapacityEm
__ZThn128_N6CyberKit21WebPlatformStrategies14addVisitedLinkEPN7CyberCore4PageEy
__ZN6CyberKit10WebProcess14addVisitedLinkEy
__ZN3WTF6VectorIhLm0ENS_15CrashOnOverflowEE6appendIhEEvPKT_m
__ZNK6CyberKit16VisitedLinkTable13isLinkVisitedEy
__ZN6CyberKit12WebPageProxy18backForwardAddItemEy
__ZNK6CyberKit15WebProcessProxy18webBackForwardItemEy
__ZN6CyberKit7WebPage40shouldUseCustomRepresentationForResponseERKN7CyberCore16ResourceResponseE
__ZN6CyberKit18WebBackForwardList7addItemEPNS_22WebBackForwardListItemE
__ZN3WTF6VectorINS_6RefPtrIN6CyberKit22WebBackForwardListItemEEELm0ENS_15CrashOnOverflowEE6insertIPS3_EEvmRKT_
__ZN3WTF9RetainPtrI7CALayerEaSEPS1_
__ZN3WTF6VectorINS_6RefPtrIN6CyberKit22WebBackForwardListItemEEELm0ENS_15CrashOnOverflowEE15reserveCapacityEm
__ZN3WTF16VectorBufferBaseINS_6RefPtrIN6CyberKit22WebBackForwardListItemEEEE14allocateBufferEm
__ZN6CyberKit12WebPageProxy24didChangeBackForwardListEPNS_22WebBackForwardListItemEPN3WTF6VectorINS3_6RefPtrINS_9APIObjectEEELm0ENS3_15CrashOnOverflowEEE
__ZN6CyberKit15WebLoaderClient24didChangeBackForwardListEPNS_12WebPageProxyEPNS_22WebBackForwardListItemEPN3WTF6VectorINS5_6RefPtrINS_9APIObjectEEELm0ENS5_15CrashOnOverflowEEE
__ZN6CyberKit15WebChromeClient16setStatusbarTextERKN3WTF6StringE
__ZN6CyberKit26InjectedBundlePageUIClient20willSetStatusbarTextEPNS_7WebPageERKN3WTF6StringE
__ZN7CoreIPC13MessageSender4sendIN8Messages12WebPageProxy13SetStatusTextEEEbRKT_y
__ZN6CyberKit20WebFrameLoaderClient13committedLoadEPN7CyberCore14DocumentLoaderEPKci
__ZN7CoreIPC13handleMessageIN8Messages15WebProcessProxy29DidNavigateWithNavigationDataEN6CyberKit15WebProcessProxyEMS5_FvyRKNS4_22WebNavigationDataStoreEyEEEvRNS_14MessageDecoderEPT0_T1_
__ZN7CoreIPC10Arguments3IyN6CyberKit22WebNavigationDataStoreEyE6decodeERNS_15ArgumentDecoderERS3_
__ZN7CoreIPC10Arguments2IyN6CyberKit22WebNavigationDataStoreEE6decodeERNS_15ArgumentDecoderERS3_
__ZN6CyberKit22WebNavigationDataStore6decodeERN7CoreIPC15ArgumentDecoderERS0_
__ZN6CyberKit15WebProcessProxy29didNavigateWithNavigationDataEyRKNS_22WebNavigationDataStoreEy
__ZN6CyberKit15WebProcessProxy7webPageEy
__ZN6CyberKit16WebHistoryClient29didNavigateWithNavigationDataEPNS_10WebContextEPNS_12WebPageProxyERKNS_22WebNavigationDataStoreEPNS_13WebFrameProxyE
__ZN6CyberKit17WebNavigationDataC1ERKNS_22WebNavigationDataStoreE
__ZN6CyberKit17WebNavigationDataC2ERKNS_22WebNavigationDataStoreE
_WKFrameCopyUnreachableURL
_WKNavigationDataCopyNavigationDestinationURL
_WKNavigationDataCopyOriginalRequest
_WKNavigationDataCopyTitle
__ZN6CyberKit20WebFrameLoaderClient21dispatchDidCommitLoadEv
__ZN6CyberKit30InjectedBundlePageLoaderClient21didCommitLoadForFrameEPNS_7WebPageEPNS_8WebFrameERN3WTF6RefPtrINS_9APIObjectEEE
_WKBundleFrameCopyChildFrames
__ZN6CyberKit8WebFrame11childFramesEv
__ZN6CyberKit17WebNavigationDataD0Ev
_WKBundleFrameCopyURL
__ZNK6CyberKit8WebFrame3urlEv
__ZN7CoreIPC13handleMessageIN8Messages12WebPageProxy13SetStatusTextEN6CyberKit12WebPageProxyEMS5_FvRKN3WTF6StringEEEEvRNS_14MessageDecoderEPT0_T1_
__ZN6CyberKit12WebPageProxy13setStatusTextERKN3WTF6StringE
__ZN6CyberKit11WebUIClient13setStatusTextEPNS_12WebPageProxyERKN3WTF6StringE
__ZN6CyberKit7WebPage23SandboxExtensionTracker24didCommitProvisionalLoadEPNS_8WebFrameE
__ZN7CoreIPC13MessageSender4sendIN8Messages12WebPageProxy21DidCommitLoadForFrameEEEbRKT_y
__ZNK7CoreIPC10Arguments5IyRKN3WTF6StringEbjRKN6CyberKit23PlatformCertificateInfoEE6encodeERNS_15ArgumentEncoderE
__ZNK7CoreIPC10Arguments3IyRKN3WTF6StringEbE6encodeERNS_15ArgumentEncoderE
__ZN6CyberKit7WebPage13didCommitLoadEPNS_8WebFrameE
__ZN6CyberKit10WebProcess17updateActivePagesEv
__ZN7CoreIPC21handleMessageVariadicIN8Messages12WebPageProxy21DidCommitLoadForFrameEN6CyberKit12WebPageProxyEMS5_FvyRKN3WTF6StringEbjRKNS4_23PlatformCertificateInfoERNS_14MessageDecoderEEEEvSE_PT0_T1_
__ZN7CoreIPC10Arguments5IyN3WTF6StringEbjN6CyberKit23PlatformCertificateInfoEE6decodeERNS_15ArgumentDecoderERS5_
__ZN7CoreIPC10Arguments4IyN3WTF6StringEbjE6decodeERNS_15ArgumentDecoderERS3_
_WKSetApplicationInformationItem
__ZN7CoreIPC10Arguments3IyN3WTF6StringEbE6decodeERNS_15ArgumentDecoderERS3_
__ZN7CoreIPC18callMemberFunctionIN6CyberKit12WebPageProxyEMS2_FvyRKN3WTF6StringEbjRKNS1_23PlatformCertificateInfoERNS_14MessageDecoderEEyS4_bjS7_EEvRKNS_10Arguments5IT1_T2_T3_T4_T5_EESB_PT_T0_
__ZN6CyberKit12WebPageProxy21didCommitLoadForFrameEyRKN3WTF6StringEbjRKNS_23PlatformCertificateInfoERN7CoreIPC14MessageDecoderE
__ZN6CyberKit14PageClientImpl21resetSecureInputStateEv
-[WKView(Internal) _resetSecureInputState]
__ZN6CyberKit14PageClientImpl22dismissCorrectionPanelEN7CyberCore34ReasonForDismissingAlternativeTextE
__ZN6CyberKit15CorrectionPanel7dismissEN7CyberCore34ReasonForDismissingAlternativeTextE
__ZN6CyberKit15CorrectionPanel15dismissInternalEN7CyberCore34ReasonForDismissingAlternativeTextEb
__ZN6CyberKit14PageClientImpl28dismissDictionaryLookupPanelEv
_WKHideWordDefinitionWindow
__ZN6CyberKit12WebPageProxy27clearLoadDependentCallbacksEv
__ZN6CyberKit13WebFrameProxy13didCommitLoadERKN3WTF6StringERKNS_23PlatformCertificateInfoE
__ZN6CyberKit18WebCertificateInfoC2ERKNS_23PlatformCertificateInfoE
__ZN6CyberKit14PageClientImpl25didCommitLoadForMainFrameEb
-[WKView(Internal) _setPageHasCustomRepresentation:]
__ZN3WTF6OwnPtrIN6CyberKit17PDFViewControllerEE5clearEv
__ZN6CyberKit15WebLoaderClient21didCommitLoadForFrameEPNS_12WebPageProxyEPNS_13WebFrameProxyEPNS_9APIObjectE
__ZN6CyberKit20WebFrameLoaderClient29dispatchGlobalObjectAvailableEPN7CyberCore15DOMWrapperWorldE
__ZN6CyberKit30InjectedBundlePageLoaderClient31globalObjectIsAvailableForFrameEPNS_7WebPageEPNS_8WebFrameEPN7CyberCore15DOMWrapperWorldE
__ZN6CyberKit25InjectedBundleScriptWorld11getOrCreateEPN7CyberCore15DOMWrapperWorldE
_WKBundleScriptWorldNormalWorld
__ZN6CyberKit25InjectedBundleScriptWorld11normalWorldEv
_WKBundleFrameGetJavaScriptContextForWorld
__ZN6CyberKit8WebFrame17jsContextForWorldEPNS_25InjectedBundleScriptWorldE
__ZN7CyberCore16ScriptController11windowShellEPNS_15DOMWrapperWorldE
_WKFrameGetPage
_WKFrameCopyMIMEType
_WKFrameIsDisplayingStandaloneImageDocument
__ZNK6CyberKit13WebFrameProxy35isDisplayingStandaloneImageDocumentEv
-[WKView becomeFirstResponder]
__ZN6CyberKit17ChildProcessProxy4sendIN8Messages7WebPage10SetFocusedEEEbRKT_yj
__ZN6CyberKit20WebFrameLoaderClient35dispatchDidClearWindowObjectInWorldEPN7CyberCore15DOMWrapperWorldE
__ZN6CyberKit30InjectedBundlePageLoaderClient28didClearWindowObjectForFrameEPNS_7WebPageEPNS_8WebFrameEPN7CyberCore15DOMWrapperWorldE
_WKBundleFrameGetPage
_WKBundleDOMWindowExtensionCreate
__ZN6CyberKit32InjectedBundleDOMWindowExtension6createEPNS_8WebFrameEPNS_25InjectedBundleScriptWorldE
__ZN6CyberKit32InjectedBundleDOMWindowExtensionC2EPNS_8WebFrameEPNS_25InjectedBundleScriptWorldE
__ZN6CyberKitL13allExtensionsEv
__ZN3WTF9HashTableINS_6RefPtrIN7CyberCore15DOMWrapperWorldEEENS_12KeyValuePairIS4_N3JSC6StrongINS2_16JSDOMWindowShellEEEEENS_24KeyValuePairKeyExtractorISA_EENS_7PtrHashIS4_EENS_22KeyValuePairHashTraitsINS_10HashTraitsIS4_EENSG_IS9_EEEESH_E4findINS_17HashMapTranslatorISJ_SE_EEPS3_EENS_17HashTableIteratorIS4_SA_SC_SE_SJ_SH_EERKT0_
__ZN3WTF9HashTableINS_6RefPtrIN7CyberCore15DOMWrapperWorldEEENS_12KeyValuePairIS4_N3JSC6StrongINS2_16JSDOMWindowShellEEEEENS_24KeyValuePairKeyExtractorISA_EENS_7PtrHashIS4_EENS_22KeyValuePairHashTraitsINS_10HashTraitsIS4_EENSG_IS9_EEEESH_E6lookupINS_17HashMapTranslatorISJ_SE_EEPS3_EEPSA_RKT0_
_WKUserContentURLPatternCreate
__ZN6CyberKit24WebUserContentURLPatternC2ERKN3WTF6StringE
_WKUserContentURLPatternMatchesURL
__ZNK6CyberKit24WebUserContentURLPattern10matchesURLERKN3WTF6StringE
__ZN3WTF9HashTableIPN7CyberCore18DOMWindowExtensionENS_12KeyValuePairIS3_PN6CyberKit32InjectedBundleDOMWindowExtensionEEENS_24KeyValuePairKeyExtractorIS8_EENS_7PtrHashIS3_EENS_18HashMapValueTraitsINS_10HashTraitsIS3_EENSE_IS7_EEEESF_E16lookupForWritingINS_22IdentityHashTranslatorISC_EES3_EENSt3__14pairIPS8_bEERKT0_
__ZN3WTF9HashTableIPN7CyberCore18DOMWindowExtensionENS_12KeyValuePairIS3_PN6CyberKit32InjectedBundleDOMWindowExtensionEEENS_24KeyValuePairKeyExtractorIS8_EENS_7PtrHashIS3_EENS_18HashMapValueTraitsINS_10HashTraitsIS3_EENSE_IS7_EEEESF_E3addINS_17HashMapTranslatorISH_SC_EES3_S7_EENS_18HashTableAddResultINS_17HashTableIteratorIS3_S8_SA_SC_SH_SF_EEEERKT0_RKT1_
__ZN3WTF9HashTableIPN7CyberCore18DOMWindowExtensionENS_12KeyValuePairIS3_PN6CyberKit32InjectedBundleDOMWindowExtensionEEENS_24KeyValuePairKeyExtractorIS8_EENS_7PtrHashIS3_EENS_18HashMapValueTraitsINS_10HashTraitsIS3_EENSE_IS7_EEEESF_E4findINS_22IdentityHashTranslatorISC_EES3_EENS_17HashTableIteratorIS3_S8_SA_SC_SH_SF_EERKT0_
__ZN3WTF9HashTableIPN7CyberCore18DOMWindowExtensionENS_12KeyValuePairIS3_PN6CyberKit32InjectedBundleDOMWindowExtensionEEENS_24KeyValuePairKeyExtractorIS8_EENS_7PtrHashIS3_EENS_18HashMapValueTraitsINS_10HashTraitsIS3_EENSE_IS7_EEEESF_E6expandEv
__ZN3WTF9HashTableIPN7CyberCore18DOMWindowExtensionENS_12KeyValuePairIS3_PN6CyberKit32InjectedBundleDOMWindowExtensionEEENS_24KeyValuePairKeyExtractorIS8_EENS_7PtrHashIS3_EENS_18HashMapValueTraitsINS_10HashTraitsIS3_EENSE_IS7_EEEESF_E6lookupINS_22IdentityHashTranslatorISC_EES3_EEPS8_RKT0_
__ZN3WTF9HashTableIPN7CyberCore18DOMWindowExtensionENS_12KeyValuePairIS3_PN6CyberKit32InjectedBundleDOMWindowExtensionEEENS_24KeyValuePairKeyExtractorIS8_EENS_7PtrHashIS3_EENS_18HashMapValueTraitsINS_10HashTraitsIS3_EENSE_IS7_EEEESF_E6rehashEi
__ZN3WTF9HashTableIPN7CyberCore18DOMWindowExtensionENS_12KeyValuePairIS3_PN6CyberKit32InjectedBundleDOMWindowExtensionEEENS_24KeyValuePairKeyExtractorIS8_EENS_7PtrHashIS3_EENS_18HashMapValueTraitsINS_10HashTraitsIS3_EENSE_IS7_EEEESF_E6removeEPS8_
__ZN6CyberKit15WebChromeClient24disableSuddenTerminationEv
__ZN7CoreIPC13MessageSender4sendIN8Messages15WebProcessProxy24DisableSuddenTerminationEEEbRKT_y
__ZN6CyberKit15WebProcessProxy24disableSuddenTerminationEv
_WKSerializedScriptValueCreate
__ZN6CyberKit24WebSerializedScriptValue6createEPK15OpaqueJSContextPK13OpaqueJSValuePS6_
__ZN3WTF10RefCountedIN7CyberCore21SerializedScriptValueEE5derefEv
_WKBundlePostMessage
__ZN6CyberKit14InjectedBundle11postMessageERKN3WTF6StringEPNS_9APIObjectE
__ZNK6CyberKit14TypedAPIObjectILNS_9APIObject4TypeE17EE4typeEv
__ZNK6CyberKit14TypedAPIObjectILNS_9APIObject4TypeE79EE4typeEv
__ZN6CyberKit24WebSerializedScriptValueD0Ev
__ZThn16_N6CyberKit10WebContext17didReceiveMessageEPN7CoreIPC10ConnectionERNS1_14MessageDecoderE
__ZN6CyberKit10WebContext17didReceiveMessageEPN7CoreIPC10ConnectionERNS1_14MessageDecoderE
__ZN6CyberKit17ChildProcessProxy14fromConnectionEPN7CoreIPC10ConnectionE
__ZN3WTF6VectorIhLm0ENS_15CrashOnOverflowEE14expandCapacityEmPKh
__ZN6CyberKit24WebSerializedScriptValue5adoptERN3WTF6VectorIhLm0ENS1_15CrashOnOverflowEEE
__ZN6CyberKit14ImmutableArray5adoptERN3WTF6VectorINS1_6RefPtrINS_9APIObjectEEELm0ENS1_15CrashOnOverflowEEE
__ZN6CyberKit30WebContextInjectedBundleClient35didReceiveMessageFromInjectedBundleEPNS_10WebContextERKN3WTF6StringEPNS_9APIObjectE
_WKSerializedScriptValueGetTypeID
__ZNK6CyberKit14TypedAPIObjectILNS_9APIObject4TypeE63EE4typeEv
_WKPageGetTypeID
_WKSerializedScriptValueDeserialize
_WKBundlePostSynchronousMessage
__ZN6CyberKit14InjectedBundle22postSynchronousMessageERKN3WTF6StringEPNS_9APIObjectERNS1_6RefPtrIS5_EE
__ZThn16_N6CyberKit10WebContext21didReceiveSyncMessageEPN7CoreIPC10ConnectionERNS1_14MessageDecoderERN3WTF6OwnPtrINS1_14MessageEncoderEEE
__ZN6CyberKit10WebContext21didReceiveSyncMessageEPN7CoreIPC10ConnectionERNS1_14MessageDecoderERN3WTF6OwnPtrINS1_14MessageEncoderEEE
__ZN6CyberKit30WebContextInjectedBundleClient46didReceiveSynchronousMessageFromInjectedBundleEPNS_10WebContextERKN3WTF6StringEPNS_9APIObjectERNS3_6RefPtrIS7_EE
_WKIsPublicSuffix
__CFHostIsDomainTopLevel
__ZN6CyberKit20WebFrameLoaderClient15willChangeTitleEPN7CyberCore14DocumentLoaderE
__ZN6CyberKit20WebFrameLoaderClient14didChangeTitleEPN7CyberCore14DocumentLoaderE
__ZN6CyberKit20WebFrameLoaderClient8setTitleERKN7CyberCore19StringWithDirectionERKNS1_4KURLE
__ZN7CoreIPC10Connection4sendIN8Messages15WebProcessProxy21DidUpdateHistoryTitleEEEbRKT_yj
__ZN6CyberKit20WebFrameLoaderClient23dispatchDidReceiveTitleERKN7CyberCore19StringWithDirectionE
__ZN6CyberKit30InjectedBundlePageLoaderClient23didReceiveTitleForFrameEPNS_7WebPageERKN3WTF6StringEPNS_8WebFrameERNS3_6RefPtrINS_9APIObjectEEE
__ZN7CoreIPC13MessageSender4sendIN8Messages12WebPageProxy23DidReceiveTitleForFrameEEEbRKT_y
__ZNK7CoreIPC10Arguments3IyRKN3WTF6StringERKN6CyberKit32InjectedBundleUserMessageEncoderEE6encodeERNS_15ArgumentEncoderE
__ZN6CyberKit22WebBackForwardListItem18setBackForwardDataEPKhm
__ZN7CoreIPC13handleMessageIN8Messages15WebProcessProxy21DidUpdateHistoryTitleEN6CyberKit15WebProcessProxyEMS5_FvyRKN3WTF6StringES9_yEEEvRNS_14MessageDecoderEPT0_T1_
__ZN7CoreIPC10Arguments4IyN3WTF6StringES2_yE6decodeERNS_15ArgumentDecoderERS3_
__ZN6CyberKit15WebProcessProxy21didUpdateHistoryTitleEyRKN3WTF6StringES4_y
__ZN6CyberKit16WebHistoryClient21didUpdateHistoryTitleEPNS_10WebContextEPNS_12WebPageProxyERKN3WTF6StringES8_PNS_13WebFrameProxyE
_WKURLCopyString
__ZN7CoreIPC21handleMessageVariadicIN8Messages12WebPageProxy23DidReceiveTitleForFrameEN6CyberKit12WebPageProxyEMS5_FvyRKN3WTF6StringERNS_14MessageDecoderEEEEvSB_PT0_T1_
__ZN6CyberKit12WebPageProxy23didReceiveTitleForFrameEyRKN3WTF6StringERN7CoreIPC14MessageDecoderE
__ZN6CyberKit13WebFrameProxy14didChangeTitleERKN3WTF6StringE
__ZN6CyberKit15WebLoaderClient23didReceiveTitleForFrameEPNS_12WebPageProxyERKN3WTF6StringEPNS_13WebFrameProxyEPNS_9APIObjectE
__ZN7CyberCore17FrameLoaderClient21allowScriptFromSourceEbRKNS_4KURLE
__ZN6CyberKit17WebResourceLoader21didFinishResourceLoadEd
__ZN6CyberKit20WebFrameLoaderClient24dispatchDidFinishLoadingEPN7CyberCore14DocumentLoaderEm
__ZN6CyberKit36InjectedBundlePageResourceLoadClient24didFinishLoadForResourceEPNS_7WebPageEPNS_8WebFrameEy
__ZN6CyberKit24WebResourceLoadScheduler20servePendingRequestsEN7CyberCore20ResourceLoadPriorityE
__ZN7CoreIPC10Connection4sendIN8Messages29NetworkConnectionToWebProcess20ServePendingRequestsEEEbRKT_yj
__ZN6CyberKit24WebResourceLoadScheduler6removeEPN7CyberCore14ResourceLoaderE
__ZN3WTF7HashMapImNS_6RefPtrIN6CyberKit17WebResourceLoaderEEENS_7IntHashImEENS_10HashTraitsImEENS7_IS4_EEE4takeERKm
__ZN7CoreIPC10Connection4sendIN8Messages29NetworkConnectionToWebProcess20RemoveLoadIdentifierEEEbRKT_yj
__ZN6CyberKit17WebResourceLoader20detachFromCoreLoaderEv
__ZN3WTF6RefPtrIN7CyberCore14ResourceLoaderEEaSEPS2_
__ZN6CyberKit17WebResourceLoaderD0Ev
__ZN6CyberKit29NetworkConnectionToWebProcess20servePendingRequestsEj
__ZN6CyberKit17WebResourceLoaderD2Ev
__ZN7CoreIPC13MessageSenderD2Ev
__ZN6CyberKit29NetworkConnectionToWebProcess20removeLoadIdentifierEy
__ZN3WTF7HashMapIyNS_6RefPtrIN6CyberKit21NetworkResourceLoaderEEENS_7IntHashIyEENS_10HashTraitsIyEENS7_IS4_EEE4takeERKy
__ZN6CyberKit21NetworkResourceLoader5abortEv
__ZN6CyberKit21NetworkResourceLoaderD0Ev
__ZN6CyberKit21NetworkResourceLoaderD2Ev
__ZN6CyberKit23RemoteNetworkingContextD0Ev
__ZN6CyberKit17SchedulableLoaderD2Ev
__ZN3WTF6VectorINS_6RefPtrIN6CyberKit16SandboxExtensionEEELm0ENS_15CrashOnOverflowEED2Ev
__ZN6CyberKit7WebPage10setFocusedEb
__ZN6CyberKit15WebChromeClient19focusedFrameChangedEPN7CyberCore5FrameE
__ZN7CoreIPC10Connection4sendIN8Messages12WebPageProxy19FocusedFrameChangedEEEbRKT_yj
__ZN6CyberKit12WebPageProxy19focusedFrameChangedEy
__ZN3WTF6RefPtrIN6CyberKit13WebFrameProxyEEaSEPS2_
_WKBundleReportException
__ZN6CyberKit14InjectedBundle15reportExceptionEPK15OpaqueJSContextPK13OpaqueJSValue
__ZNK6CyberKit15WebChromeClient17windowResizerRectEv
__ZNK6CyberKit7WebPage17windowResizerRectEv
__ZN6CyberKit20WebFrameLoaderClient17dispatchDidLayoutEj
__ZN6CyberKit30InjectedBundlePageLoaderClient9didLayoutEPNS_7WebPageEjRN3WTF6RefPtrINS_9APIObjectEEE
__ZN7CoreIPC13MessageSender4sendIN8Messages12WebPageProxy9DidLayoutEEEbRKT_y
__ZN6CyberKit30InjectedBundlePageLoaderClient22didFirstLayoutForFrameEPNS_7WebPageEPNS_8WebFrameERN3WTF6RefPtrINS_9APIObjectEEE
__ZN7CoreIPC13MessageSender4sendIN8Messages12WebPageProxy22DidFirstLayoutForFrameEEEbRKT_y
__ZN6CyberKit7WebPage25didCompletePageTransitionEv
__ZN6CyberKit12WebPageProxy9didLayoutEjRN7CoreIPC14MessageDecoderE
__ZN6CyberKit15WebLoaderClient9didLayoutEPNS_12WebPageProxyEjPNS_9APIObjectE
__ZN6CyberKit12WebPageProxy22didFirstLayoutForFrameEyRN7CoreIPC14MessageDecoderE
__ZN6CyberKit15WebLoaderClient22didFirstLayoutForFrameEPNS_12WebPageProxyEPNS_13WebFrameProxyEPNS_9APIObjectE
__ZN6CyberKit15WebChromeClient18formStateDidChangeEPKN7CyberCore4NodeE
__ZN6CyberKit21WebPlatformStrategies21createStorageStrategyEv
__ZThn120_N6CyberKit21WebPlatformStrategies21localStorageNamespaceEPN7CyberCore9PageGroupE
__ZN6CyberKit20StorageNamespaceImpl27createLocalStorageNamespaceEPN7CyberCore9PageGroupE
__ZN6CyberKit10WebProcess12webPageGroupEPN7CyberCore9PageGroupE
__ZN6CyberKitL24localStorageNamespaceMapEv
__ZN6CyberKit20StorageNamespaceImpl11storageAreaEN3WTF10PassRefPtrIN7CyberCore14SecurityOriginEEE
__ZN3WTF9HashTableINS_6RefPtrIN7CyberCore14SecurityOriginEEENS_12KeyValuePairIS4_NS1_IN6CyberKit14StorageAreaMapEEEEENS_24KeyValuePairKeyExtractorIS9_EENS2_18SecurityOriginHashENS_22KeyValuePairHashTraitsINS_10HashTraitsIS4_EENSE_IS8_EEEESF_E15deallocateTableEPS9_i
__ZN3WTF9HashTableINS_6RefPtrIN7CyberCore14SecurityOriginEEENS_12KeyValuePairIS4_NS1_IN6CyberKit14StorageAreaMapEEEEENS_24KeyValuePairKeyExtractorIS9_EENS2_18SecurityOriginHashENS_22KeyValuePairHashTraitsINS_10HashTraitsIS4_EENSE_IS8_EEEESF_E16lookupForWritingINS_22IdentityHashTranslatorISC_EES4_EENSt3__14pairIPS9_bEERKT0_
__ZN3WTF9HashTableINS_6RefPtrIN7CyberCore14SecurityOriginEEENS_12KeyValuePairIS4_NS1_IN6CyberKit14StorageAreaMapEEEEENS_24KeyValuePairKeyExtractorIS9_EENS2_18SecurityOriginHashENS_22KeyValuePairHashTraitsINS_10HashTraitsIS4_EENSE_IS8_EEEESF_E3addINS_17HashMapTranslatorISH_SC_EEPS3_NS_10PassRefPtrIS7_EEEENS_18HashTableAddResultINS_17HashTableIteratorIS4_S9_SB_SC_SH_SF_EEEERKT0_RKT1_
__ZN3WTF9HashTableINS_6RefPtrIN7CyberCore14SecurityOriginEEENS_12KeyValuePairIS4_NS1_IN6CyberKit14StorageAreaMapEEEEENS_24KeyValuePairKeyExtractorIS9_EENS2_18SecurityOriginHashENS_22KeyValuePairHashTraitsINS_10HashTraitsIS4_EENSE_IS8_EEEESF_E4findINS_22IdentityHashTranslatorISC_EES4_EENS_17HashTableIteratorIS4_S9_SB_SC_SH_SF_EERKT0_
__ZN3WTF9HashTableINS_6RefPtrIN7CyberCore14SecurityOriginEEENS_12KeyValuePairIS4_NS1_IN6CyberKit14StorageAreaMapEEEEENS_24KeyValuePairKeyExtractorIS9_EENS2_18SecurityOriginHashENS_22KeyValuePairHashTraitsINS_10HashTraitsIS4_EENSE_IS8_EEEESF_E6expandEv
__ZN3WTF9HashTableINS_6RefPtrIN7CyberCore14SecurityOriginEEENS_12KeyValuePairIS4_NS1_IN6CyberKit14StorageAreaMapEEEEENS_24KeyValuePairKeyExtractorIS9_EENS2_18SecurityOriginHashENS_22KeyValuePairHashTraitsINS_10HashTraitsIS4_EENSE_IS8_EEEESF_E6lookupINS_22IdentityHashTranslatorISC_EES4_EEPS9_RKT0_
__ZN3WTF9HashTableINS_6RefPtrIN7CyberCore14SecurityOriginEEENS_12KeyValuePairIS4_NS1_IN6CyberKit14StorageAreaMapEEEEENS_24KeyValuePairKeyExtractorIS9_EENS2_18SecurityOriginHashENS_22KeyValuePairHashTraitsINS_10HashTraitsIS4_EENSE_IS8_EEEESF_E6rehashEi
__ZN7CyberCore18SecurityOriginHash4hashEPNS_14SecurityOriginE
__ZN3WTF12StringHasher28addCharactersAssumingAlignedItXadL_ZNS0_16defaultConverterEtEEEEvPKT_j
__ZN3WTF6RefPtrIN6CyberKit14StorageAreaMapEEaSERKNS_10PassRefPtrIS2_EE
__ZN6CyberKit14StorageAreaMap6createEPNS_20StorageNamespaceImplEN3WTF10PassRefPtrIN7CyberCore14SecurityOriginEEE
__ZN6CyberKit14StorageAreaMapC2EPNS_20StorageNamespaceImplEN3WTF10PassRefPtrIN7CyberCore14SecurityOriginEEE
__ZN6CyberKit18SecurityOriginData18fromSecurityOriginEPN7CyberCore14SecurityOriginE
__ZN7CoreIPC10Connection4sendIN8Messages14StorageManager21CreateLocalStorageMapEEEbRKT_yj
__ZNK7CoreIPC10Arguments3IyyRKN6CyberKit18SecurityOriginDataEE6encodeERNS_15ArgumentEncoderE
__ZNK6CyberKit18SecurityOriginData6encodeERN7CoreIPC15ArgumentEncoderE
__ZN6CyberKit15StorageAreaImpl6createEN3WTF10PassRefPtrINS_14StorageAreaMapEEE
__ZN6CyberKit15StorageAreaImpl16canAccessStorageEPN7CyberCore5FrameE
__ZN6CyberKit15StorageAreaImpl20incrementAccessCountEv
__ZN6CyberKit15StorageAreaImpl8containsERKN3WTF6StringE
__ZN6CyberKit14StorageAreaMap8containsERKN3WTF6StringE
__ZN6CyberKit14StorageAreaMap18loadValuesIfNeededEv
__ZN7CoreIPC10Connection8sendSyncIN8Messages14StorageManager9GetValuesEEEbRKT_RKNS5_5ReplyEydj
__ZN6CyberKit14StorageManager17didReceiveMessageEPN7CoreIPC10ConnectionERNS1_14MessageDecoderE
__ZN7CoreIPC13handleMessageIN8Messages14StorageManager21CreateLocalStorageMapEN6CyberKit14StorageManagerEMS5_FvPNS_10ConnectionEyyRKNS4_18SecurityOriginDataEEEEvS7_RNS_14MessageDecoderEPT0_T1_
__ZN7CoreIPC10Arguments3IyyN6CyberKit18SecurityOriginDataEE6decodeERNS_15ArgumentDecoderERS3_
__ZN7CoreIPC10Arguments2IyyE6decodeERNS_15ArgumentDecoderERS1_
__ZN6CyberKit18SecurityOriginData6decodeERN7CoreIPC15ArgumentDecoderERS0_
__ZN6CyberKit14StorageManager21createLocalStorageMapEPN7CoreIPC10ConnectionEyyRKNS_18SecurityOriginDataE
__ZN3WTF8PairHashINS_6RefPtrIN7CoreIPC10ConnectionEEEyE4hashERKNSt3__14pairIS4_yEE
__ZN3WTF17HashMapTranslatorINS_18HashMapValueTraitsINS_10HashTraitsINSt3__14pairINS_6RefPtrIN7CoreIPC10ConnectionEEEyEEEENS2_INS5_IN6CyberKit14StorageManager11StorageAreaEEEEEEENS_8PairHashIS8_yEEE9translateINS_12KeyValuePairIS9_SE_EES9_NS_10PassRefPtrISD_EEEEvRT_RKT0_RKT1_
__ZN6CyberKit14StorageManager32getOrCreateLocalStorageNamespaceEy
__ZN3WTF9HashTableIyNS_12KeyValuePairIyNS_6RefPtrIN6CyberKit14StorageManager21LocalStorageNamespaceEEEEENS_24KeyValuePairKeyExtractorIS7_EENS_7IntHashIyEENS_18HashMapValueTraitsINS_10HashTraitsIyEENSD_IS6_EEEESE_E15deallocateTableEPS7_i
__ZN3WTF9HashTableIyNS_12KeyValuePairIyNS_6RefPtrIN6CyberKit14StorageManager21LocalStorageNamespaceEEEEENS_24KeyValuePairKeyExtractorIS7_EENS_7IntHashIyEENS_18HashMapValueTraitsINS_10HashTraitsIyEENSD_IS6_EEEESE_E16lookupForWritingINS_22IdentityHashTranslatorISB_EEyEENSt3__14pairIPS7_bEERKT0_
__ZN3WTF9HashTableIyNS_12KeyValuePairIyNS_6RefPtrIN6CyberKit14StorageManager21LocalStorageNamespaceEEEEENS_24KeyValuePairKeyExtractorIS7_EENS_7IntHashIyEENS_18HashMapValueTraitsINS_10HashTraitsIyEENSD_IS6_EEEESE_E3addINS_17HashMapTranslatorISG_SB_EEyNS_10PassRefPtrIS5_EEEENS_18HashTableAddResultINS_17HashTableIteratorIyS7_S9_SB_SG_SE_EEEERKT0_RKT1_
__ZN3WTF9HashTableIyNS_12KeyValuePairIyNS_6RefPtrIN6CyberKit14StorageManager21LocalStorageNamespaceEEEEENS_24KeyValuePairKeyExtractorIS7_EENS_7IntHashIyEENS_18HashMapValueTraitsINS_10HashTraitsIyEENSD_IS6_EEEESE_E4findINS_22IdentityHashTranslatorISB_EEyEENS_17HashTableIteratorIyS7_S9_SB_SG_SE_EERKT0_
__ZN3WTF9HashTableIyNS_12KeyValuePairIyNS_6RefPtrIN6CyberKit14StorageManager21LocalStorageNamespaceEEEEENS_24KeyValuePairKeyExtractorIS7_EENS_7IntHashIyEENS_18HashMapValueTraitsINS_10HashTraitsIyEENSD_IS6_EEEESE_E6expandEv
__ZN3WTF9HashTableIyNS_12KeyValuePairIyNS_6RefPtrIN6CyberKit14StorageManager21LocalStorageNamespaceEEEEENS_24KeyValuePairKeyExtractorIS7_EENS_7IntHashIyEENS_18HashMapValueTraitsINS_10HashTraitsIyEENSD_IS6_EEEESE_E6lookupINS_22IdentityHashTranslatorISB_EEyEEPS7_RKT0_
__ZN3WTF9HashTableIyNS_12KeyValuePairIyNS_6RefPtrIN6CyberKit14StorageManager21LocalStorageNamespaceEEEEENS_24KeyValuePairKeyExtractorIS7_EENS_7IntHashIyEENS_18HashMapValueTraitsINS_10HashTraitsIyEENSD_IS6_EEEESE_E6rehashEi
__ZN3WTF9HashTableIyNS_12KeyValuePairIyNS_6RefPtrIN6CyberKit14StorageManager21LocalStorageNamespaceEEEEENS_24KeyValuePairKeyExtractorIS7_EENS_7IntHashIyEENS_18HashMapValueTraitsINS_10HashTraitsIyEENSD_IS6_EEEESE_E6removeEPS7_
__ZNK6CyberKit18SecurityOriginData14securityOriginEv
__ZN6CyberKit14StorageManager21LocalStorageNamespace22getOrCreateStorageAreaEN3WTF10PassRefPtrIN7CyberCore14SecurityOriginEEE
__ZN3WTF6RefPtrIN7CyberCore14SecurityOriginEEaSERKS3_
__ZN6CyberKit14StorageManager11StorageArea6createEPNS0_21LocalStorageNamespaceEN3WTF10PassRefPtrIN7CyberCore14SecurityOriginEEEj
__ZN6CyberKit14StorageManager11StorageArea11addListenerEPN7CoreIPC10ConnectionEy
__ZN6CyberKit14StorageManager21didReceiveSyncMessageEPN7CoreIPC10ConnectionERNS1_14MessageDecoderERN3WTF6OwnPtrINS1_14MessageEncoderEEE
__ZN7CoreIPC13handleMessageIN8Messages14StorageManager9GetValuesEN6CyberKit14StorageManagerEMS5_FvPNS_10ConnectionEyyRN3WTF7HashMapINS8_6StringESA_NS8_10StringHashENS8_10HashTraitsISA_EESD_EEEEEvS7_RNS_14MessageDecoderERNS_14MessageEncoderEPT0_T1_
__ZN6CyberKit14StorageManager9getValuesEPN7CoreIPC10ConnectionEyyRN3WTF7HashMapINS4_6StringES6_NS4_10StringHashENS4_10HashTraitsIS6_EES9_EE
__ZNK6CyberKit14StorageManager15findStorageAreaEPN7CoreIPC10ConnectionEy
__ZN3WTF9HashTableINSt3__14pairINS_6RefPtrIN7CoreIPC10ConnectionEEEyEENS_12KeyValuePairIS7_NS3_IN6CyberKit14StorageManager11StorageAreaEEEEENS_24KeyValuePairKeyExtractorISD_EENS_8PairHashIS6_yEENS_18HashMapValueTraitsINS_10HashTraitsIS7_EENSJ_ISC_EEEESK_E12makeIteratorEPSD_
__ZN3WTF9HashTableINSt3__14pairINS_6RefPtrIN7CoreIPC10ConnectionEEEyEENS_12KeyValuePairIS7_NS3_IN6CyberKit14StorageManager11StorageAreaEEEEENS_24KeyValuePairKeyExtractorISD_EENS_8PairHashIS6_yEENS_18HashMapValueTraitsINS_10HashTraitsIS7_EENSJ_ISC_EEEESK_E15deallocateTableEPSD_i
__ZN3WTF9HashTableINSt3__14pairINS_6RefPtrIN7CoreIPC10ConnectionEEEyEENS_12KeyValuePairIS7_NS3_IN6CyberKit14StorageManager11StorageAreaEEEEENS_24KeyValuePairKeyExtractorISD_EENS_8PairHashIS6_yEENS_18HashMapValueTraitsINS_10HashTraitsIS7_EENSJ_ISC_EEEESK_E16lookupForWritingINS_22IdentityHashTranslatorISH_EES7_EENS2_IPSD_bEERKT0_
__ZN3WTF9HashTableINSt3__14pairINS_6RefPtrIN7CoreIPC10ConnectionEEEyEENS_12KeyValuePairIS7_NS3_IN6CyberKit14StorageManager11StorageAreaEEEEENS_24KeyValuePairKeyExtractorISD_EENS_8PairHashIS6_yEENS_18HashMapValueTraitsINS_10HashTraitsIS7_EENSJ_ISC_EEEESK_E3addINS_17HashMapTranslatorISM_SH_EES7_NS_10PassRefPtrISB_EEEENS_18HashTableAddResultINS_17HashTableIteratorIS7_SD_SF_SH_SM_SK_EEEERKT0_RKT1_
__ZN3WTF9HashTableINSt3__14pairINS_6RefPtrIN7CoreIPC10ConnectionEEEyEENS_12KeyValuePairIS7_NS3_IN6CyberKit14StorageManager11StorageAreaEEEEENS_24KeyValuePairKeyExtractorISD_EENS_8PairHashIS6_yEENS_18HashMapValueTraitsINS_10HashTraitsIS7_EENSJ_ISC_EEEESK_E3addINS_22IdentityHashTranslatorISH_EES7_SD_EENS_18HashTableAddResultINS_17HashTableIteratorIS7_SD_SF_SH_SM_SK_EEEERKT0_RKT1_
__ZN3WTF9HashTableINSt3__14pairINS_6RefPtrIN7CoreIPC10ConnectionEEEyEENS_12KeyValuePairIS7_NS3_IN6CyberKit14StorageManager11StorageAreaEEEEENS_24KeyValuePairKeyExtractorISD_EENS_8PairHashIS6_yEENS_18HashMapValueTraitsINS_10HashTraitsIS7_EENSJ_ISC_EEEESK_E4findINS_22IdentityHashTranslatorISH_EES7_EENS_17HashTableIteratorIS7_SD_SF_SH_SM_SK_EERKT0_
__ZN3WTF9HashTableINSt3__14pairINS_6RefPtrIN7CoreIPC10ConnectionEEEyEENS_12KeyValuePairIS7_NS3_IN6CyberKit14StorageManager11StorageAreaEEEEENS_24KeyValuePairKeyExtractorISD_EENS_8PairHashIS6_yEENS_18HashMapValueTraitsINS_10HashTraitsIS7_EENSJ_ISC_EEEESK_E5beginEv
__ZN3WTF9HashTableINSt3__14pairINS_6RefPtrIN7CoreIPC10ConnectionEEEyEENS_12KeyValuePairIS7_NS3_IN6CyberKit14StorageManager11StorageAreaEEEEENS_24KeyValuePairKeyExtractorISD_EENS_8PairHashIS6_yEENS_18HashMapValueTraitsINS_10HashTraitsIS7_EENSJ_ISC_EEEESK_E6expandEv
__ZN3WTF9HashTableINSt3__14pairINS_6RefPtrIN7CoreIPC10ConnectionEEEyEENS_12KeyValuePairIS7_NS3_IN6CyberKit14StorageManager11StorageAreaEEEEENS_24KeyValuePairKeyExtractorISD_EENS_8PairHashIS6_yEENS_18HashMapValueTraitsINS_10HashTraitsIS7_EENSJ_ISC_EEEESK_E6lookupINS_22IdentityHashTranslatorISH_EES7_EEPSD_RKT0_
__ZN3WTF9HashTableINSt3__14pairINS_6RefPtrIN7CoreIPC10ConnectionEEEyEENS_12KeyValuePairIS7_NS3_IN6CyberKit14StorageManager11StorageAreaEEEEENS_24KeyValuePairKeyExtractorISD_EENS_8PairHashIS6_yEENS_18HashMapValueTraitsINS_10HashTraitsIS7_EENSJ_ISC_EEEESK_E6rehashEi
__ZN3WTF9HashTableINSt3__14pairINS_6RefPtrIN7CoreIPC10ConnectionEEEyEENS_12KeyValuePairIS7_NS3_IN6CyberKit14StorageManager11StorageAreaEEEEENS_24KeyValuePairKeyExtractorISD_EENS_8PairHashIS6_yEENS_18HashMapValueTraitsINS_10HashTraitsIS7_EENSJ_ISC_EEEESK_E6removeEPSD_
__ZN3WTF9HashTableINSt3__14pairINS_6RefPtrIN7CoreIPC10ConnectionEEEyEENS_12KeyValuePairIS7_NS3_IN6CyberKit14StorageManager11StorageAreaEEEEENS_24KeyValuePairKeyExtractorISD_EENS_8PairHashIS6_yEENS_18HashMapValueTraitsINS_10HashTraitsIS7_EENSJ_ISC_EEEESK_EC2ERKSN_
__ZN6CyberKit14StorageManager11StorageArea34openDatabaseAndImportItemsIfNeededEv
__ZN6CyberKit20LocalStorageDatabase6createEN3WTF10PassRefPtrI9WorkQueueEENS2_INS_27LocalStorageDatabaseTrackerEEENS2_IN7CyberCore14SecurityOriginEEE
__ZNK6CyberKit27LocalStorageDatabaseTracker12databasePathEPN7CyberCore14SecurityOriginE
__ZNK3WTF12StringAppendINS_6StringEPKcEcvS1_Ev
__ZN3WTF13tryMakeStringINS_6StringEPKcEENS_10PassRefPtrINS_10StringImplEEET_T0_
__ZN6CyberKit20LocalStorageDatabase11importItemsERN7CyberCore10StorageMapE
__ZN6CyberKit20LocalStorageDatabase12openDatabaseENS0_23DatabaseOpeningStrategyE
__ZN6CyberKit20LocalStorageDatabase17tryToOpenDatabaseENS0_23DatabaseOpeningStrategyE
__ZN6CyberKit20LocalStorageDatabase24migrateItemTableIfNeededEv
__ZN6CyberKit27LocalStorageDatabaseTracker25didOpenDatabaseWithOriginEPN7CyberCore14SecurityOriginE
__ZN6CyberKit27LocalStorageDatabaseTracker31addDatabaseWithOriginIdentifierERKN3WTF6StringES4_
__ZN7CoreIPC10Connection4sendIN8Messages14StorageAreaMap12DidGetValuesEEEbRKT_yj
__ZN6CyberKit15StorageAreaImpl7setItemEPN7CyberCore5FrameERKN3WTF6StringES7_Rb
__ZN6CyberKit14StorageAreaMap7setItemEPN7CyberCore5FrameEPNS_15StorageAreaImplERKN3WTF6StringES9_Rb
__ZN7CoreIPC10Connection4sendIN8Messages14StorageManager7SetItemEEEbRKT_yj
__ZNK7CoreIPC10Arguments6IyyyRKN3WTF6StringES4_S4_E6encodeERNS_15ArgumentEncoderE
__ZNK7CoreIPC10Arguments4IyyyRKN3WTF6StringEE6encodeERNS_15ArgumentEncoderE
__ZN6CyberKit15StorageAreaImpl10removeItemEPN7CyberCore5FrameERKN3WTF6StringE
__ZN6CyberKit14StorageAreaMap10removeItemEPN7CyberCore5FrameEPNS_15StorageAreaImplERKN3WTF6StringE
__ZN7CoreIPC13handleMessageIN8Messages14StorageManager7SetItemEN6CyberKit14StorageManagerEMS5_FvPNS_10ConnectionEyyyRKN3WTF6StringESB_SB_EEEvS7_RNS_14MessageDecoderEPT0_T1_
__ZN7CoreIPC10Connection4sendIN8Messages14StorageManager10RemoveItemEEEbRKT_yj
__ZN7CoreIPC10Arguments6IyyyN3WTF6StringES2_S2_E6decodeERNS_15ArgumentDecoderERS3_
__ZN6CyberKit15StorageAreaImpl4itemERKN3WTF6StringE
__ZN6CyberKit14StorageAreaMap4itemERKN3WTF6StringE
__ZN7CoreIPC10Arguments5IyyyN3WTF6StringES2_E6decodeERNS_15ArgumentDecoderERS3_
__ZN7CoreIPC10Arguments4IyyyN3WTF6StringEE6decodeERNS_15ArgumentDecoderERS3_
__ZN7CoreIPC10Arguments3IyyyE6decodeERNS_15ArgumentDecoderERS1_
__ZN7CoreIPC18callMemberFunctionIN6CyberKit14StorageManagerEMS2_FvPNS_10ConnectionEyyyRKN3WTF6StringES8_S8_EyyyS6_S6_S6_EEvS4_RKNS_10Arguments6IT1_T2_T3_T4_T5_T6_EEPT_T0_
__ZN6CyberKit14StorageManager7setItemEPN7CoreIPC10ConnectionEyyyRKN3WTF6StringES7_S7_
__ZN6CyberKit14StorageManager11StorageArea7setItemEPN7CoreIPC10ConnectionEyRKN3WTF6StringES8_S8_Rb
__ZN6CyberKit20LocalStorageDatabase7setItemERKN3WTF6StringES4_
__ZN6CyberKit20LocalStorageDatabase22scheduleDatabaseUpdateEv
__ZN9WorkQueue18dispatchAfterDelayERKN3WTF8FunctionIFvvEEEd
___copy_helper_block_1
__ZNK6CyberKit14StorageManager11StorageArea14dispatchEventsEPN7CoreIPC10ConnectionEyRKN3WTF6StringES8_S8_S8_
__ZNK3WTF9HashTableINSt3__14pairINS_6RefPtrIN7CoreIPC10ConnectionEEEyEES7_NS_17IdentityExtractorENS_8PairHashIS6_yEENS_10HashTraitsIS7_EESC_E17makeConstIteratorEPS7_
__ZNK3WTF9HashTableINSt3__14pairINS_6RefPtrIN7CoreIPC10ConnectionEEEyEES7_NS_17IdentityExtractorENS_8PairHashIS6_yEENS_10HashTraitsIS7_EESC_E4findINS_22IdentityHashTranslatorISA_EES7_EENS_22HashTableConstIteratorIS7_S7_S8_SA_SC_SC_EERKT0_
__ZNK3WTF9HashTableINSt3__14pairINS_6RefPtrIN7CoreIPC10ConnectionEEEyEES7_NS_17IdentityExtractorENS_8PairHashIS6_yEENS_10HashTraitsIS7_EESC_E5beginEv
__ZN7CoreIPC10Connection4sendIN8Messages14StorageAreaMap20DispatchStorageEventEEEbRKT_yj
__ZN7CoreIPC10Connection4sendIN8Messages14StorageAreaMap10DidSetItemEEEbRKT_yj
__ZN7CoreIPC13handleMessageIN8Messages14StorageManager10RemoveItemEN6CyberKit14StorageManagerEMS5_FvPNS_10ConnectionEyyyRKN3WTF6StringESB_EEEvS7_RNS_14MessageDecoderEPT0_T1_
__ZN7CoreIPC18callMemberFunctionIN6CyberKit14StorageManagerEMS2_FvPNS_10ConnectionEyyyRKN3WTF6StringES8_EyyyS6_S6_EEvS4_RKNS_10Arguments5IT1_T2_T3_T4_T5_EEPT_T0_
__ZN6CyberKit14StorageManager10removeItemEPN7CoreIPC10ConnectionEyyyRKN3WTF6StringES7_
__ZN6CyberKit14StorageManager11StorageArea10removeItemEPN7CoreIPC10ConnectionEyRKN3WTF6StringES8_
__ZN6CyberKit20LocalStorageDatabase10removeItemERKN3WTF6StringE
__ZN7CoreIPC10Connection4sendIN8Messages14StorageAreaMap13DidRemoveItemEEEbRKT_yj
__ZN7CyberCore17FrameLoaderClient10allowImageEbRKNS_4KURLE
__ZThn128_N6CyberKit21WebPlatformStrategies13isLinkVisitedEPN7CyberCore4PageEyRKNS1_4KURLERKN3WTF12AtomicStringE
__ZNK6CyberKit10WebProcess13isLinkVisitedEy
__ZN6CyberKit15WebChromeClient25shouldNotifyOnFormChangesEv
__ZN6CyberKit28InjectedBundlePageFormClient25shouldNotifyOnFormChangesEPNS_7WebPageE
__ZThn328_N6CyberKit21NetworkResourceLoader22willCacheResponseAsyncEPN7CyberCore14ResourceHandleEP19NSCachedURLResponse
__ZN6CyberKit21NetworkResourceLoader22willCacheResponseAsyncEPN7CyberCore14ResourceHandleEP19NSCachedURLResponse
__ZN6CyberKit16DiskCacheMonitor31monitorFileBackingStoreCreationEPK20_CFCachedURLResponsePNS_21NetworkResourceLoaderE
__ZN6CyberKit16DiskCacheMonitorC2EPK20_CFCachedURLResponsePNS_21NetworkResourceLoaderE
__ZN7CyberCore19ResourceRequestBaseC2ERKS0_
__ZN3WTF9RetainPtrI12NSURLRequestEC2ERKS2_
___copy_helper_block_2
__ZN6CyberKitL31tryGetShareableHandleFromCFDataERNS_17ShareableResource6HandleEPK8__CFData
__ZN6CyberKit17ShareableResource6createEN3WTF10PassRefPtrINS_12SharedMemoryEEEjj
__ZN6CyberKit17ShareableResource12createHandleERNS0_6HandleE
__ZN3WTF10RefCountedIN6CyberKit17ShareableResourceEE5derefEv
__ZN6CyberKit17ShareableResourceD1Ev
__ZN6CyberKit12SharedMemoryD1Ev
__ZN6CyberKit12SharedMemoryD2Ev
__ZN7CoreIPC13MessageSender4sendIN8Messages17WebResourceLoader18DidReceiveResourceEEEbRKT_y
__ZNK6CyberKit17ShareableResource6Handle6encodeERN7CoreIPC15ArgumentEncoderE
__ZThn32_N6CyberKit29TiledCoreAnimationDrawingArea11flushLayersEv
_WKCGPathAddRoundedRect
__ZN6CyberKit14StorageAreaMap17didReceiveMessageEPN7CoreIPC10ConnectionERNS1_14MessageDecoderE
__ZN6CyberKit14StorageAreaMap12didGetValuesEy
__ZN7CoreIPC13handleMessageIN8Messages14StorageAreaMap20DispatchStorageEventEN6CyberKit14StorageAreaMapEMS5_FvyRKN3WTF6StringES9_S9_S9_EEEvRNS_14MessageDecoderEPT0_T1_
__ZN7CoreIPC10Arguments5IyN3WTF6StringES2_S2_S2_E6decodeERNS_15ArgumentDecoderERS3_
__ZN6CyberKit14StorageAreaMap20dispatchStorageEventEyRKN3WTF6StringES4_S4_S4_
__ZN6CyberKit14StorageAreaMap25dispatchLocalStorageEventEyRKN3WTF6StringES4_S4_S4_
__ZN6CyberKit10WebProcess12webPageGroupEy
__ZNK3WTF9HashTableIPN7CyberCore4PageES3_NS_17IdentityExtractorENS_7PtrHashIS3_EENS_10HashTraitsIS3_EES8_E5beginEv
__ZN3WTF6VectorINS_6RefPtrIN7CyberCore5FrameEEELm0ENS_15CrashOnOverflowEED2Ev
__ZN7CoreIPC13handleMessageIN8Messages14StorageAreaMap10DidSetItemEN6CyberKit14StorageAreaMapEMS5_FvyRKN3WTF6StringEbEEEvRNS_14MessageDecoderEPT0_T1_
__ZN6CyberKit14StorageAreaMap10didSetItemEyRKN3WTF6StringEb
__ZN3WTF14HashCountedSetINS_6StringENS_10StringHashENS_10HashTraitsIS1_EEE6removeENS_24HashTableIteratorAdapterINS_9HashTableIS1_NS_12KeyValuePairIS1_jEENS_24KeyValuePairKeyExtractorIS9_EES2_NS_18HashMapValueTraitsIS4_NS3_IjEEEES4_EES9_EE
__ZN7CoreIPC13handleMessageIN8Messages14StorageAreaMap13DidRemoveItemEN6CyberKit14StorageAreaMapEMS5_FvyRKN3WTF6StringEEEEvRNS_14MessageDecoderEPT0_T1_
__ZN6CyberKit14StorageAreaMap13didRemoveItemEyRKN3WTF6StringE
__ZN6CyberKit21WebPlatformStrategies20createPluginStrategyEv
__ZThn104_N6CyberKit21WebPlatformStrategies13getPluginInfoEPKN7CyberCore4PageERN3WTF6VectorINS1_10PluginInfoELm0ENS5_15CrashOnOverflowEEE
__ZN6CyberKit21WebPlatformStrategies19populatePluginCacheEv
__ZN7CoreIPC10Connection8sendSyncIN8Messages15WebProcessProxy10GetPluginsEEEbRKT_RKNS5_5ReplyEydj
__ZN7CoreIPC13handleMessageIN8Messages15WebProcessProxy10GetPluginsEN6CyberKit15WebProcessProxyEMS5_FvbRN3WTF6VectorIN7CyberCore10PluginInfoELm0ENS6_15CrashOnOverflowEEEEEEvRNS_14MessageDecoderERNS_14MessageEncoderEPT0_T1_
__ZN6CyberKit15WebProcessProxy10getPluginsEbRN3WTF6VectorIN7CyberCore10PluginInfoELm0ENS1_15CrashOnOverflowEEE
__ZN6CyberKit15PluginInfoStore7pluginsEv
__ZN6CyberKit15PluginInfoStore22loadPluginsIfNecessaryEv
__ZN6CyberKit15PluginInfoStore18pluginsDirectoriesEv
__ZN6CyberKit15PluginInfoStore22pluginPathsInDirectoryERKN3WTF6StringE
__ZN6CyberKitL18safeCreateCFStringERKN3WTF6StringE
__ZN6CyberKitL13addFromVectorIN3WTF11ListHashSetINS1_6StringELm32ENS1_10StringHashEEENS1_6VectorIS3_Lm0ENS1_15CrashOnOverflowEEEEEvRT_RKT0_
__ZN3WTF11ListHashSetINS_6StringELm32ENS_10StringHashEE3addERKS1_
__ZN3WTF9HashTableIPNS_15ListHashSetNodeINS_6StringELm32EEES4_NS_17IdentityExtractorENS_28ListHashSetNodeHashFunctionsINS_10StringHashEEENS_10HashTraitsIS4_EESA_E16lookupForWritingINS_22IdentityHashTranslatorIS8_EES4_EENSt3__14pairIPS4_bEERKT0_
__ZN3WTF9HashTableIPNS_15ListHashSetNodeINS_6StringELm32EEES4_NS_17IdentityExtractorENS_28ListHashSetNodeHashFunctionsINS_10StringHashEEENS_10HashTraitsIS4_EESA_E3addINS_21ListHashSetTranslatorIS7_EES2_PNS_24ListHashSetNodeAllocatorIS2_Lm32EEEEENS_18HashTableAddResultINS_17HashTableIteratorIS4_S4_S5_S8_SA_SA_EEEERKT0_RKT1_
__ZN3WTF9HashTableIPNS_15ListHashSetNodeINS_6StringELm32EEES4_NS_17IdentityExtractorENS_28ListHashSetNodeHashFunctionsINS_10StringHashEEENS_10HashTraitsIS4_EESA_E4findINS_22IdentityHashTranslatorIS8_EES4_EENS_17HashTableIteratorIS4_S4_S5_S8_SA_SA_EERKT0_
__ZN3WTF9HashTableIPNS_15ListHashSetNodeINS_6StringELm32EEES4_NS_17IdentityExtractorENS_28ListHashSetNodeHashFunctionsINS_10StringHashEEENS_10HashTraitsIS4_EESA_E6expandEv
__ZN3WTF9HashTableIPNS_15ListHashSetNodeINS_6StringELm32EEES4_NS_17IdentityExtractorENS_28ListHashSetNodeHashFunctionsINS_10StringHashEEENS_10HashTraitsIS4_EESA_E6lookupINS_22IdentityHashTranslatorIS8_EES4_EEPS4_RKT0_
__ZN3WTF9HashTableIPNS_15ListHashSetNodeINS_6StringELm32EEES4_NS_17IdentityExtractorENS_28ListHashSetNodeHashFunctionsINS_10StringHashEEENS_10HashTraitsIS4_EESA_E6rehashEi
__ZN3WTF21ListHashSetTranslatorINS_10StringHashEE9translateINS_15ListHashSetNodeINS_6StringELm32EEES5_PNS_24ListHashSetNodeAllocatorIS5_Lm32EEEEEvRPT_RKT0_RKT1_
__ZN3WTF24ListHashSetNodeAllocatorINS_6StringELm32EE8allocateEv
__ZN6CyberKit15PluginInfoStore21individualPluginPathsEv
__ZN3WTF6VectorIN6CyberKit16PluginModuleInfoELm0ENS_15CrashOnOverflowEE14shrinkCapacityEm
__ZN6CyberKit15PluginInfoStore10loadPluginERN3WTF6VectorINS_16PluginModuleInfoELm0ENS1_15CrashOnOverflowEEERKNS1_6StringE
__ZN6CyberKit15PluginInfoStore13getPluginInfoERKN3WTF6StringERNS_16PluginModuleInfoE
__ZN6CyberKit20NetscapePluginModule13getPluginInfoERKN3WTF6StringERNS_16PluginModuleInfoE
__ZN3WTF9HashTableIjjNS_17IdentityExtractorENS_7IntHashIjEENS_10HashTraitsIjEES5_E3addINS_22IdentityHashTranslatorIS3_EEjjEENS_18HashTableAddResultINS_17HashTableIteratorIjjS1_S3_S5_S5_EEEERKT0_RKT1_
__ZN3WTF9HashTableIjjNS_17IdentityExtractorENS_7IntHashIjEENS_10HashTraitsIjEES5_E6expandEv
__ZN3WTF9HashTableIjjNS_17IdentityExtractorENS_7IntHashIjEENS_10HashTraitsIjEES5_E6rehashEi
__ZN3WTF9HashTableIjjNS_17IdentityExtractorENS_7IntHashIjEENS_10HashTraitsIjEES5_E6lookupINS_22IdentityHashTranslatorIS3_EEjEEPjRKT0_
__ZN3WTF16VectorBufferBaseIPK10__CFStringE14allocateBufferEm
__ZN3WTF16VectorBufferBaseIPK14__CFDictionaryE14allocateBufferEm
__ZN3WTF6VectorIN7CyberCore13MimeClassInfoELm0ENS_15CrashOnOverflowEE14appendSlowCaseIS2_EEvRKT_
__ZN3WTF6VectorIN7CyberCore13MimeClassInfoELm0ENS_15CrashOnOverflowEE14expandCapacityEmPKS2_
__ZN3WTF6VectorIN7CyberCore13MimeClassInfoELm0ENS_15CrashOnOverflowEE15reserveCapacityEm
__ZN3WTF16VectorBufferBaseIN7CyberCore13MimeClassInfoEE14allocateBufferEm
__ZN3WTF11VectorMoverILb0EN7CyberCore13MimeClassInfoEE4moveEPKS2_S5_PS2_
__ZN3WTF6VectorIPK14__CFDictionaryLm0ENS_15CrashOnOverflowEED1Ev
__ZN3WTF6VectorIPK10__CFStringLm0ENS_15CrashOnOverflowEED1Ev
__ZN6CyberKit15PluginInfoStore15shouldUsePluginERN3WTF6VectorINS_16PluginModuleInfoELm0ENS1_15CrashOnOverflowEEERKS3_
__ZN3WTF6VectorIN6CyberKit16PluginModuleInfoELm0ENS_15CrashOnOverflowEE14appendSlowCaseIS2_EEvRKT_
__ZN3WTF6VectorIN6CyberKit16PluginModuleInfoELm0ENS_15CrashOnOverflowEE14expandCapacityEmPKS2_
__ZN3WTF6VectorIN6CyberKit16PluginModuleInfoELm0ENS_15CrashOnOverflowEE15reserveCapacityEm
__ZN3WTF16VectorBufferBaseIN6CyberKit16PluginModuleInfoEE14allocateBufferEm
__ZN3WTF11VectorMoverILb0EN6CyberKit16PluginModuleInfoEE4moveEPKS2_S5_PS2_
__ZN6CyberKit16PluginModuleInfoC2ERKS0_
__ZN3WTF6VectorIN7CyberCore13MimeClassInfoELm0ENS_15CrashOnOverflowEEC2ERKS4_
__ZN6CyberKit16PluginModuleInfoD2Ev
__ZN3WTF6VectorIN7CyberCore13MimeClassInfoELm0ENS_15CrashOnOverflowEED2Ev
__ZN3WTF6VectorIN7CyberCore13MimeClassInfoELm0ENS_15CrashOnOverflowEE6shrinkEm
__ZN6CyberKitL30findPluginWithBundleIdentifierERKN3WTF6VectorINS_16PluginModuleInfoELm0ENS0_15CrashOnOverflowEEERKNS0_6StringE
__ZN6CyberKitL27contentsOfPropertyListAtURLEPK7__CFURL
__ZN3WTF9RetainPtrIP6NSDataEC2ENS_10AdoptNSTagES2_
__ZN3WTF9RetainPtrI6NSDataEC2IPS1_EERKNS0_IT_EE
__ZThn24_N6CyberKit10WebContext29pluginInfoStoreDidLoadPluginsEPNS_15PluginInfoStoreE
__ZN6CyberKit10WebContext29pluginInfoStoreDidLoadPluginsEPNS_15PluginInfoStoreE
__ZN3WTF6VectorIN6CyberKit16PluginModuleInfoELm0ENS_15CrashOnOverflowEEC2ERKS4_
__ZN3WTF6VectorINS_6RefPtrIN6CyberKit9APIObjectEEELm0ENS_15CrashOnOverflowEE14appendSlowCaseINS_10PassRefPtrINS2_9WebStringEEEEEvRKT_
__ZN3WTF6VectorINS_6RefPtrIN6CyberKit9APIObjectEEELm0ENS_15CrashOnOverflowEE14appendSlowCaseINS_10PassRefPtrINS2_19ImmutableDictionaryEEEEEvRKT_
__ZN6CyberKit16WebContextClient32plugInInformationBecameAvailableEPNS_10WebContextEPNS_14ImmutableArrayE
__ZN3WTF6VectorIN6CyberKit16PluginModuleInfoELm0ENS_15CrashOnOverflowEED2Ev
__ZN3WTF6VectorIN6CyberKit16PluginModuleInfoELm0ENS_15CrashOnOverflowEE6shrinkEm
__ZN3WTF11ListHashSetINS_6StringELm32ENS_10StringHashEED2Ev
__ZN3WTF11ListHashSetINS_6StringELm32ENS_10StringHashEE14deleteAllNodesEv
__ZN3WTF15ListHashSetNodeINS_6StringELm32EE7destroyEPNS_24ListHashSetNodeAllocatorIS1_Lm32EEE
__ZN3WTF6VectorIN7CyberCore10PluginInfoELm0ENS_15CrashOnOverflowEE14appendSlowCaseIS2_EEvRKT_
__ZN3WTF6VectorIN7CyberCore10PluginInfoELm0ENS_15CrashOnOverflowEE14expandCapacityEmPKS2_
__ZN3WTF6VectorIN7CyberCore10PluginInfoELm0ENS_15CrashOnOverflowEE15reserveCapacityEm
__ZN3WTF16VectorBufferBaseIN7CyberCore10PluginInfoEE14allocateBufferEm
__ZN3WTF11VectorMoverILb0EN7CyberCore10PluginInfoEE4moveEPKS2_S5_PS2_
__ZN6CyberKit10WebContext14omitPDFSupportEv
__ZN6CyberKit15SimplePDFPlugin10pluginInfoEv
__ZN3WTF6VectorINS_6StringELm0ENS_15CrashOnOverflowEE14appendSlowCaseIA4_cEEvRKT_
__ZN3WTF6VectorINS_6StringELm0ENS_15CrashOnOverflowEE14appendSlowCaseIA3_cEEvRKT_
__ZN7CoreIPC19VectorArgumentCoderILb0EN7CyberCore10PluginInfoEE6encodeERNS_15ArgumentEncoderERKN3WTF6VectorIS2_Lm0ENS6_15CrashOnOverflowEEE
__ZN7CoreIPC13ArgumentCoderIN7CyberCore10PluginInfoEE6encodeERNS_15ArgumentEncoderERKS2_
__ZN7CoreIPC19VectorArgumentCoderILb0EN7CyberCore13MimeClassInfoEE6encodeERNS_15ArgumentEncoderERKN3WTF6VectorIS2_Lm0ENS6_15CrashOnOverflowEEE
__ZN3WTF6VectorIN7CyberCore10PluginInfoELm0ENS_15CrashOnOverflowEED2Ev
__ZN3WTF6VectorIN7CyberCore10PluginInfoELm0ENS_15CrashOnOverflowEE6shrinkEm
__ZN7CoreIPC19VectorArgumentCoderILb0EN7CyberCore10PluginInfoEE6decodeERNS_15ArgumentDecoderERN3WTF6VectorIS2_Lm0ENS6_15CrashOnOverflowEEE
__ZN7CoreIPC13ArgumentCoderIN7CyberCore10PluginInfoEE6decodeERNS_15ArgumentDecoderERS2_
__ZN7CoreIPC19VectorArgumentCoderILb0EN7CyberCore13MimeClassInfoEE6decodeERNS_15ArgumentDecoderERN3WTF6VectorIS2_Lm0ENS6_15CrashOnOverflowEEE
__ZN7CoreIPC13ArgumentCoderIN7CyberCore13MimeClassInfoEE6decodeERNS_15ArgumentDecoderERS2_
__ZN3WTF6VectorIN7CyberCore13MimeClassInfoELm0ENS_15CrashOnOverflowEE14shrinkCapacityEm
__ZN3WTF6VectorIN7CyberCore10PluginInfoELm0ENS_15CrashOnOverflowEE14shrinkCapacityEm
__ZN3WTF6VectorIN7CyberCore10PluginInfoELm0ENS_15CrashOnOverflowEEaSERKS4_
__ZNK6CyberKit20WebIconDatabaseProxy9isEnabledEv
__ZN6CyberKit20WebFrameLoaderClient11createFrameERKN7CyberCore4KURLERKN3WTF6StringEPNS1_21HTMLFrameOwnerElementES8_bii
__ZN6CyberKit8WebFrame14createSubframeEPNS_7WebPageERKN3WTF6StringEPN7CyberCore21HTMLFrameOwnerElementE
__ZN7CoreIPC13MessageSender4sendIN8Messages12WebPageProxy17DidCreateSubframeEEEbRKT_y
__ZN6CyberKit12WebPageProxy17didCreateSubframeEy
__ZN6CyberKit10WebContext46createNewWebProcessRespectingProcessCountLimitEv
__ZNK6CyberKit25WebFrameNetworkingContext14storageSessionEv
__ZN6CyberKit21WebPlatformStrategies21createCookiesStrategyEv
__ZThn72_N6CyberKit21WebPlatformStrategies13cookiesForDOMERKN7CyberCore21NetworkStorageSessionERKNS1_4KURLES7_
__ZN6CyberKit21WebPlatformStrategies13cookiesForDOMERKN7CyberCore21NetworkStorageSessionERKNS1_4KURLES7_
__ZN7CoreIPC10Connection8sendSyncIN8Messages29NetworkConnectionToWebProcess13CookiesForDOMEEEbRKT_RKNS5_5ReplyEydj
__ZNK7CoreIPC10Arguments3IbRKN7CyberCore4KURLES4_E6encodeERNS_15ArgumentEncoderE
__ZN7CoreIPC13ArgumentCoderIN7CyberCore4KURLEE6encodeERNS_15ArgumentEncoderERKS2_
__ZN6CyberKit29NetworkConnectionToWebProcess21didReceiveSyncMessageEPN7CoreIPC10ConnectionERNS1_14MessageDecoderERN3WTF6OwnPtrINS1_14MessageEncoderEEE
__ZN6CyberKit29NetworkConnectionToWebProcess50didReceiveSyncNetworkConnectionToWebProcessMessageEPN7CoreIPC10ConnectionERNS1_14MessageDecoderERN3WTF6OwnPtrINS1_14MessageEncoderEEE
__ZN7CoreIPC13handleMessageIN8Messages29NetworkConnectionToWebProcess13CookiesForDOMEN6CyberKit29NetworkConnectionToWebProcessEMS5_FvbRKN7CyberCore4KURLES9_RN3WTF6StringEEEEvRNS_14MessageDecoderERNS_14MessageEncoderEPT0_T1_
__ZN7CoreIPC10Arguments3IbN7CyberCore4KURLES2_E6decodeERNS_15ArgumentDecoderERS3_
__ZN7CoreIPC10Arguments2IbN7CyberCore4KURLEE6decodeERNS_15ArgumentDecoderERS3_
__ZN7CoreIPC13ArgumentCoderIN7CyberCore4KURLEE6decodeERNS_15ArgumentDecoderERS2_
__ZN6CyberKit29NetworkConnectionToWebProcess13cookiesForDOMEbRKN7CyberCore4KURLES4_RN3WTF6StringE
__ZN6CyberKitL14storageSessionEb
__ZThn72_N6CyberKit21WebPlatformStrategies17setCookiesFromDOMERKN7CyberCore21NetworkStorageSessionERKNS1_4KURLES7_RKN3WTF6StringE
__ZN6CyberKit21WebPlatformStrategies17setCookiesFromDOMERKN7CyberCore21NetworkStorageSessionERKNS1_4KURLES7_RKN3WTF6StringE
__ZN7CoreIPC10Connection4sendIN8Messages29NetworkConnectionToWebProcess17SetCookiesFromDOMEEEbRKT_yj
__ZN7CoreIPC13handleMessageIN8Messages29NetworkConnectionToWebProcess17SetCookiesFromDOMEN6CyberKit29NetworkConnectionToWebProcessEMS5_FvbRKN7CyberCore4KURLES9_RKN3WTF6StringEEEEvRNS_14MessageDecoderEPT0_T1_
__ZN7CoreIPC10Arguments4IbN7CyberCore4KURLES2_N3WTF6StringEE6decodeERNS_15ArgumentDecoderERS5_
__ZN6CyberKit29NetworkConnectionToWebProcess17setCookiesFromDOMEbRKN7CyberCore4KURLES4_RKN3WTF6StringE
_WKSetHTTPCookiesForURL
_WKDataCreate
__ZN6CyberKit7WebData6createEPKhm
_WKPageRestoreFromSessionState
__ZN6CyberKit12WebPageProxy27restoreFromSessionStateDataEPNS_7WebDataE
__ZN6CyberKitL17SessionHistoryKeyEv
__ZN6CyberKitL17ProvisionalURLKeyEv
__ZN6CyberKit18WebBackForwardList37restoreFromCFDictionaryRepresentationEPK14__CFDictionary
__ZN6CyberKitL24SessionHistoryVersionKeyEv
__ZN6CyberKit18WebBackForwardList39restoreFromV1CFDictionaryRepresentationEPK14__CFDictionary
__ZN6CyberKitL29SessionHistoryCurrentIndexKeyEv
__ZN6CyberKitL24SessionHistoryEntriesKeyEv
__ZN6CyberKitL38extractBackForwardListEntriesFromArrayEPK9__CFArrayRN3WTF6VectorINS3_6RefPtrINS_22WebBackForwardListItemEEELm0ENS3_15CrashOnOverflowEEE
__ZN6CyberKitL25SessionHistoryEntryURLKeyEv
__ZN6CyberKitL27SessionHistoryEntryTitleKeyEv
__ZN6CyberKitL33SessionHistoryEntryOriginalURLKeyEv
__ZN6CyberKitL26SessionHistoryEntryDataKeyEv
__ZN3WTF6VectorINS_6RefPtrIN6CyberKit22WebBackForwardListItemEEELm0ENS_15CrashOnOverflowEEaSERKS6_
__ZN3WTF16VectorDestructorILb1ENS_6RefPtrIN6CyberKit22WebBackForwardListItemEEEE8destructEPS4_S6_
__ZN6CyberKit15WebProcessProxy33registerNewWebBackForwardListItemEPNS_22WebBackForwardListItemE
__ZN3WTF7HashMapIyNS_6RefPtrIN6CyberKit22WebBackForwardListItemEEENS_7IntHashIyEENS_10HashTraitsIyEENS7_IS4_EEE3setERKyNS_10PassRefPtrIS3_EE
__ZN6CyberKit17ChildProcessProxy4sendIN8Messages7WebPage38RestoreSessionAndNavigateToCurrentItemEEEbRKT_yj
__ZNK6CyberKit22WebBackForwardListItem6encodeERN7CoreIPC15ArgumentEncoderE
_WKBackForwardListGetBackListCount
__ZNK6CyberKit18WebBackForwardList13backListCountEv
_WKBackForwardListGetForwardListCount
__ZNK6CyberKit18WebBackForwardList16forwardListCountEv
_WKBackForwardListGetItemAtIndex
_WKBackForwardListItemCopyURL
_WKBackForwardListItemCopyOriginalURL
__ZN6CyberKit7WebDataD0Ev
__ZN6CyberKit7WebData13fastFreeBytesEPhPKv
-[WKView _windowDidMove:]
__ZN7CoreIPC13MessageSender4sendIN8Messages12WebPageProxy31DidChangeScrollbarsForMainFrameEEEbRKT_y
__ZN7CoreIPC13handleMessageIN8Messages12WebPageProxy31DidChangeScrollbarsForMainFrameEN6CyberKit12WebPageProxyEMS5_FvbbEEEvRNS_14MessageDecoderEPT0_T1_
__ZN7CoreIPC10Arguments2IbbE6decodeERNS_15ArgumentDecoderERS1_
__ZN6CyberKit12WebPageProxy31didChangeScrollbarsForMainFrameEbb
__ZN6CyberKit30InjectedBundlePageLoaderClient38didFirstVisuallyNonEmptyLayoutForFrameEPNS_7WebPageEPNS_8WebFrameERN3WTF6RefPtrINS_9APIObjectEEE
__ZN7CoreIPC13MessageSender4sendIN8Messages12WebPageProxy38DidFirstVisuallyNonEmptyLayoutForFrameEEEbRKT_y
__ZN6CyberKit12WebPageProxy38didFirstVisuallyNonEmptyLayoutForFrameEyRN7CoreIPC14MessageDecoderE
__ZN6CyberKit15WebLoaderClient38didFirstVisuallyNonEmptyLayoutForFrameEPNS_12WebPageProxyEPNS_13WebFrameProxyEPNS_9APIObjectE
-[WKView _windowDidResignKey:]
__ZNK6CyberKit23RemoteNetworkingContext31localFileContentSniffingEnabledEv
__ZThn120_N6CyberKit21WebPlatformStrategies23sessionStorageNamespaceEPN7CyberCore4PageE
__ZN6CyberKit20StorageNamespaceImpl29createSessionStorageNamespaceEPNS_7WebPageE
__ZN7CoreIPC10Connection4sendIN8Messages14StorageManager23CreateSessionStorageMapEEEbRKT_yj
__ZN7CoreIPC13handleMessageIN8Messages14StorageManager23CreateSessionStorageMapEN6CyberKit14StorageManagerEMS5_FvPNS_10ConnectionEyyRKNS4_18SecurityOriginDataEEEEvS7_RNS_14MessageDecoderEPT0_T1_
__ZN6CyberKit14StorageManager23createSessionStorageMapEPN7CoreIPC10ConnectionEyyRKNS_18SecurityOriginDataE
__ZN6CyberKit14StorageManager23SessionStorageNamespace22getOrCreateStorageAreaEN3WTF10PassRefPtrIN7CyberCore14SecurityOriginEEE
__ZN3WTF17HashMapTranslatorINS_22KeyValuePairHashTraitsINS_10HashTraitsINS_6RefPtrIN7CyberCore14SecurityOriginEEEEENS2_INS3_IN6CyberKit14StorageAreaMapEEEEEEENS4_18SecurityOriginHashEE5equalIS6_PS5_EEbRKT_RKT0_
__ZN3WTF17HashMapTranslatorINS_22KeyValuePairHashTraitsINS_10HashTraitsINS_6RefPtrIN7CyberCore14SecurityOriginEEEEENS2_INS3_IN6CyberKit14StorageAreaMapEEEEEEENS4_18SecurityOriginHashEE9translateINS_12KeyValuePairIS6_SA_EEPS5_NS_10PassRefPtrIS9_EEEEvRT_RKT0_RKT1_
__ZN3WTF17HashMapTranslatorINS_22KeyValuePairHashTraitsINS_10HashTraitsINS_6RefPtrIN7CyberCore14SecurityOriginEEEEENS2_INS3_IN6CyberKit14StorageManager11StorageAreaEEEEEEENS4_18SecurityOriginHashEE9translateINS_12KeyValuePairIS6_SB_EES6_NS_10PassRefPtrISA_EEEEvRT_RKT0_RKT1_
_WKExecutableWasLinkedOnOrBeforeSnowLeopard
__ZN3WTF9HashTableIyNS_12KeyValuePairIyPN6CyberKit12WebPageProxyEEENS_24KeyValuePairKeyExtractorIS5_EENS_7IntHashIyEENS_18HashMapValueTraitsINS_10HashTraitsIyEENSB_IS4_EEEESC_E16lookupForWritingINS_22IdentityHashTranslatorIS9_EEyEENSt3__14pairIPS5_bEERKT0_
__ZN3WTF9HashTableIyNS_12KeyValuePairIyPN6CyberKit12WebPageProxyEEENS_24KeyValuePairKeyExtractorIS5_EENS_7IntHashIyEENS_18HashMapValueTraitsINS_10HashTraitsIyEENSB_IS4_EEEESC_E3addINS_17HashMapTranslatorISE_S9_EEyS4_EENS_18HashTableAddResultINS_17HashTableIteratorIyS5_S7_S9_SE_SC_EEEERKT0_RKT1_
__ZN3WTF9HashTableIyNS_12KeyValuePairIyPN6CyberKit12WebPageProxyEEENS_24KeyValuePairKeyExtractorIS5_EENS_7IntHashIyEENS_18HashMapValueTraitsINS_10HashTraitsIyEENSB_IS4_EEEESC_E4findINS_22IdentityHashTranslatorIS9_EEyEENS_17HashTableIteratorIyS5_S7_S9_SE_SC_EERKT0_
__ZN3WTF9HashTableIyNS_12KeyValuePairIyPN6CyberKit12WebPageProxyEEENS_24KeyValuePairKeyExtractorIS5_EENS_7IntHashIyEENS_18HashMapValueTraitsINS_10HashTraitsIyEENSB_IS4_EEEESC_E6expandEv
__ZN3WTF9HashTableIyNS_12KeyValuePairIyPN6CyberKit12WebPageProxyEEENS_24KeyValuePairKeyExtractorIS5_EENS_7IntHashIyEENS_18HashMapValueTraitsINS_10HashTraitsIyEENSB_IS4_EEEESC_E6lookupINS_22IdentityHashTranslatorIS9_EEyEEPS5_RKT0_
__ZN3WTF9HashTableIyNS_12KeyValuePairIyPN6CyberKit12WebPageProxyEEENS_24KeyValuePairKeyExtractorIS5_EENS_7IntHashIyEENS_18HashMapValueTraitsINS_10HashTraitsIyEENSB_IS4_EEEESC_E6rehashEi
__ZN3WTF9HashTableIyNS_12KeyValuePairIyPN6CyberKit12WebPageProxyEEENS_24KeyValuePairKeyExtractorIS5_EENS_7IntHashIyEENS_18HashMapValueTraitsINS_10HashTraitsIyEENSB_IS4_EEEESC_E6removeEPS5_
__ZN6CyberKit20WebFrameLoaderClient29dispatchDidFinishDocumentLoadEv
__ZN6CyberKit30InjectedBundlePageLoaderClient29didFinishDocumentLoadForFrameEPNS_7WebPageEPNS_8WebFrameERN3WTF6RefPtrINS_9APIObjectEEE
__ZN7CoreIPC13MessageSender4sendIN8Messages12WebPageProxy29DidFinishDocumentLoadForFrameEEEbRKT_y
__ZN6CyberKit12WebPageProxy29didFinishDocumentLoadForFrameEyRN7CoreIPC14MessageDecoderE
__ZN6CyberKit15WebLoaderClient29didFinishDocumentLoadForFrameEPNS_12WebPageProxyEPNS_13WebFrameProxyEPNS_9APIObjectE
__ZN7CoreIPC13handleMessageIN8Messages17WebResourceLoader18DidReceiveResourceEN6CyberKit17WebResourceLoaderEMS5_FvRKNS4_17ShareableResource6HandleEdEEEvRNS_14MessageDecoderEPT0_T1_
__ZN7CoreIPC10Arguments2IN6CyberKit17ShareableResource6HandleEdE6decodeERNS_15ArgumentDecoderERS4_
__ZN6CyberKit17ShareableResource6Handle6decodeERN7CoreIPC15ArgumentDecoderERS1_
__ZN6CyberKit17WebResourceLoader18didReceiveResourceERKNS_17ShareableResource6HandleEd
__ZNK6CyberKit17ShareableResource6Handle21tryWrapInSharedBufferEv
__ZN6CyberKit17ShareableResource6createERKNS0_6HandleE
__ZN3WTF10RefCountedIN7CyberCore12SharedBufferEE5derefEv
__ZN7CyberCore7RunLoop5TimerIN6CyberKit7WebPageEE5firedEv
__ZN6CyberKit7WebPage26setCanStartMediaTimerFiredEv
__ZN3WTF9HashTableIPN6CyberKit12WebPageProxyES3_NS_17IdentityExtractorENS_7PtrHashIS3_EENS_10HashTraitsIS3_EES8_E16lookupForWritingINS_22IdentityHashTranslatorIS6_EES3_EENSt3__14pairIPS3_bEERKT0_
__ZN3WTF9HashTableIPN6CyberKit12WebPageProxyES3_NS_17IdentityExtractorENS_7PtrHashIS3_EENS_10HashTraitsIS3_EES8_E4findINS_22IdentityHashTranslatorIS6_EES3_EENS_17HashTableIteratorIS3_S3_S4_S6_S8_S8_EERKT0_
__ZN3WTF9HashTableIPN6CyberKit12WebPageProxyES3_NS_17IdentityExtractorENS_7PtrHashIS3_EENS_10HashTraitsIS3_EES8_E6lookupINS_22IdentityHashTranslatorIS6_EES3_EEPS3_RKT0_
__ZN3WTF9HashTableIyNS_12KeyValuePairIyNS_6RefPtrIN6CyberKit14StorageManager23SessionStorageNamespaceEEEEENS_24KeyValuePairKeyExtractorIS7_EENS_7IntHashIyEENS_18HashMapValueTraitsINS_10HashTraitsIyEENSD_IS6_EEEESE_E15deallocateTableEPS7_i
__ZN3WTF9HashTableIyNS_12KeyValuePairIyNS_6RefPtrIN6CyberKit14StorageManager23SessionStorageNamespaceEEEEENS_24KeyValuePairKeyExtractorIS7_EENS_7IntHashIyEENS_18HashMapValueTraitsINS_10HashTraitsIyEENSD_IS6_EEEESE_E16lookupForWritingINS_22IdentityHashTranslatorISB_EEyEENSt3__14pairIPS7_bEERKT0_
__ZN3WTF9HashTableIyNS_12KeyValuePairIyNS_6RefPtrIN6CyberKit14StorageManager23SessionStorageNamespaceEEEEENS_24KeyValuePairKeyExtractorIS7_EENS_7IntHashIyEENS_18HashMapValueTraitsINS_10HashTraitsIyEENSD_IS6_EEEESE_E3addINS_17HashMapTranslatorISG_SB_EEyNS_10PassRefPtrIS5_EEEENS_18HashTableAddResultINS_17HashTableIteratorIyS7_S9_SB_SG_SE_EEEERKT0_RKT1_
__ZN3WTF9HashTableIyNS_12KeyValuePairIyNS_6RefPtrIN6CyberKit14StorageManager23SessionStorageNamespaceEEEEENS_24KeyValuePairKeyExtractorIS7_EENS_7IntHashIyEENS_18HashMapValueTraitsINS_10HashTraitsIyEENSD_IS6_EEEESE_E4findINS_22IdentityHashTranslatorISB_EEyEENS_17HashTableIteratorIyS7_S9_SB_SG_SE_EERKT0_
__ZN3WTF9HashTableIyNS_12KeyValuePairIyNS_6RefPtrIN6CyberKit14StorageManager23SessionStorageNamespaceEEEEENS_24KeyValuePairKeyExtractorIS7_EENS_7IntHashIyEENS_18HashMapValueTraitsINS_10HashTraitsIyEENSD_IS6_EEEESE_E6expandEv
__ZN3WTF9HashTableIyNS_12KeyValuePairIyNS_6RefPtrIN6CyberKit14StorageManager23SessionStorageNamespaceEEEEENS_24KeyValuePairKeyExtractorIS7_EENS_7IntHashIyEENS_18HashMapValueTraitsINS_10HashTraitsIyEENSD_IS6_EEEESE_E6lookupINS_22IdentityHashTranslatorISB_EEyEEPS7_RKT0_
__ZN3WTF9HashTableIyNS_12KeyValuePairIyNS_6RefPtrIN6CyberKit14StorageManager23SessionStorageNamespaceEEEEENS_24KeyValuePairKeyExtractorIS7_EENS_7IntHashIyEENS_18HashMapValueTraitsINS_10HashTraitsIyEENSD_IS6_EEEESE_E6rehashEi
__ZN3WTF9HashTableIyNS_12KeyValuePairIyNS_6RefPtrIN6CyberKit14StorageManager23SessionStorageNamespaceEEEEENS_24KeyValuePairKeyExtractorIS7_EENS_7IntHashIyEENS_18HashMapValueTraitsINS_10HashTraitsIyEENSD_IS6_EEEESE_E6removeEPS7_
__ZN6CyberKit14StorageAreaMap27dispatchSessionStorageEventEyRKN3WTF6StringES4_S4_S4_
__ZNK6CyberKit10WebProcess7webPageEy
__ZN6CyberKit7WebPage32didUpdateInWindowStateTimerFiredEv
__ZN7CoreIPC13MessageSender4sendIN8Messages12WebPageProxy22DidUpdateInWindowStateEEEbRKT_y
__ZThn328_N6CyberKit21NetworkResourceLoader20willSendRequestAsyncEPN7CyberCore14ResourceHandleERKNS1_15ResourceRequestERKNS1_16ResourceResponseE
__ZN6CyberKit21NetworkResourceLoader20willSendRequestAsyncEPN7CyberCore14ResourceHandleERKNS1_15ResourceRequestERKNS1_16ResourceResponseE
__ZN6CyberKit21NetworkResourceLoader21sendAbortingOnFailureIN8Messages17WebResourceLoader15WillSendRequestEEEbRKT_j
__ZN7CoreIPC10Connection4sendIN8Messages17WebResourceLoader15WillSendRequestEEEbRKT_yj
-[WKView(Private) disableFrameSizeUpdates]
_WKBundlePageGetMainFrame
_WKBundleFrameContainsAnyFormElements
__ZNK6CyberKit8WebFrame23containsAnyFormElementsEv
-[WKView(Private) enableFrameSizeUpdates]
_WKPageSetMaintainsInactiveSelection
__ZN6CyberKit12WebPageProxy29setMaintainsInactiveSelectionEb
-[WKView(Private) beginDeferringViewInWindowChanges]
-[WKView inputContext]
___destroy_helper_block_407
_WKBundleNodeHandleCreate
__ZN6CyberKit24InjectedBundleNodeHandle11getOrCreateEPK15OpaqueJSContextP13OpaqueJSValue
__ZN6CyberKit24InjectedBundleNodeHandle11getOrCreateEPN7CyberCore4NodeE
__ZN6CyberKitL14domHandleCacheEv
__ZN6CyberKit24InjectedBundleNodeHandle6createEPN7CyberCore4NodeE
_WKBundleNodeHandleGetElementBounds
__ZNK6CyberKit24InjectedBundleNodeHandle13elementBoundsEv
_WKBundleNodeHandleGetHTMLInputElementAutofilled
__ZNK6CyberKit24InjectedBundleNodeHandle28isHTMLInputElementAutofilledEv
__ZNK6CyberKit14TypedAPIObjectILNS_9APIObject4TypeE74EE4typeEv
__ZN7CoreIPC10Connection4sendIN8Messages10WebContext18AddVisitedLinkHashEEEbRKT_yj
__ZN6CyberKit9WebNumberIdLNS_9APIObject4TypeE26EE6createEd
_WKDoubleGetValue
-[WKView(Private) endDeferringViewInWindowChangesSync]
-[WKView(Private) endDeferringViewInWindowChanges]
__ZN6CyberKit12WebPageProxy29waitForDidUpdateInWindowStateEv
_WKPageSetMayStartMediaWhenInWindow
__ZN6CyberKit12WebPageProxy28setMayStartMediaWhenInWindowEb
__ZN6CyberKit24InjectedBundleNodeHandleD0Ev
__ZN6CyberKit24InjectedBundleNodeHandleD2Ev
__ZN3WTF7HashMapIPN7CyberCore4NodeEPN6CyberKit24InjectedBundleNodeHandleENS_7PtrHashIS3_EENS_10HashTraitsIS3_EENS9_IS6_EEE6removeERKS3_
__ZN3WTF9HashTableIPN7CyberCore4NodeENS_12KeyValuePairIS3_PN6CyberKit24InjectedBundleNodeHandleEEENS_24KeyValuePairKeyExtractorIS8_EENS_7PtrHashIS3_EENS_18HashMapValueTraitsINS_10HashTraitsIS3_EENSE_IS7_EEEESF_E16lookupForWritingINS_22IdentityHashTranslatorISC_EES3_EENSt3__14pairIPS8_bEERKT0_
__ZN3WTF9HashTableIPN7CyberCore4NodeENS_12KeyValuePairIS3_PN6CyberKit24InjectedBundleNodeHandleEEENS_24KeyValuePairKeyExtractorIS8_EENS_7PtrHashIS3_EENS_18HashMapValueTraitsINS_10HashTraitsIS3_EENSE_IS7_EEEESF_E3addINS_17HashMapTranslatorISH_SC_EES3_S7_EENS_18HashTableAddResultINS_17HashTableIteratorIS3_S8_SA_SC_SH_SF_EEEERKT0_RKT1_
__ZN3WTF9HashTableIPN7CyberCore4NodeENS_12KeyValuePairIS3_PN6CyberKit24InjectedBundleNodeHandleEEENS_24KeyValuePairKeyExtractorIS8_EENS_7PtrHashIS3_EENS_18HashMapValueTraitsINS_10HashTraitsIS3_EENSE_IS7_EEEESF_E4findINS_22IdentityHashTranslatorISC_EES3_EENS_17HashTableIteratorIS3_S8_SA_SC_SH_SF_EERKT0_
__ZN3WTF9HashTableIPN7CyberCore4NodeENS_12KeyValuePairIS3_PN6CyberKit24InjectedBundleNodeHandleEEENS_24KeyValuePairKeyExtractorIS8_EENS_7PtrHashIS3_EENS_18HashMapValueTraitsINS_10HashTraitsIS3_EENSE_IS7_EEEESF_E6expandEv
__ZN3WTF9HashTableIPN7CyberCore4NodeENS_12KeyValuePairIS3_PN6CyberKit24InjectedBundleNodeHandleEEENS_24KeyValuePairKeyExtractorIS8_EENS_7PtrHashIS3_EENS_18HashMapValueTraitsINS_10HashTraitsIS3_EENSE_IS7_EEEESF_E6lookupINS_22IdentityHashTranslatorISC_EES3_EEPS8_RKT0_
__ZN3WTF9HashTableIPN7CyberCore4NodeENS_12KeyValuePairIS3_PN6CyberKit24InjectedBundleNodeHandleEEENS_24KeyValuePairKeyExtractorIS8_EENS_7PtrHashIS3_EENS_18HashMapValueTraitsINS_10HashTraitsIS3_EENSE_IS7_EEEESF_E6rehashEi
__ZN3WTF9HashTableIPN7CyberCore4NodeENS_12KeyValuePairIS3_PN6CyberKit24InjectedBundleNodeHandleEEENS_24KeyValuePairKeyExtractorIS8_EENS_7PtrHashIS3_EENS_18HashMapValueTraitsINS_10HashTraitsIS3_EENSE_IS7_EEEESF_E6removeEPS8_
__ZN7CyberCore10TreeSharedINS_4NodeEE5derefEv
__ZN7CoreIPC13handleMessageIN8Messages17WebResourceLoader15WillSendRequestEN6CyberKit17WebResourceLoaderEMS5_FvRKN7CyberCore15ResourceRequestERKNS6_16ResourceResponseEEEEvRNS_14MessageDecoderEPT0_T1_
__ZN7CoreIPC10Arguments2IN7CyberCore15ResourceRequestENS1_16ResourceResponseEE6decodeERNS_15ArgumentDecoderERS4_
__ZN6CyberKit17WebResourceLoader15willSendRequestERKN7CyberCore15ResourceRequestERKNS1_16ResourceResponseE
__ZNK6CyberKit14TypedAPIObjectILNS_9APIObject4TypeE43EE4typeEv
__ZN6CyberKit24WebResourceLoadScheduler27crossOriginRedirectReceivedEPN7CyberCore14ResourceLoaderERKNS1_4KURLE
__ZN7CoreIPC13MessageSender4sendIN8Messages21NetworkResourceLoader23ContinueWillSendRequestEEEbRKT_y
__ZN6CyberKit10WebContext27didReceiveWebContextMessageEPN7CoreIPC10ConnectionERNS1_14MessageDecoderE
__ZN6CyberKit10WebContext18addVisitedLinkHashEy
__ZN7CoreIPC13handleMessageIN8Messages21NetworkResourceLoader23ContinueWillSendRequestEN6CyberKit21NetworkResourceLoaderEMS5_FvRKN7CyberCore15ResourceRequestEEEEvRNS_14MessageDecoderEPT0_T1_
__ZN6CyberKit21NetworkResourceLoader23continueWillSendRequestERKN7CyberCore15ResourceRequestE
__ZN3WTF4bindIMN6CyberKit28NetworkResourceLoadSchedulerEFvPNS1_17SchedulableLoaderERKN7CyberCore4KURLEEPS2_PNS1_21NetworkResourceLoaderES6_EENS_8FunctionIFNS_15FunctionWrapperIT_E10ResultTypeEvEEESG_RKT0_RKT1_RKT2_
__ZN6CyberKit28NetworkResourceLoadScheduler16receivedRedirectEPNS_17SchedulableLoaderERKN7CyberCore4KURLE
__ZN6CyberKit10HostRecord19addLoaderInProgressEPNS_17SchedulableLoaderE
__ZN6CyberKit20WebFrameLoaderClient29dispatchDidHandleOnloadEventsEv
__ZN6CyberKit30InjectedBundlePageLoaderClient29didHandleOnloadEventsForFrameEPNS_7WebPageEPNS_8WebFrameE
__ZN6CyberKit20WebFrameLoaderClient21dispatchDidFinishLoadEv
__ZN6CyberKit30InjectedBundlePageLoaderClient21didFinishLoadForFrameEPNS_7WebPageEPNS_8WebFrameERN3WTF6RefPtrINS_9APIObjectEEE
__ZN7CoreIPC13MessageSender4sendIN8Messages12WebPageProxy21DidFinishLoadForFrameEEEbRKT_y
__ZN6CyberKit7WebPage13didFinishLoadEPNS_8WebFrameE
__ZNK6CyberKit10WebProcess8webFrameEy
_WKBundleFrameGetTypeID
_WKBundleScriptWorldClearWrappers
__ZN6CyberKit25InjectedBundleScriptWorld13clearWrappersEv
__ZN6CyberKit25InjectedBundleScriptWorldD0Ev
__ZN6CyberKit25InjectedBundleScriptWorldD2Ev
__ZN3WTF7HashMapIPN7CyberCore15DOMWrapperWorldEPN6CyberKit25InjectedBundleScriptWorldENS_7PtrHashIS3_EENS_10HashTraitsIS3_EENS9_IS6_EEE6removeERKS3_
__ZN3WTF10RefCountedIN7CyberCore15DOMWrapperWorldEE5derefEv
__ZN6CyberKit20WebIconDatabaseProxy24supportsAsynchronousModeEv
__ZN6CyberKit20WebIconDatabaseProxy22loadDecisionForIconURLERKN3WTF6StringENS1_10PassRefPtrIN7CyberCore12EnumCallbackINS6_16IconLoadDecisionEEEEE
__ZN3WTF17HashMapTranslatorINS_18HashMapValueTraitsINS_10HashTraitsIyEENS2_INS_6RefPtrIN7CyberCore12EnumCallbackINS5_16IconLoadDecisionEEEEEEEEENS_7IntHashIyEEE9translateINS_12KeyValuePairIyS9_EEyNS_10PassRefPtrIS8_EEEEvRT_RKT0_RKT1_
__ZN3WTF6RefPtrIN7CyberCore12EnumCallbackINS1_16IconLoadDecisionEEEEaSERKNS_10PassRefPtrIS4_EE
__ZN7CoreIPC10Connection4sendIN8Messages15WebIconDatabase25GetLoadDecisionForIconURLEEEbRKT_yj
__ZN6CyberKit20WebIconDatabaseProxy20setIconURLForPageURLERKN3WTF6StringES4_
__ZN7CoreIPC10Connection4sendIN8Messages15WebIconDatabase20SetIconURLForPageURLEEEbRKT_yj
__ZN6CyberKit12WebPageProxy21didFinishLoadForFrameEyRN7CoreIPC14MessageDecoderE
__ZN6CyberKit13WebFrameProxy13didFinishLoadEv
__ZN6CyberKit15WebLoaderClient21didFinishLoadForFrameEPNS_12WebPageProxyEPNS_13WebFrameProxyEPNS_9APIObjectE
__ZN7CoreIPC13handleMessageIN8Messages15WebIconDatabase25GetLoadDecisionForIconURLEN6CyberKit15WebIconDatabaseEMS5_FvRKN3WTF6StringEyEEEvRNS_14MessageDecoderEPT0_T1_
__ZN7CoreIPC10Arguments2IN3WTF6StringEyE6decodeERNS_15ArgumentDecoderERS3_
__ZN6CyberKit15WebIconDatabase25getLoadDecisionForIconURLERKN3WTF6StringEy
__ZN6CyberKit17ChildProcessProxy4sendIN8Messages20WebIconDatabaseProxy24ReceivedIconLoadDecisionEEEbRKT_yj
__ZN7CoreIPC13handleMessageIN8Messages15WebIconDatabase20SetIconURLForPageURLEN6CyberKit15WebIconDatabaseEMS5_FvRKN3WTF6StringES9_EEEvRNS_14MessageDecoderEPT0_T1_
__ZN7CoreIPC10Arguments2IN3WTF6StringES2_E6decodeERNS_15ArgumentDecoderERS3_
__ZN6CyberKit15WebIconDatabase20setIconURLForPageURLERKN3WTF6StringES4_
__ZN6CyberKit17ChildProcessProxy4sendIN8Messages10WebProcess23VisitedLinkStateChangedEEEbRKT_yj
__ZN6CyberKit15WebChromeClient19addMessageToConsoleEN7CyberCore13MessageSourceENS1_12MessageLevelERKN3WTF6StringEjjS7_
__ZN6CyberKit26InjectedBundlePageUIClient23willAddMessageToConsoleEPNS_7WebPageERKN3WTF6StringEi
__ZN6CyberKit20WebFrameLoaderClient17objectContentTypeERKN7CyberCore4KURLERKN3WTF6StringEb
__ZNK3WTF6VectorINS_6StringELm0ENS_15CrashOnOverflowEE4findIS1_EEmRKT_
__ZN6CyberKit20WebFrameLoaderClient32postProgressFinishedNotificationEv
__ZN6CyberKit30InjectedBundlePageLoaderClient17didFinishProgressEPNS_7WebPageE
__ZN7CoreIPC13MessageSender4sendIN8Messages12WebPageProxy17DidFinishProgressEEEbRKT_y
__ZN6CyberKit12WebPageProxy17didFinishProgressEv
__ZN6CyberKit15WebLoaderClient17didFinishProgressEPNS_12WebPageProxyE
-[WKView hitTest:]
____ZN9WorkQueue18dispatchAfterDelayERKN3WTF8FunctionIFvvEEEd_block_invoke
__ZN3WTF17BoundFunctionImplINS_15FunctionWrapperIMN6CyberKit20LocalStorageDatabaseEFvvEEEFvPS3_EEclEv
__ZN6CyberKit20LocalStorageDatabase14updateDatabaseEv
__ZN6CyberKit20LocalStorageDatabase30updateDatabaseWithChangedItemsERKN3WTF7HashMapINS1_6StringES3_NS1_10StringHashENS1_10HashTraitsIS3_EES6_EE
___destroy_helper_block_2
__ZN3WTF17BoundFunctionImplINS_15FunctionWrapperIMN6CyberKit20LocalStorageDatabaseEFvvEEEFvPS3_EED0Ev
__ZN3WTF20ThreadSafeRefCountedIN6CyberKit20LocalStorageDatabaseEE5derefEv
__ZThn8_N6CyberKit20WebIconDatabaseProxy17didReceiveMessageEPN7CoreIPC10ConnectionERNS1_14MessageDecoderE
__ZN6CyberKit20WebIconDatabaseProxy17didReceiveMessageEPN7CoreIPC10ConnectionERNS1_14MessageDecoderE
__ZN7CoreIPC13handleMessageIN8Messages20WebIconDatabaseProxy24ReceivedIconLoadDecisionEN6CyberKit20WebIconDatabaseProxyEMS5_FviyEEEvRNS_14MessageDecoderEPT0_T1_
__ZN7CoreIPC10Arguments2IiyE6decodeERNS_15ArgumentDecoderERS1_
__ZN6CyberKit20WebIconDatabaseProxy24receivedIconLoadDecisionEiy
__ZN3WTF7HashMapIyNS_6RefPtrIN7CyberCore12EnumCallbackINS2_16IconLoadDecisionEEEEENS_7IntHashIyEENS_10HashTraitsIyEENS9_IS6_EEE4takeERKy
__ZN3WTF9HashTableIyNS_12KeyValuePairIyNS_6RefPtrIN7CyberCore12EnumCallbackINS3_16IconLoadDecisionEEEEEEENS_24KeyValuePairKeyExtractorIS8_EENS_7IntHashIyEENS_18HashMapValueTraitsINS_10HashTraitsIyEENSE_IS7_EEEESF_E12deleteBucketERS8_
__ZN3WTF9HashTableIyNS_12KeyValuePairIyNS_6RefPtrIN7CyberCore12EnumCallbackINS3_16IconLoadDecisionEEEEEEENS_24KeyValuePairKeyExtractorIS8_EENS_7IntHashIyEENS_18HashMapValueTraitsINS_10HashTraitsIyEENSE_IS7_EEEESF_E15deallocateTableEPS8_i
__ZN3WTF9HashTableIyNS_12KeyValuePairIyNS_6RefPtrIN7CyberCore12EnumCallbackINS3_16IconLoadDecisionEEEEEEENS_24KeyValuePairKeyExtractorIS8_EENS_7IntHashIyEENS_18HashMapValueTraitsINS_10HashTraitsIyEENSE_IS7_EEEESF_E16lookupForWritingINS_22IdentityHashTranslatorISC_EEyEENSt3__14pairIPS8_bEERKT0_
__ZN3WTF9HashTableIyNS_12KeyValuePairIyNS_6RefPtrIN7CyberCore12EnumCallbackINS3_16IconLoadDecisionEEEEEEENS_24KeyValuePairKeyExtractorIS8_EENS_7IntHashIyEENS_18HashMapValueTraitsINS_10HashTraitsIyEENSE_IS7_EEEESF_E3addINS_17HashMapTranslatorISH_SC_EEyNS_10PassRefPtrIS6_EEEENS_18HashTableAddResultINS_17HashTableIteratorIyS8_SA_SC_SH_SF_EEEERKT0_RKT1_
__ZN3WTF9HashTableIyNS_12KeyValuePairIyNS_6RefPtrIN7CyberCore12EnumCallbackINS3_16IconLoadDecisionEEEEEEENS_24KeyValuePairKeyExtractorIS8_EENS_7IntHashIyEENS_18HashMapValueTraitsINS_10HashTraitsIyEENSE_IS7_EEEESF_E4findINS_22IdentityHashTranslatorISC_EEyEENS_17HashTableIteratorIyS8_SA_SC_SH_SF_EERKT0_
__ZN3WTF9HashTableIyNS_12KeyValuePairIyNS_6RefPtrIN7CyberCore12EnumCallbackINS3_16IconLoadDecisionEEEEEEENS_24KeyValuePairKeyExtractorIS8_EENS_7IntHashIyEENS_18HashMapValueTraitsINS_10HashTraitsIyEENSE_IS7_EEEESF_E6expandEv
__ZN3WTF9HashTableIyNS_12KeyValuePairIyNS_6RefPtrIN7CyberCore12EnumCallbackINS3_16IconLoadDecisionEEEEEEENS_24KeyValuePairKeyExtractorIS8_EENS_7IntHashIyEENS_18HashMapValueTraitsINS_10HashTraitsIyEENSE_IS7_EEEESF_E6lookupINS_22IdentityHashTranslatorISC_EEyEEPS8_RKT0_
__ZN3WTF9HashTableIyNS_12KeyValuePairIyNS_6RefPtrIN7CyberCore12EnumCallbackINS3_16IconLoadDecisionEEEEEEENS_24KeyValuePairKeyExtractorIS8_EENS_7IntHashIyEENS_18HashMapValueTraitsINS_10HashTraitsIyEENSE_IS7_EEEESF_E6rehashEi
__ZN3WTF9HashTableIyNS_12KeyValuePairIyNS_6RefPtrIN7CyberCore12EnumCallbackINS3_16IconLoadDecisionEEEEEEENS_24KeyValuePairKeyExtractorIS8_EENS_7IntHashIyEENS_18HashMapValueTraitsINS_10HashTraitsIyEENSE_IS7_EEEESF_E6removeEPS8_
__ZN6CyberKit20WebIconDatabaseProxy18iconDataForIconURLERKN3WTF6StringENS1_10PassRefPtrIN7CyberCore14ObjectCallbackIPNS6_12SharedBufferEEEEE
__ZN7CoreIPC13handleMessageIN8Messages10WebProcess23VisitedLinkStateChangedEN6CyberKit10WebProcessEMS5_FvRKN3WTF6VectorIyLm0ENS6_15CrashOnOverflowEEEEEEvRNS_14MessageDecoderEPT0_T1_
__ZN7CoreIPC19VectorArgumentCoderILb1EyE6decodeERNS_15ArgumentDecoderERN3WTF6VectorIyLm0ENS4_15CrashOnOverflowEEE
__ZN6CyberKit10WebProcess23visitedLinkStateChangedERKN3WTF6VectorIyLm0ENS1_15CrashOnOverflowEEE
__ZN6CyberKit15WebChromeClient24didAssociateFormControlsERKN3WTF6VectorINS1_6RefPtrIN7CyberCore7ElementEEELm0ENS1_15CrashOnOverflowEEE
__ZN6CyberKit28InjectedBundlePageFormClient24didAssociateFormControlsEPNS_7WebPageERKN3WTF6VectorINS3_6RefPtrIN7CyberCore7ElementEEELm0ENS3_15CrashOnOverflowEEE
__ZNK6CyberKit14TypedAPIObjectILNS_9APIObject4TypeE78EE4typeEv
_WKBundleNodeHandleGetTypeID
_WKBundleNodeHandleCopyDocument
__ZN6CyberKit24InjectedBundleNodeHandle8documentEv
_WKBundleNodeHandleCopyDocumentFrame
__ZN6CyberKit24InjectedBundleNodeHandle13documentFrameEv
_WKBundleFrameGetJavaScriptWrapperForNodeForWorld
__ZN6CyberKit8WebFrame17jsWrapperForWorldEPNS_24InjectedBundleNodeHandleEPNS_25InjectedBundleScriptWorldE
__ZNK6CyberKit24InjectedBundleNodeHandle8coreNodeEv
__ZNK3WTF7HashMapIPvN3JSC4WeakIN7CyberCore12JSDOMWrapperEEENS_7PtrHashIS1_EENS_10HashTraitsIS1_EENS9_IS6_EEE3getERKS1_
__ZN3WTF9HashTableIPvNS_12KeyValuePairIS1_N3JSC4WeakIN7CyberCore12JSDOMWrapperEEEEENS_24KeyValuePairKeyExtractorIS8_EENS_7PtrHashIS1_EENS_18HashMapValueTraitsINS_10HashTraitsIS1_EENSE_IS7_EEEESF_E6lookupINS_22IdentityHashTranslatorISC_EES1_EEPS8_RKT0_
__ZN6CyberKit15WebChromeClient20logDiagnosticMessageERKN3WTF6StringES4_S4_
__ZN6CyberKit41InjectedBundlePageDiagnosticLoggingClient20logDiagnosticMessageEPNS_7WebPageERKN3WTF6StringES6_S6_
__ZN6CyberKit17ChildProcessProxy4sendIN8Messages11DrawingArea15SuspendPaintingEEEbRKT_yj
__ZN6CyberKit7WebPage43determinePrimarySnapshottedPlugInTimerFiredEv
__ZN6CyberKit7WebPage33determinePrimarySnapshottedPlugInEv
_WKPageGetContentsAsString
__ZN6CyberKit12WebPageProxy19getContentsAsStringEN3WTF10PassRefPtrINS_15GenericCallbackIPK14OpaqueWKStringPNS1_10StringImplEEEEE
__ZN3WTF17HashMapTranslatorINS_18HashMapValueTraitsINS_10HashTraitsIyEENS2_INS_6RefPtrIN6CyberKit15GenericCallbackIPK14OpaqueWKStringPNS_10StringImplEEEEEEEEENS_7IntHashIyEEE9translateINS_12KeyValuePairIySD_EEyNS_10PassRefPtrISC_EEEEvRT_RKT0_RKT1_
__ZN3WTF6RefPtrIN6CyberKit15GenericCallbackIPK14OpaqueWKStringPNS_10StringImplEEEEaSERKNS_10PassRefPtrIS8_EE
__ZN6CyberKit17ChildProcessProxy4sendIN8Messages7WebPage19GetContentsAsStringEEEbRKT_yj
__ZN6CyberKit7WebPage19getContentsAsStringEy
__ZNK6CyberKit8WebFrame16contentsAsStringEv
__ZN3WTF10RefCountedIN7CyberCore5RangeEE5derefEv
__ZN7CoreIPC13MessageSender4sendIN8Messages12WebPageProxy14StringCallbackEEEbRKT_y
__ZN7CoreIPC13handleMessageIN8Messages12WebPageProxy14StringCallbackEN6CyberKit12WebPageProxyEMS5_FvRKN3WTF6StringEyEEEvRNS_14MessageDecoderEPT0_T1_
__ZN6CyberKit12WebPageProxy14stringCallbackERKN3WTF6StringEy
__ZN3WTF7HashMapIyNS_6RefPtrIN6CyberKit15GenericCallbackIPK14OpaqueWKStringPNS_10StringImplEEEEENS_7IntHashIyEENS_10HashTraitsIyEENSD_ISA_EEE3setERKyNS_10PassRefPtrIS9_EE
__ZN3WTF7HashMapIyNS_6RefPtrIN6CyberKit15GenericCallbackIPK14OpaqueWKStringPNS_10StringImplEEEEENS_7IntHashIyEENS_10HashTraitsIyEENSD_ISA_EEE4takeERKy
__ZN3WTF9HashTableIyNS_12KeyValuePairIyNS_6RefPtrIN6CyberKit15GenericCallbackIPK14OpaqueWKStringPNS_10StringImplEEEEEEENS_24KeyValuePairKeyExtractorISC_EENS_7IntHashIyEENS_18HashMapValueTraitsINS_10HashTraitsIyEENSI_ISB_EEEESJ_E12deleteBucketERSC_
__ZN3WTF9HashTableIyNS_12KeyValuePairIyNS_6RefPtrIN6CyberKit15GenericCallbackIPK14OpaqueWKStringPNS_10StringImplEEEEEEENS_24KeyValuePairKeyExtractorISC_EENS_7IntHashIyEENS_18HashMapValueTraitsINS_10HashTraitsIyEENSI_ISB_EEEESJ_E15deallocateTableEPSC_i
__ZN3WTF9HashTableIyNS_12KeyValuePairIyNS_6RefPtrIN6CyberKit15GenericCallbackIPK14OpaqueWKStringPNS_10StringImplEEEEEEENS_24KeyValuePairKeyExtractorISC_EENS_7IntHashIyEENS_18HashMapValueTraitsINS_10HashTraitsIyEENSI_ISB_EEEESJ_E16lookupForWritingINS_22IdentityHashTranslatorISG_EEyEENSt3__14pairIPSC_bEERKT0_
__ZN3WTF9HashTableIyNS_12KeyValuePairIyNS_6RefPtrIN6CyberKit15GenericCallbackIPK14OpaqueWKStringPNS_10StringImplEEEEEEENS_24KeyValuePairKeyExtractorISC_EENS_7IntHashIyEENS_18HashMapValueTraitsINS_10HashTraitsIyEENSI_ISB_EEEESJ_E3addINS_17HashMapTranslatorISL_SG_EEyNS_10PassRefPtrISA_EEEENS_18HashTableAddResultINS_17HashTableIteratorIySC_SE_SG_SL_SJ_EEEERKT0_RKT1_
__ZN3WTF9HashTableIyNS_12KeyValuePairIyNS_6RefPtrIN6CyberKit15GenericCallbackIPK14OpaqueWKStringPNS_10StringImplEEEEEEENS_24KeyValuePairKeyExtractorISC_EENS_7IntHashIyEENS_18HashMapValueTraitsINS_10HashTraitsIyEENSI_ISB_EEEESJ_E4findINS_22IdentityHashTranslatorISG_EEyEENS_17HashTableIteratorIySC_SE_SG_SL_SJ_EERKT0_
__ZN3WTF9HashTableIyNS_12KeyValuePairIyNS_6RefPtrIN6CyberKit15GenericCallbackIPK14OpaqueWKStringPNS_10StringImplEEEEEEENS_24KeyValuePairKeyExtractorISC_EENS_7IntHashIyEENS_18HashMapValueTraitsINS_10HashTraitsIyEENSI_ISB_EEEESJ_E6expandEv
__ZN3WTF9HashTableIyNS_12KeyValuePairIyNS_6RefPtrIN6CyberKit15GenericCallbackIPK14OpaqueWKStringPNS_10StringImplEEEEEEENS_24KeyValuePairKeyExtractorISC_EENS_7IntHashIyEENS_18HashMapValueTraitsINS_10HashTraitsIyEENSI_ISB_EEEESJ_E6lookupINS_22IdentityHashTranslatorISG_EEyEEPSC_RKT0_
__ZN3WTF9HashTableIyNS_12KeyValuePairIyNS_6RefPtrIN6CyberKit15GenericCallbackIPK14OpaqueWKStringPNS_10StringImplEEEEEEENS_24KeyValuePairKeyExtractorISC_EENS_7IntHashIyEENS_18HashMapValueTraitsINS_10HashTraitsIyEENSI_ISB_EEEESJ_E6rehashEi
__ZN3WTF9HashTableIyNS_12KeyValuePairIyNS_6RefPtrIN6CyberKit15GenericCallbackIPK14OpaqueWKStringPNS_10StringImplEEEEEEENS_24KeyValuePairKeyExtractorISC_EENS_7IntHashIyEENS_18HashMapValueTraitsINS_10HashTraitsIyEENSI_ISB_EEEESJ_E6removeEPSC_
__ZN6CyberKit15GenericCallbackIPK14OpaqueWKStringPN3WTF10StringImplEE30performCallbackWithReturnValueES6_
__ZN6CyberKit15GenericCallbackIPK14OpaqueWKStringPN3WTF10StringImplEED0Ev
-[WKView mouseMoved:]
-[WKView mouseMovedInternal:]
__ZN6CyberKit19NativeWebMouseEventC1EP7NSEventP6NSView
__ZN6CyberKit15WebEventFactory19createWebMouseEventEP7NSEventP6NSView
__ZN6CyberKitL13pointForEventEP7NSEventP6NSView
__ZN6CyberKitL19globalPointForEventEP7NSEvent
__ZN6CyberKit13WebMouseEventC1ENS_8WebEvent4TypeENS0_6ButtonERKN7CyberCore8IntPointES7_fffiNS1_9ModifiersEd
__ZN6CyberKit8WebEventC2ENS0_4TypeENS0_9ModifiersEd
__ZN3WTF9RetainPtrI7NSEventEC2EPS1_
__ZN6CyberKit12WebPageProxy16handleMouseEventERKNS_19NativeWebMouseEventE
__ZN6CyberKit17ChildProcessProxy4sendIN8Messages7WebPage10MouseEventEEEbRKT_yj
__ZNK6CyberKit13WebMouseEvent6encodeERN7CoreIPC15ArgumentEncoderE
__ZNK6CyberKit8WebEvent6encodeERN7CoreIPC15ArgumentEncoderE
__ZN7CoreIPC13ArgumentCoderIN7CyberCore8IntPointEE6encodeERNS_15ArgumentEncoderERKS2_
__ZN3WTF10PassOwnPtrIN6CyberKit19NativeWebMouseEventEED2Ev
-[WKView mouseExited:]
-[WKView mouseEntered:]
-[WKView viewWillStartLiveResize]
__ZN6CyberKit12WebPageProxy23viewWillStartLiveResizeEv
__ZN6CyberKit17ChildProcessProxy4sendIN8Messages7WebPage23ViewWillStartLiveResizeEEEbRKT_yj
_WKInspectorIsVisible
_WKBackForwardListCopyBackListWithLimit
__ZNK6CyberKit18WebBackForwardList33backListAsImmutableArrayWithLimitEj
_WKPageCopySessionState
__ZNK6CyberKit12WebPageProxy16sessionStateDataEPFbPK12OpaqueWKPagePK14OpaqueWKStringPKvPvES9_
__ZNK6CyberKit18WebBackForwardList32createCFDictionaryRepresentationEPFbPK12OpaqueWKPagePK14OpaqueWKStringPKvPvES9_
__ZN6CyberKitL35createEmptySessionHistoryDictionaryEv
__ZN6CyberKitL28SessionHistoryCurrentVersionEv
_WKPageStopLoading
__ZN6CyberKit12WebPageProxy11stopLoadingEv
__ZN6CyberKit17ChildProcessProxy4sendIN8Messages7WebPage11StopLoadingEEEbRKT_yj
__ZN7CoreIPC10Connection29waitForAndDispatchImmediatelyIN8Messages12WebPageProxy22DidUpdateInWindowStateEEEbyd
__ZN7CoreIPC10Connection14waitForMessageENS_15StringReferenceES1_yd
__ZN3WTF7HashMapINSt3__14pairINS2_IN7CoreIPC15StringReferenceES4_EEyEENS_6OwnPtrINS3_14MessageDecoderEEENS_8PairHashIS5_yEENS_10HashTraitsIS6_EENSC_IS9_EEE3setERKS6_NS_10PassOwnPtrIS8_EE
__ZN3WTF7HashMapINSt3__14pairINS2_IN7CoreIPC15StringReferenceES4_EEyEENS_6OwnPtrINS3_14MessageDecoderEEENS_8PairHashIS5_yEENS_10HashTraitsIS6_EENSC_IS9_EEE6removeERKS6_
__ZN3WTF8PairHashINSt3__14pairIN7CoreIPC15StringReferenceES4_EEyE4hashERKNS2_IS5_yEE
__ZN3WTF8PairHashIN7CoreIPC15StringReferenceES2_E5equalERKNSt3__14pairIS2_S2_EES8_
-[WKView viewDidEndLiveResize]
__ZN6CyberKit12WebPageProxy21viewWillEndLiveResizeEv
__ZN6CyberKit17ChildProcessProxy4sendIN8Messages7WebPage21ViewWillEndLiveResizeEEEbRKT_yj
__ZNK7CyberCore22FrameNetworkingContext7isValidEv
__ZNK6CyberKit25WebFrameNetworkingContext23needsSiteSpecificQuirksEv
__ZNK6CyberKit25WebFrameNetworkingContext26sourceApplicationAuditDataEv
__ZNK6CyberKit25WebFrameNetworkingContext21scheduledRunLoopPairsEv
__ZN6CyberKit7WebPage11stopLoadingEv
__ZN6CyberKit20WebFrameLoaderClient14cancelledErrorERKN7CyberCore15ResourceRequestE
__ZN6CyberKit14cancelledErrorERKN7CyberCore15ResourceRequestE
__ZN6CyberKitL13createNSErrorEP8NSStringiP5NSURL
__ZN3WTF9RetainPtrIP7NSErrorEC2ENS_10AdoptNSTagES2_
__ZN3WTF9RetainPtrI7NSErrorEC2IPS1_EERKNS0_IT_EE
__ZN6CyberKit20WebFrameLoaderClient22dispatchDidFailLoadingEPN7CyberCore14DocumentLoaderEmRKNS1_13ResourceErrorE
__ZN6CyberKit36InjectedBundlePageResourceLoadClient22didFailLoadForResourceEPNS_7WebPageEPNS_8WebFrameEyRKN7CyberCore13ResourceErrorE
__ZN6CyberKit8WebErrorD0Ev
__ZN6CyberKit20WebFrameLoaderClient20setMainDocumentErrorEPN7CyberCore14DocumentLoaderERKNS1_13ResourceErrorE
__ZN6CyberKit20WebFrameLoaderClient14shouldFallBackERKN7CyberCore13ResourceErrorE
__ZN6CyberKit20WebFrameLoaderClient25pluginWillHandleLoadErrorERKN7CyberCore16ResourceResponseE
__ZN6CyberKit25pluginWillHandleLoadErrorERKN7CyberCore16ResourceResponseE
__ZN6CyberKit8WebError17webKitErrorDomainEv
__ZN7CyberCore17ResourceErrorBaseC2ERKN3WTF6StringEiS4_S4_
__ZN6CyberKit20WebFrameLoaderClient30dispatchDidFailProvisionalLoadERKN7CyberCore13ResourceErrorE
__ZN6CyberKit30InjectedBundlePageLoaderClient39didFailProvisionalLoadWithErrorForFrameEPNS_7WebPageEPNS_8WebFrameERKN7CyberCore13ResourceErrorERN3WTF6RefPtrINS_9APIObjectEEE
__ZN6CyberKit7WebPage23SandboxExtensionTracker22didFailProvisionalLoadEPNS_8WebFrameE
__ZN7CoreIPC13MessageSender4sendIN8Messages12WebPageProxy30DidFailProvisionalLoadForFrameEEEbRKT_y
__ZNK7CoreIPC10Arguments3IyRKN7CyberCore13ResourceErrorERKN6CyberKit32InjectedBundleUserMessageEncoderEE6encodeERNS_15ArgumentEncoderE
__ZN7CoreIPC13ArgumentCoderIN7CyberCore13ResourceErrorEE6encodeERNS_15ArgumentEncoderERKS2_
__ZN7CoreIPC13ArgumentCoderIN7CyberCore13ResourceErrorEE18encodePlatformDataERNS_15ArgumentEncoderERKS2_
__ZN6CyberKit23PlatformCertificateInfoC1EPK9__CFArray
__ZN6CyberKit29TiledCoreAnimationDrawingArea15suspendPaintingEv
__ZN6CyberKit10WebProcess19pageWillLeaveWindowEy
__ZN3WTF9HashTableINSt3__14pairINS2_IN7CoreIPC15StringReferenceES4_EEyEENS_12KeyValuePairIS6_NS_6OwnPtrINS3_14MessageDecoderEEEEENS_24KeyValuePairKeyExtractorISB_EENS_8PairHashIS5_yEENS_18HashMapValueTraitsINS_10HashTraitsIS6_EENSH_ISA_EEEESI_E13allocateTableEi
__ZN3WTF9HashTableINSt3__14pairINS2_IN7CoreIPC15StringReferenceES4_EEyEENS_12KeyValuePairIS6_NS_6OwnPtrINS3_14MessageDecoderEEEEENS_24KeyValuePairKeyExtractorISB_EENS_8PairHashIS5_yEENS_18HashMapValueTraitsINS_10HashTraitsIS6_EENSH_ISA_EEEESI_E15deallocateTableEPSB_i
__ZN3WTF9HashTableINSt3__14pairINS2_IN7CoreIPC15StringReferenceES4_EEyEENS_12KeyValuePairIS6_NS_6OwnPtrINS3_14MessageDecoderEEEEENS_24KeyValuePairKeyExtractorISB_EENS_8PairHashIS5_yEENS_18HashMapValueTraitsINS_10HashTraitsIS6_EENSH_ISA_EEEESI_E16lookupForWritingINS_22IdentityHashTranslatorISF_EES6_EENS2_IPSB_bEERKT0_
__ZN3WTF9HashTableINSt3__14pairINS2_IN7CoreIPC15StringReferenceES4_EEyEENS_12KeyValuePairIS6_NS_6OwnPtrINS3_14MessageDecoderEEEEENS_24KeyValuePairKeyExtractorISB_EENS_8PairHashIS5_yEENS_18HashMapValueTraitsINS_10HashTraitsIS6_EENSH_ISA_EEEESI_E3addINS_17HashMapTranslatorISK_SF_EES6_NS_10PassOwnPtrIS9_EEEENS_18HashTableAddResultINS_17HashTableIteratorIS6_SB_SD_SF_SK_SI_EEEERKT0_RKT1_
__ZN3WTF9HashTableINSt3__14pairINS2_IN7CoreIPC15StringReferenceES4_EEyEENS_12KeyValuePairIS6_NS_6OwnPtrINS3_14MessageDecoderEEEEENS_24KeyValuePairKeyExtractorISB_EENS_8PairHashIS5_yEENS_18HashMapValueTraitsINS_10HashTraitsIS6_EENSH_ISA_EEEESI_E4findINS_22IdentityHashTranslatorISF_EES6_EENS_17HashTableIteratorIS6_SB_SD_SF_SK_SI_EERKT0_
__ZN3WTF9HashTableINSt3__14pairINS2_IN7CoreIPC15StringReferenceES4_EEyEENS_12KeyValuePairIS6_NS_6OwnPtrINS3_14MessageDecoderEEEEENS_24KeyValuePairKeyExtractorISB_EENS_8PairHashIS5_yEENS_18HashMapValueTraitsINS_10HashTraitsIS6_EENSH_ISA_EEEESI_E6expandEv
__ZN3WTF9HashTableINSt3__14pairINS2_IN7CoreIPC15StringReferenceES4_EEyEENS_12KeyValuePairIS6_NS_6OwnPtrINS3_14MessageDecoderEEEEENS_24KeyValuePairKeyExtractorISB_EENS_8PairHashIS5_yEENS_18HashMapValueTraitsINS_10HashTraitsIS6_EENSH_ISA_EEEESI_E6lookupINS_22IdentityHashTranslatorISF_EES6_EEPSB_RKT0_
__ZN3WTF9HashTableINSt3__14pairINS2_IN7CoreIPC15StringReferenceES4_EEyEENS_12KeyValuePairIS6_NS_6OwnPtrINS3_14MessageDecoderEEEEENS_24KeyValuePairKeyExtractorISB_EENS_8PairHashIS5_yEENS_18HashMapValueTraitsINS_10HashTraitsIS6_EENSH_ISA_EEEESI_E6rehashEi
__ZN3WTF9HashTableINSt3__14pairINS2_IN7CoreIPC15StringReferenceES4_EEyEENS_12KeyValuePairIS6_NS_6OwnPtrINS3_14MessageDecoderEEEEENS_24KeyValuePairKeyExtractorISB_EENS_8PairHashIS5_yEENS_18HashMapValueTraitsINS_10HashTraitsIS6_EENSH_ISA_EEEESI_E6removeEPSB_
__ZN3WTF9HashTableINSt3__14pairINS2_IN7CoreIPC15StringReferenceES4_EEyEENS_12KeyValuePairIS6_NS_6OwnPtrINS3_14MessageDecoderEEEEENS_24KeyValuePairKeyExtractorISB_EENS_8PairHashIS5_yEENS_18HashMapValueTraitsINS_10HashTraitsIS6_EENSH_ISA_EEEESI_E8reinsertERSB_
_WKURLRequestCreateWithNSURLRequest
__ZN3WTF9RetainPtrIP11objc_objectEC2ENS_10AdoptNSTagES2_
__ZN3WTF9RetainPtrI12NSURLRequestEC2IP11objc_objectEERKNS0_IT_EE
__ZN6CyberKit13WebURLRequest6createEP12NSURLRequest
__ZN6CyberKit13WebURLRequestC1EP12NSURLRequest
_WKContextStartMemorySampler
__ZN6CyberKit10WebContext18startMemorySamplerEd
__ZN6CyberKit16WebMemorySampler6sharedEv
__ZN6CyberKit16WebMemorySampler5startEd
__ZN6CyberKit16WebMemorySampler21initializeTempLogFileEv
__ZNK6CyberKit16WebMemorySampler11processNameEv
__ZN6CyberKit16WebMemorySampler12writeHeadersEv
__ZNK6CyberKit16WebMemorySampler12sampleCyberKitEv
__ZNK6CyberKit16WebMemorySampler18sampleSystemMallocEv
__ZN3WTF6VectorImLm0ENS_15CrashOnOverflowEE14appendSlowCaseIdEEvRKT_
__ZN3WTF6VectorImLm0ENS_15CrashOnOverflowEE15reserveCapacityEm
__ZN3WTF16VectorBufferBaseImE14allocateBufferEm
__ZN3WTF13StringBuilder6appendEh
__ZN3WTF13StringBuilder6appendERKNS_6StringE
__ZN3WTF13StringBuilder8toStringEv
__ZN3WTF6RefPtrINS_13CStringBufferEEaSEOS2_
__ZN6CyberKit16WebMemorySampler16initializeTimersEd
__ZN6CyberKit16SandboxExtension28createHandleForTemporaryFileERKN3WTF6StringENS0_4TypeERNS0_6HandleE
__ZN3WTF6VectorIcLm0ENS_15CrashOnOverflowEE6appendIcEEvPKT_m
__ZN3WTF6VectorIcLm0ENS_15CrashOnOverflowEED1Ev
__ZN6CyberKit17ChildProcessProxy4sendIN8Messages10WebProcess18StartMemorySamplerEEEbRKT_yj
__ZN7CoreIPC21handleMessageVariadicIN8Messages12WebPageProxy30DidFailProvisionalLoadForFrameEN6CyberKit12WebPageProxyEMS5_FvyRKN7CyberCore13ResourceErrorERNS_14MessageDecoderEEEEvSB_PT0_T1_
__ZN7CoreIPC10Arguments2IyN7CyberCore13ResourceErrorEE6decodeERNS_15ArgumentDecoderERS3_
__ZN7CoreIPC13ArgumentCoderIN7CyberCore13ResourceErrorEE6decodeERNS_15ArgumentDecoderERS2_
__ZN7CoreIPC13ArgumentCoderIN7CyberCore13ResourceErrorEE18decodePlatformDataERNS_15ArgumentDecoderERS2_
__ZN7CoreIPCL8nsStringERKN3WTF6StringE
__ZN3WTF9RetainPtrI7NSErrorEaSEOS2_
__ZN6CyberKit12WebPageProxy30didFailProvisionalLoadForFrameEyRKN7CyberCore13ResourceErrorERN7CoreIPC14MessageDecoderE
__ZN6CyberKit13WebFrameProxy22didFailProvisionalLoadEv
__ZN6CyberKit15WebLoaderClient39didFailProvisionalLoadWithErrorForFrameEPNS_12WebPageProxyEPNS_13WebFrameProxyERKN7CyberCore13ResourceErrorEPNS_9APIObjectE
_WKErrorCopyFailingURL
_WKErrorCopyDomain
_WKErrorGetErrorCode
__ZN7CoreIPC13handleMessageIN8Messages10WebProcess18StartMemorySamplerEN6CyberKit10WebProcessEMS5_FvRKNS4_16SandboxExtension6HandleERKN3WTF6StringEdEEEvRNS_14MessageDecoderEPT0_T1_
__ZN7CoreIPC10Arguments3IN6CyberKit16SandboxExtension6HandleEN3WTF6StringEdE6decodeERNS_15ArgumentDecoderERS6_
__ZN7CoreIPC10Arguments2IN6CyberKit16SandboxExtension6HandleEN3WTF6StringEE6decodeERNS_15ArgumentDecoderERS6_
__ZN6CyberKit10WebProcess18startMemorySamplerERKNS_16SandboxExtension6HandleERKN3WTF6StringEd
__ZN6CyberKit16WebMemorySampler5startERKNS_16SandboxExtension6HandleERKN3WTF6StringEd
__ZN6CyberKit16WebMemorySampler26initializeSandboxedLogFileERKNS_16SandboxExtension6HandleERKN3WTF6StringE
__ZN6CyberKit16SandboxExtension7consumeEv
_WKIconDatabaseReleaseIconForURL
__ZN3WTFplIcEENS_12StringAppendINS_6StringET_EERKS2_S3_
__ZNK3WTF12StringAppendINS_6StringEcEcvS1_Ev
__ZN3WTF13tryMakeStringINS_6StringEcEENS_10PassRefPtrINS_10StringImplEEET_T0_
__ZNK6CyberKit20WebFrameLoaderClient17willCacheResponseEPN7CyberCore14DocumentLoaderEmP19NSCachedURLResponse
__ZN6CyberKit36InjectedBundlePageResourceLoadClient19shouldCacheResponseEPNS_7WebPageEPNS_8WebFrameEy
_WKIOSurfaceContextCreate
_WKSetBaseCTM
_WKIOSurfaceContextCreateImage
_WKBundleFrameCreateHitTestResult
__ZNK6CyberKit8WebFrame7hitTestEN7CyberCore8IntPointE
__ZN6CyberKit27InjectedBundleHitTestResult6createERKN7CyberCore13HitTestResultE
_WKBundleHitTestResultCopyNodeHandle
__ZNK6CyberKit27InjectedBundleHitTestResult10nodeHandleEv
__ZN6CyberKit27InjectedBundleHitTestResultD0Ev
__ZN6CyberKit15WebEditorClient23willSetInputMethodStateEv
__ZN7CyberCore12ChromeClient15elementDidFocusEPKNS_4NodeE
__ZN6CyberKit15WebChromeClient18makeFirstResponderEv
__ZN7CoreIPC13MessageSender4sendIN8Messages12WebPageProxy18MakeFirstResponderEEEbRKT_y
__ZN6CyberKit15WebChromeClient18focusedNodeChangedEPN7CyberCore4NodeE
__ZN6CyberKit28InjectedBundlePageFormClient17didFocusTextFieldEPNS_7WebPageEPN7CyberCore16HTMLInputElementEPNS_8WebFrameE
__ZN6CyberKit12WebPageProxy18makeFirstResponderEv
__ZN6CyberKit14PageClientImpl18makeFirstResponderEv
__ZN6CyberKit15WebEditorClient19setInputMethodStateEb
__ZN6CyberKit15WebEditorClient32isContinuousSpellCheckingEnabledEv
__ZN6CyberKit15WebEditorClient24isGrammarCheckingEnabledEv
__ZN6CyberKit15WebEditorClient11textCheckerEv
__ZThn8_NK6CyberKit15WebEditorClient38shouldEraseMarkersAfterChangeSelectionEN7CyberCore16TextCheckingTypeE
__ZN6CyberKit15WebEditorClient25respondToChangedSelectionEPN7CyberCore5FrameE
__ZN6CyberKit30InjectedBundlePageEditorClient18didChangeSelectionEPNS_7WebPageEPN3WTF10StringImplE
__ZN6CyberKit7WebPage18didChangeSelectionEv
__ZNK6CyberKit7WebPage11editorStateEv
__ZN6CyberKit7WebPage25focusedPluginViewForFrameEPN7CyberCore5FrameE
__ZN7CoreIPC13MessageSender4sendIN8Messages12WebPageProxy18EditorStateChangedEEEbRKT_y
__ZNK6CyberKit11EditorState6encodeERN7CoreIPC15ArgumentEncoderE
__ZN7CoreIPC13handleMessageIN8Messages12WebPageProxy18EditorStateChangedEN6CyberKit12WebPageProxyEMS5_FvRKNS4_11EditorStateEEEEvRNS_14MessageDecoderEPT0_T1_
__ZN6CyberKit11EditorState6decodeERN7CoreIPC15ArgumentDecoderERS0_
__ZN6CyberKit12WebPageProxy18editorStateChangedERKNS_11EditorStateE
__ZN6CyberKit14PageClientImpl22updateSecureInputStateEv
__ZNK6CyberKit15WebChromeClient18scrollRectIntoViewERKN7CyberCore7IntRectE
__ZNK7CyberCore17FrameLoaderClient22shouldPaintBrokenImageERKNS_4KURLE
__ZN7CyberCore5TimerIN6CyberKit16WebMemorySamplerEE5firedEv
__ZN6CyberKit16WebMemorySampler16sampleTimerFiredEPN7CyberCore5TimerIS0_EE
__ZN6CyberKit16WebMemorySampler23sendMemoryPressureEventEv
__ZN6CyberKit16WebMemorySampler30appendCurrentMemoryUsageToFileERi
____ZN6CyberKit16DiskCacheMonitorC2EPK20_CFCachedURLResponsePNS_21NetworkResourceLoaderE_block_invoke1
__ZN6CyberKit21NetworkResourceLoader44tryGetShareableHandleFromCFURLCachedResponseERNS_17ShareableResource6HandleEPK20_CFCachedURLResponse
__ZN6CyberKit16DiskCacheMonitor26messageSenderDestinationIDEv
__ZN7CoreIPC13MessageSender4sendIN8Messages24NetworkProcessConnection16DidCacheResourceEEEbRKT_y
__ZN6CyberKit16DiskCacheMonitor23messageSenderConnectionEv
__ZN6CyberKit16DiskCacheMonitorD0Ev
__ZN6CyberKit24NetworkProcessConnection41didReceiveNetworkProcessConnectionMessageEPN7CoreIPC10ConnectionERNS1_14MessageDecoderE
__ZN7CoreIPC13handleMessageIN8Messages24NetworkProcessConnection16DidCacheResourceEN6CyberKit24NetworkProcessConnectionEMS5_FvRKN7CyberCore15ResourceRequestERKNS4_17ShareableResource6HandleEEEEvRNS_14MessageDecoderEPT0_T1_
__ZN7CoreIPC10Arguments2IN7CyberCore15ResourceRequestEN6CyberKit17ShareableResource6HandleEE6decodeERNS_15ArgumentDecoderERS6_
__ZN6CyberKit24NetworkProcessConnection16didCacheResourceERKN7CyberCore15ResourceRequestERKNS_17ShareableResource6HandleE
-[WKView validAttributesForMarkedText]
__ZN6CyberKit7WebPage23viewWillStartLiveResizeEv
__ZN6CyberKit7WebPage21viewWillEndLiveResizeEv
__ZN7CoreIPC13handleMessageIN8Messages7WebPage10MouseEventEN6CyberKit7WebPageEMS5_FvRKNS4_13WebMouseEventEEEEvRNS_14MessageDecoderEPT0_T1_
__ZN6CyberKit13WebMouseEventC1Ev
__ZN6CyberKit8WebEventC2Ev
__ZN6CyberKit13WebMouseEvent6decodeERN7CoreIPC15ArgumentDecoderERS0_
__ZN6CyberKit8WebEvent6decodeERN7CoreIPC15ArgumentDecoderERS0_
__ZN7CoreIPC13ArgumentCoderIN7CyberCore8IntPointEE6decodeERNS_15ArgumentDecoderERS2_
__ZN6CyberKit7WebPage10mouseEventERKNS_13WebMouseEventE
__ZN6CyberKitL16handleMouseEventERKNS_13WebMouseEventEPNS_7WebPageEb
__ZN6CyberKit8platformERKNS_13WebMouseEventE
__ZN6CyberKit25CyberKit2PlatformMouseEventC2ERKNS_13WebMouseEventE
__ZN6CyberKit15WebChromeClient23mouseDidMoveOverElementERKN7CyberCore13HitTestResultEj
__ZN6CyberKit26InjectedBundlePageUIClient23mouseDidMoveOverElementEPNS_7WebPageERKN7CyberCore13HitTestResultENS_8WebEvent9ModifiersERN3WTF6RefPtrINS_9APIObjectEEE
_WKBundleHitTestResultCopyAbsoluteLinkURL
__ZNK6CyberKit27InjectedBundleHitTestResult15absoluteLinkURLEv
_WKBundleHitTestResultGetFrame
__ZNK6CyberKit27InjectedBundleHitTestResult5frameEv
_WKBundleHitTestResultGetTargetFrame
__ZNK6CyberKit27InjectedBundleHitTestResult11targetFrameEv
__ZN6CyberKit16WebHitTestResult4DataC1ERKN7CyberCore13HitTestResultE
__ZN6CyberKit16WebHitTestResult4DataC2ERKN7CyberCore13HitTestResultE
__ZN6CyberKit16WebHitTestResult4Data37elementBoundingBoxInWindowCoordinatesERKN7CyberCore13HitTestResultE
__ZN7CoreIPC13MessageSender4sendIN8Messages12WebPageProxy23MouseDidMoveOverElementEEEbRKT_y
__ZNK6CyberKit16WebHitTestResult4Data6encodeERN7CoreIPC15ArgumentEncoderE
__ZN7CoreIPC13ArgumentCoderIN7CyberCore7IntRectEE6encodeERNS_15ArgumentEncoderERKS2_
__ZN6CyberKit16WebHitTestResult4DataD1Ev
__ZN6CyberKit16WebHitTestResult4DataD2Ev
__ZN6CyberKit15WebChromeClient10setToolTipERKN3WTF6StringEN7CyberCore13TextDirectionE
__ZN7CoreIPC21handleMessageVariadicIN8Messages12WebPageProxy23MouseDidMoveOverElementEN6CyberKit12WebPageProxyEMS5_FvRKNS4_16WebHitTestResult4DataEjRNS_14MessageDecoderEEEEvSB_PT0_T1_
__ZN7CoreIPC13MessageSender4sendIN8Messages12WebPageProxy15DidReceiveEventEEEbRKT_y
__ZN7CoreIPC10Arguments2IN6CyberKit16WebHitTestResult4DataEjE6decodeERNS_15ArgumentDecoderERS4_
__ZN6CyberKit16WebHitTestResult4Data6decodeERN7CoreIPC15ArgumentDecoderERS1_
__ZN7CoreIPC13ArgumentCoderIN7CyberCore7IntRectEE6decodeERNS_15ArgumentDecoderERS2_
__ZN6CyberKit12WebPageProxy23mouseDidMoveOverElementERKNS_16WebHitTestResult4DataEjRN7CoreIPC14MessageDecoderE
__ZN6CyberKit11WebUIClient23mouseDidMoveOverElementEPNS_12WebPageProxyERKNS_16WebHitTestResult4DataENS_8WebEvent9ModifiersEPNS_9APIObjectE
__ZN6CyberKit16WebHitTestResult6createERKNS0_4DataE
__ZN6CyberKit16WebHitTestResultD0Ev
__ZN7CoreIPC13handleMessageIN8Messages12WebPageProxy15DidReceiveEventEN6CyberKit12WebPageProxyEMS5_FvjbEEEvRNS_14MessageDecoderEPT0_T1_
__ZN6CyberKit12WebPageProxy15didReceiveEventEjb
_WKPageGetSessionBackForwardListItemValueType
_WKPageGetSessionHistoryURLValueType
_WKDataGetBytes
_WKDataGetSize
__ZN6CyberKit20WebFrameLoaderClient37canAuthenticateAgainstProtectionSpaceEPN7CyberCore14DocumentLoaderEmRKNS1_15ProtectionSpaceE
__ZN7CoreIPC10Connection8sendSyncIN8Messages12WebPageProxy44CanAuthenticateAgainstProtectionSpaceInFrameEEEbRKT_RKNS5_5ReplyEydj
__ZN7CoreIPC13ArgumentCoderIN7CyberCore15ProtectionSpaceEE6encodeERNS_15ArgumentEncoderERKS2_
__ZN7CoreIPC13handleMessageIN8Messages12WebPageProxy44CanAuthenticateAgainstProtectionSpaceInFrameEN6CyberKit12WebPageProxyEMS5_FvyRKN7CyberCore15ProtectionSpaceERbEEEvRNS_14MessageDecoderERNS_14MessageEncoderEPT0_T1_
__ZN7CoreIPC10Arguments2IyN7CyberCore15ProtectionSpaceEE6decodeERNS_15ArgumentDecoderERS3_
__ZN7CoreIPC13ArgumentCoderIN7CyberCore15ProtectionSpaceEE6decodeERNS_15ArgumentDecoderERS2_
__ZN6CyberKit12WebPageProxy44canAuthenticateAgainstProtectionSpaceInFrameEyRKN7CyberCore15ProtectionSpaceERb
__ZN6CyberKit18WebProtectionSpaceC1ERKN7CyberCore15ProtectionSpaceE
__ZN6CyberKit18WebProtectionSpaceC2ERKN7CyberCore15ProtectionSpaceE
__ZN6CyberKit15WebLoaderClient44canAuthenticateAgainstProtectionSpaceInFrameEPNS_12WebPageProxyEPNS_13WebFrameProxyEPNS_18WebProtectionSpaceE
_WKProtectionSpaceGetIsProxy
__ZNK6CyberKit18WebProtectionSpace7isProxyEv
_WKProtectionSpaceGetAuthenticationScheme
__ZNK6CyberKit18WebProtectionSpace20authenticationSchemeEv
__ZN6CyberKit18WebProtectionSpaceD0Ev
__ZN6CyberKit15StorageAreaImpl6lengthEv
__ZN6CyberKit14StorageAreaMap6lengthEv
__ZN6CyberKit15StorageAreaImpl3keyEj
__ZN6CyberKit14StorageAreaMap3keyEj
_WKFilterIsManagedSession
_initWebFilterEvaluator
__ZN7CoreIPC6encodeERNS_15ArgumentEncoderEP23OpaqueSecCertificateRef
__ZN7CoreIPC6decodeERNS_15ArgumentDecoderERN3WTF9RetainPtrIP23OpaqueSecCertificateRefEE
__ZNK7CyberCore17FrameLoaderClient32willCheckAndDispatchMessageEventEPNS_14SecurityOriginEPNS_12MessageEventE
__ZThn120_N6CyberKit21WebPlatformStrategies30transientLocalStorageNamespaceEPN7CyberCore9PageGroupEPNS1_14SecurityOriginE
__ZN3WTF9HashTableIyNS_12KeyValuePairIyPN6CyberKit8WebFrameEEENS_24KeyValuePairKeyExtractorIS5_EENS_7IntHashIyEENS_18HashMapValueTraitsINS_10HashTraitsIyEENSB_IS4_EEEESC_E16lookupForWritingINS_22IdentityHashTranslatorIS9_EEyEENSt3__14pairIPS5_bEERKT0_
__ZN3WTF9HashTableIyNS_12KeyValuePairIyPN6CyberKit8WebFrameEEENS_24KeyValuePairKeyExtractorIS5_EENS_7IntHashIyEENS_18HashMapValueTraitsINS_10HashTraitsIyEENSB_IS4_EEEESC_E3addINS_17HashMapTranslatorISE_S9_EEyS4_EENS_18HashTableAddResultINS_17HashTableIteratorIyS5_S7_S9_SE_SC_EEEERKT0_RKT1_
__ZN3WTF9HashTableIyNS_12KeyValuePairIyPN6CyberKit8WebFrameEEENS_24KeyValuePairKeyExtractorIS5_EENS_7IntHashIyEENS_18HashMapValueTraitsINS_10HashTraitsIyEENSB_IS4_EEEESC_E4findINS_22IdentityHashTranslatorIS9_EEyEENS_17HashTableIteratorIyS5_S7_S9_SE_SC_EERKT0_
__ZN3WTF9HashTableIyNS_12KeyValuePairIyPN6CyberKit8WebFrameEEENS_24KeyValuePairKeyExtractorIS5_EENS_7IntHashIyEENS_18HashMapValueTraitsINS_10HashTraitsIyEENSB_IS4_EEEESC_E6expandEv
__ZN3WTF9HashTableIyNS_12KeyValuePairIyPN6CyberKit8WebFrameEEENS_24KeyValuePairKeyExtractorIS5_EENS_7IntHashIyEENS_18HashMapValueTraitsINS_10HashTraitsIyEENSB_IS4_EEEESC_E6lookupINS_22IdentityHashTranslatorIS9_EEyEEPS5_RKT0_
__ZN3WTF9HashTableIyNS_12KeyValuePairIyPN6CyberKit8WebFrameEEENS_24KeyValuePairKeyExtractorIS5_EENS_7IntHashIyEENS_18HashMapValueTraitsINS_10HashTraitsIyEENSB_IS4_EEEESC_E6rehashEi
__ZN3WTF9HashTableIyNS_12KeyValuePairIyPN6CyberKit8WebFrameEEENS_24KeyValuePairKeyExtractorIS5_EENS_7IntHashIyEENS_18HashMapValueTraitsINS_10HashTraitsIyEENSB_IS4_EEEESC_E6removeEPS5_
-[WKView resignFirstResponder]
-[WKView(Internal) _notifyInputContextAboutDiscardedComposition]
__ZN6CyberKit15WebEditorClient22textFieldDidEndEditingEPN7CyberCore7ElementE
__ZN6CyberKit28InjectedBundlePageFormClient22textFieldDidEndEditingEPNS_7WebPageEPN7CyberCore16HTMLInputElementEPNS_8WebFrameE
-[WKView acceptsFirstResponder]
__ZN3WTF5DequeINS_6OwnPtrIN7CoreIPC14MessageDecoderEEELm0EE6removeEm
__ZN6CyberKit12WebPageProxy14clearSelectionEv
__ZN6CyberKit17ChildProcessProxy4sendIN8Messages7WebPage14ClearSelectionEEEbRKT_yj
__ZN7CoreIPC10Connection29waitForAndDispatchImmediatelyIN8Messages16DrawingAreaProxy17DidUpdateGeometryEEEbyd
__ZN3WTF9HashTableIyNS_12KeyValuePairIyNS_6RefPtrIN6CyberKit13WebFrameProxyEEEEENS_24KeyValuePairKeyExtractorIS6_EENS_7IntHashIyEENS_18HashMapValueTraitsINS_10HashTraitsIyEENSC_IS5_EEEESD_E15deallocateTableEPS6_i
__ZN3WTF9HashTableIyNS_12KeyValuePairIyNS_6RefPtrIN6CyberKit13WebFrameProxyEEEEENS_24KeyValuePairKeyExtractorIS6_EENS_7IntHashIyEENS_18HashMapValueTraitsINS_10HashTraitsIyEENSC_IS5_EEEESD_E16lookupForWritingINS_22IdentityHashTranslatorISA_EEyEENSt3__14pairIPS6_bEERKT0_
__ZN3WTF9HashTableIyNS_12KeyValuePairIyNS_6RefPtrIN6CyberKit13WebFrameProxyEEEEENS_24KeyValuePairKeyExtractorIS6_EENS_7IntHashIyEENS_18HashMapValueTraitsINS_10HashTraitsIyEENSC_IS5_EEEESD_E3addINS_17HashMapTranslatorISF_SA_EEyNS_10PassRefPtrIS4_EEEENS_18HashTableAddResultINS_17HashTableIteratorIyS6_S8_SA_SF_SD_EEEERKT0_RKT1_
__ZN3WTF9HashTableIyNS_12KeyValuePairIyNS_6RefPtrIN6CyberKit13WebFrameProxyEEEEENS_24KeyValuePairKeyExtractorIS6_EENS_7IntHashIyEENS_18HashMapValueTraitsINS_10HashTraitsIyEENSC_IS5_EEEESD_E4findINS_22IdentityHashTranslatorISA_EEyEENS_17HashTableIteratorIyS6_S8_SA_SF_SD_EERKT0_
__ZN3WTF9HashTableIyNS_12KeyValuePairIyNS_6RefPtrIN6CyberKit13WebFrameProxyEEEEENS_24KeyValuePairKeyExtractorIS6_EENS_7IntHashIyEENS_18HashMapValueTraitsINS_10HashTraitsIyEENSC_IS5_EEEESD_E6expandEv
__ZN3WTF9HashTableIyNS_12KeyValuePairIyNS_6RefPtrIN6CyberKit13WebFrameProxyEEEEENS_24KeyValuePairKeyExtractorIS6_EENS_7IntHashIyEENS_18HashMapValueTraitsINS_10HashTraitsIyEENSC_IS5_EEEESD_E6lookupINS_22IdentityHashTranslatorISA_EEyEEPS6_RKT0_
__ZN3WTF9HashTableIyNS_12KeyValuePairIyNS_6RefPtrIN6CyberKit13WebFrameProxyEEEEENS_24KeyValuePairKeyExtractorIS6_EENS_7IntHashIyEENS_18HashMapValueTraitsINS_10HashTraitsIyEENSC_IS5_EEEESD_E6rehashEi
__ZN3WTF9HashTableIyNS_12KeyValuePairIyNS_6RefPtrIN6CyberKit13WebFrameProxyEEEEENS_24KeyValuePairKeyExtractorIS6_EENS_7IntHashIyEENS_18HashMapValueTraitsINS_10HashTraitsIyEENSC_IS5_EEEESD_E6removeEPS6_
__ZN7CyberCore12ChromeClient14elementDidBlurEPKNS_4NodeE
__ZN6CyberKit7WebPage14clearSelectionEv
__ZN6CyberKit20WebFrameLoaderClient33dispatchWillPerformClientRedirectERKN7CyberCore4KURLEdd
__ZN6CyberKit30InjectedBundlePageLoaderClient33willPerformClientRedirectForFrameEPNS_7WebPageEPNS_8WebFrameERKN3WTF6StringEdd
__ZN6CyberKit21WebFrameListenerProxy10invalidateEv
__ZN6CyberKit27WebFramePolicyListenerProxyD0Ev
__ZN6CyberKit21WebFrameListenerProxyD2Ev
__ZN6CyberKitL22omitProcessSuppressionEv
__ZN7CoreIPC10Connection4sendIN8Messages10WebProcess28SetProcessSuppressionEnabledEEEbRKT_yj
_WebFilterEvaluatorFunction
__ZNK6CyberKit20WebFrameLoaderClient12canCachePageEv
__ZN6CyberKit23WebBackForwardListProxy8isActiveEv
__ZNK7CyberCore14DocumentLoader35clientRedirectDestinationForHistoryEv
__ZN7CoreIPC10Connection4sendIN8Messages15WebProcessProxy24DidPerformClientRedirectEEEbRKT_yj
__ZN6CyberKit20WebFrameLoaderClient31dispatchDidCancelClientRedirectEv
__ZN6CyberKit30InjectedBundlePageLoaderClient31didCancelClientRedirectForFrameEPNS_7WebPageEPNS_8WebFrameE
__ZN7CoreIPC13handleMessageIN8Messages15WebProcessProxy24DidPerformClientRedirectEN6CyberKit15WebProcessProxyEMS5_FvyRKN3WTF6StringES9_yEEEvRNS_14MessageDecoderEPT0_T1_
__ZN6CyberKit15WebProcessProxy24didPerformClientRedirectEyRKN3WTF6StringES4_y
__ZN6CyberKit16WebHistoryClient24didPerformClientRedirectEPNS_10WebContextEPNS_12WebPageProxyERKN3WTF6StringES8_PNS_13WebFrameProxyE
__ZN6CyberKit7WebPage18reportUsedFeaturesEv
__ZN6CyberKit30InjectedBundlePageLoaderClient18featuresUsedInPageEPNS_7WebPageERKN3WTF6VectorINS3_6StringELm0ENS3_15CrashOnOverflowEEE
__ZN6CyberKit18WebCertificateInfoD0Ev
__ZN6CyberKit20WebFrameLoaderClient22dispatchDidChangeIconsEN7CyberCore8IconTypeE
_WKFrameGetCertificateInfo
_WKCertificateInfoGetCertificateChain
__ZN6CyberKit15WebChromeClient35selectItemWritingDirectionIsNaturalEv
__ZN6CyberKit15WebChromeClient46selectItemAlignmentFollowsMenuWritingDirectionEv
__ZN7CyberCore17FrameLoaderClient13didChangeNameERKN3WTF6StringE
__ZN7CyberCore18SecurityOriginHash5equalERKN3WTF6RefPtrINS_14SecurityOriginEEES6_
__ZN6CyberKit20WebFrameLoaderClient33dispatchDidReplaceStateWithinPageEv
__ZN6CyberKit30InjectedBundlePageLoaderClient33didSameDocumentNavigationForFrameEPNS_7WebPageEPNS_8WebFrameENS_26SameDocumentNavigationTypeERN3WTF6RefPtrINS_9APIObjectEEE
__ZN7CoreIPC13MessageSender4sendIN8Messages12WebPageProxy33DidSameDocumentNavigationForFrameEEEbRKT_y
__ZNK7CoreIPC10Arguments4IyjRKN3WTF6StringERKN6CyberKit32InjectedBundleUserMessageEncoderEE6encodeERNS_15ArgumentEncoderE
__ZN7CoreIPC21handleMessageVariadicIN8Messages12WebPageProxy33DidSameDocumentNavigationForFrameEN6CyberKit12WebPageProxyEMS5_FvyjRKN3WTF6StringERNS_14MessageDecoderEEEEvSB_PT0_T1_
__ZN7CoreIPC10Arguments3IyjN3WTF6StringEE6decodeERNS_15ArgumentDecoderERS3_
__ZN6CyberKit12WebPageProxy33didSameDocumentNavigationForFrameEyjRKN3WTF6StringERN7CoreIPC14MessageDecoderE
__ZN6CyberKit13WebFrameProxy25didSameDocumentNavigationERKN3WTF6StringE
__ZN6CyberKit15WebLoaderClient33didSameDocumentNavigationForFrameEPNS_12WebPageProxyEPNS_13WebFrameProxyENS_26SameDocumentNavigationTypeEPNS_9APIObjectE
__ZN6CyberKit24WebAlternativeTextClient18dismissAlternativeEN7CyberCore34ReasonForDismissingAlternativeTextE
__ZN7CoreIPC13MessageSender4sendIN8Messages12WebPageProxy22DismissCorrectionPanelEEEbRKT_y
_WKFrameGetTypeID
__ZN6CyberKit12WebPageProxy22dismissCorrectionPanelEi
_WKDrawFocusRing
__ZN6CyberKit15WebChromeClient9setCursorERKN7CyberCore6CursorE
__ZN7CoreIPC13MessageSender4sendIN8Messages12WebPageProxy9SetCursorEEEbRKT_y
__ZN7CoreIPC13ArgumentCoderIN7CyberCore6CursorEE6encodeERNS_15ArgumentEncoderERKS2_
__ZN7CoreIPC13handleMessageIN8Messages12WebPageProxy9SetCursorEN6CyberKit12WebPageProxyEMS5_FvRKN7CyberCore6CursorEEEEvRNS_14MessageDecoderEPT0_T1_
__ZN7CoreIPC13ArgumentCoderIN7CyberCore6CursorEE6decodeERNS_15ArgumentDecoderERS2_
__ZN6CyberKit12WebPageProxy9setCursorERKN7CyberCore6CursorE
__ZN6CyberKit14PageClientImpl9setCursorERKN7CyberCore6CursorE
-[WKView(Internal) _setCursor:]
__ZN3WTF6OwnPtrIN6CyberKit19NativeWebMouseEventEEaSEDn
__ZThn104_N6CyberKit15WebProcessProxy36interactionOccurredWhileUnresponsiveEPNS_19ResponsivenessTimerE
__ZN6CyberKit15WebProcessProxy36interactionOccurredWhileUnresponsiveEPNS_19ResponsivenessTimerE
__ZN6CyberKit12WebPageProxy43interactionOccurredWhileProcessUnresponsiveEv
__ZN6CyberKit15WebLoaderClient43interactionOccurredWhileProcessUnresponsiveEPNS_12WebPageProxyE
__ZN6CyberKit15WebChromeClient34notifyScrollerThumbIsVisibleInRectERKN7CyberCore7IntRectE
__ZN7CoreIPC13MessageSender4sendIN8Messages12WebPageProxy34NotifyScrollerThumbIsVisibleInRectEEEbRKT_y
__ZN6CyberKit12WebPageProxy34notifyScrollerThumbIsVisibleInRectERKN7CyberCore7IntRectE
__ZThn16_N6CyberKit15WebIconDatabase23didChangeIconForPageURLERKN3WTF6StringE
__ZN6CyberKit12WebPageProxy18didSaveToPageCacheEv
__ZN6CyberKit15WebProcessProxy18didSaveToPageCacheEv
__ZN6CyberKit10WebContext19processDidCachePageEPNS_15WebProcessProxyE
__ZN7CoreIPC13handleMessageIN8Messages15WebIconDatabase21SetIconDataForIconURLEN6CyberKit15WebIconDatabaseEMS5_FvRKNS_13DataReferenceERKN3WTF6StringEEEEvRNS_14MessageDecoderEPT0_T1_
__ZN7CoreIPC10Arguments2INS_13DataReferenceEN3WTF6StringEE6decodeERNS_15ArgumentDecoderERS4_
__ZN6CyberKit15WebIconDatabase21setIconDataForIconURLERKN7CoreIPC13DataReferenceERKN3WTF6StringE
__ZN7CoreIPC13handleMessageIN8Messages15WebIconDatabase24DidReceiveIconForPageURLEN6CyberKit15WebIconDatabaseEMS5_FvRKN3WTF6StringEEEEvRNS_14MessageDecoderEPT0_T1_
__ZN6CyberKit15WebIconDatabase24didReceiveIconForPageURLERKN3WTF6StringE
__ZN6CyberKit18PluginProcessProxy22createPropertyListFileERKNS_16PluginModuleInfoE
__ZN6CyberKit33DynamicLinkerEnvironmentExtractorC1EP8NSStringi
__ZN6CyberKit33DynamicLinkerEnvironmentExtractorC2EP8NSStringi
__ZN3WTF9RetainPtrI8NSStringEC2EPS1_
__ZN6CyberKit33DynamicLinkerEnvironmentExtractor25processSingleArchitectureEPKvm
__ZN6CyberKit33DynamicLinkerEnvironmentExtractor19processLoadCommandsEPKvmib
__ZN6CyberKit33DynamicLinkerEnvironmentExtractor18processLoadCommandEPKvmb
__ZN3WTF6VectorIcLm256ENS_15CrashOnOverflowEE15reserveCapacityEm
__ZN3WTF6VectorIcLm256ENS_15CrashOnOverflowEE6appendIcEEvPKT_m
__ZN6CyberKit33DynamicLinkerEnvironmentExtractor26processEnvironmentVariableEPKc
__ZN3WTF6VectorINSt3__14pairINS_7CStringES3_EELm0ENS_15CrashOnOverflowEE14appendSlowCaseIS4_EEvRKT_
__ZN3WTF6VectorINSt3__14pairINS_7CStringES3_EELm0ENS_15CrashOnOverflowEE14expandCapacityEmPKS4_
__ZN3WTF6VectorINSt3__14pairINS_7CStringES3_EELm0ENS_15CrashOnOverflowEE15reserveCapacityEm
__ZN3WTF16VectorBufferBaseINSt3__14pairINS_7CStringES3_EEE14allocateBufferEm
__ZN3WTF11VectorMoverILb0ENSt3__14pairINS_7CStringES3_EEE4moveEPKS4_S7_PS4_
__ZN3WTF12VectorBufferIcLm256EE16deallocateBufferEPc
__ZNK6CyberKit33DynamicLinkerEnvironmentExtractor32getExtractedEnvironmentVariablesERNS_20EnvironmentVariablesE
__ZN6CyberKit20EnvironmentVariables3setEPKcS2_
__ZN6CyberKit20EnvironmentVariables24copyEnvironmentVariablesEv
__ZN3WTF6VectorIPcLm0ENS_15CrashOnOverflowEE14appendSlowCaseIS1_EEvRKT_
__ZN3WTF6VectorIPcLm0ENS_15CrashOnOverflowEE14expandCapacityEmPKS1_
__ZN3WTF6VectorIPcLm0ENS_15CrashOnOverflowEE15reserveCapacityEm
__ZN3WTF16VectorBufferBaseIPcE14allocateBufferEm
__ZN6CyberKit20EnvironmentVariables23createStringForVariableEPKcS2_
__ZN7CoreIPC13handleMessageIN8Messages12WebPageProxy10FindPluginEN6CyberKit12WebPageProxyEMS5_FvRKN3WTF6StringEjS9_S9_S9_bRyRS7_RjSB_EEEvRNS_14MessageDecoderERNS_14MessageEncoderEPT0_T1_
__ZN7CoreIPC10Arguments6IN3WTF6StringEjS2_S2_S2_bE6decodeERNS_15ArgumentDecoderERS3_
__ZN7CoreIPC10Arguments5IN3WTF6StringEjS2_S2_S2_E6decodeERNS_15ArgumentDecoderERS3_
__ZN7CoreIPC10Arguments4IN3WTF6StringEjS2_S2_E6decodeERNS_15ArgumentDecoderERS3_
__ZN7CoreIPC10Arguments3IN3WTF6StringEjS2_E6decodeERNS_15ArgumentDecoderERS3_
__ZN7CoreIPC10Arguments2IN3WTF6StringEjE6decodeERNS_15ArgumentDecoderERS3_
__ZN7CoreIPC18callMemberFunctionIN6CyberKit12WebPageProxyEMS2_FvRKN3WTF6StringEjS6_S6_S6_bRyRS4_RjS8_ES4_jS4_S4_S4_byS4_jS4_EEvRKNS_10Arguments6IT1_T2_T3_T4_T5_T6_EERNS_10Arguments4IT7_T8_T9_T10_EEPT_T0_
__ZN6CyberKit12WebPageProxy10findPluginERKN3WTF6StringEjS4_S4_S4_bRyRS2_RjS6_
__ZN6CyberKit15PluginInfoStore10findPluginERN3WTF6StringERKN7CyberCore4KURLENS4_10PluginData18AllowedPluginTypesE
__ZNK6CyberKit15PluginInfoStore21findPluginForMIMETypeERKN3WTF6StringEN7CyberCore10PluginData18AllowedPluginTypesE
__ZN6CyberKit15PluginInfoStore26defaultLoadPolicyForPluginERKNS_16PluginModuleInfoE
_WKShouldBlockPlugin
__ZN15PluginBlacklist17shouldBlockPluginEP8NSStringS1_
____ZL30initializePluginBlacklistQueuev_block_invoke
____ZN15PluginBlacklist17shouldBlockPluginEP8NSStringS1__block_invoke
__ZL32reloadPluginBlacklistIfNecessaryv
__ZN15PluginBlacklist6createEP8NSStringP11objc_object
__ZN15PluginBlacklist14splitOSVersionEP8NSString
__ZN15PluginBlacklistC2EP12NSDictionaryS1_P5NSSet
__ZNK15PluginBlacklist11shouldBlockEP8NSStringS1_
__ZN6CyberKit33createPluginInformationDictionaryERKNS_16PluginModuleInfoERKN3WTF6StringES6_S6_S6_S6_b
__ZN6CyberKit26getPluginModuleInformationERKNS_16PluginModuleInfoERN3WTF7HashMapINS3_6StringENS3_6RefPtrINS_9APIObjectEEENS3_10StringHashENS3_10HashTraitsIS5_EENSA_IS8_EEEE
__ZN6CyberKit34getPlatformPluginModuleInformationERKNS_16PluginModuleInfoERN3WTF7HashMapINS3_6StringENS3_6RefPtrINS_9APIObjectEEENS3_10StringHashENS3_10HashTraitsIS5_EENSA_IS8_EEEE
__ZN6CyberKit36pluginInformationBundleIdentifierKeyEv
__ZN6CyberKit33pluginInformationBundleVersionKeyEv
__ZN6CyberKit38pluginInformationBundleShortVersionKeyEv
__ZN6CyberKit64pluginInformationUpdatePastLastBlockedVersionIsKnownAvailableKeyEv
_WKIsPluginUpdateAvailable
__ZN15PluginBlacklist23isPluginUpdateAvailableEP8NSString
____ZN15PluginBlacklist23isPluginUpdateAvailableEP8NSString_block_invoke
__ZN6CyberKit37pluginInformationHasSandboxProfileKeyEv
__ZN6CyberKit23pluginHasSandboxProfileERKN3WTF6StringE
__ZN6CyberKitL24pluginSandboxProfileNameERKN3WTF6StringE
__ZN3WTF6String7replaceEtt
__ZN6CyberKitL31pluginSandboxProfileDirectoriesEv
__ZN6CyberKit15WebLoaderClient16pluginLoadPolicyEPNS_12WebPageProxyENS_22PluginModuleLoadPolicyEPNS_19ImmutableDictionaryERN3WTF6StringE
_WKPluginInformationBundleIdentifierKey
_WKPluginInformationPathKey
__ZN6CyberKit24pluginInformationPathKeyEv
_WKPluginInformationBundleVersionKey
_WKPluginInformationDefaultLoadPolicyKey
__ZN6CyberKit37pluginInformationDefaultLoadPolicyKeyEv
_WKPluginInformationUpdatePastLastBlockedVersionIsKnownAvailableKey
_WKPluginInformationHasSandboxProfileKey
_WKPluginInformationPageURLKey
__ZN6CyberKit27pluginInformationPageURLKeyEv
__ZN6CyberKit20PluginProcessManager6sharedEv
__ZN6CyberKit20PluginProcessManager18pluginProcessTokenERKNS_16PluginModuleInfoENS_17PluginProcessTypeENS_26PluginProcessSandboxPolicyE
__ZN3WTF6VectorIN7CyberCore13MimeClassInfoELm0ENS_15CrashOnOverflowEEaSERKS4_
__ZN3WTF6VectorINSt3__14pairIN6CyberKit23PluginProcessAttributesEyEELm0ENS_15CrashOnOverflowEE14appendSlowCaseIS5_EEvRKT_
__ZN3WTF6VectorINSt3__14pairIN6CyberKit23PluginProcessAttributesEyEELm0ENS_15CrashOnOverflowEE14expandCapacityEmPKS5_
__ZN3WTF6VectorINSt3__14pairIN6CyberKit23PluginProcessAttributesEyEELm0ENS_15CrashOnOverflowEE15reserveCapacityEm
__ZN3WTF16VectorBufferBaseINSt3__14pairIN6CyberKit23PluginProcessAttributesEyEEE14allocateBufferEm
__ZN3WTF11VectorMoverILb0ENSt3__14pairIN6CyberKit23PluginProcessAttributesEyEEE4moveEPKS5_S8_PS5_
__ZNK7CoreIPC10Arguments3IyN3WTF6StringEjE6encodeERNS_15ArgumentEncoderE
__ZN7CoreIPC20handleMessageDelayedIN8Messages15WebProcessProxy26GetPluginProcessConnectionEN6CyberKit15WebProcessProxyEMS5_FvyN3WTF10PassRefPtrINS3_12DelayedReplyEEEEEEvPNS_10ConnectionERNS_14MessageDecoderERNS6_6OwnPtrINS_14MessageEncoderEEEPT0_T1_
__ZN7CoreIPC18callMemberFunctionIN6CyberKit15WebProcessProxyEMS2_FvyN3WTF10PassRefPtrIN8Messages15WebProcessProxy26GetPluginProcessConnection12DelayedReplyEEEEyS8_EEvRKNS_10Arguments1IT1_EENS4_IT2_EEPT_T0_
__ZN6CyberKit15WebProcessProxy26getPluginProcessConnectionEyN3WTF10PassRefPtrIN8Messages15WebProcessProxy26GetPluginProcessConnection12DelayedReplyEEE
__ZN6CyberKit20PluginProcessManager26getPluginProcessConnectionEyN3WTF10PassRefPtrIN8Messages15WebProcessProxy26GetPluginProcessConnection12DelayedReplyEEE
__ZN6CyberKit20PluginProcessManager24getOrCreatePluginProcessEy
__ZN6CyberKit18PluginProcessProxy6createEPNS_20PluginProcessManagerERKNS_23PluginProcessAttributesEy
__ZN6CyberKit18PluginProcessProxyC2EPNS_20PluginProcessManagerERKNS_23PluginProcessAttributesEy
__ZN6CyberKit18PluginProcessProxy16getLaunchOptionsERNS_15ProcessLauncher13LaunchOptionsE
__ZN6CyberKit18PluginProcessProxy24platformGetLaunchOptionsERNS_15ProcessLauncher13LaunchOptionsERKNS_23PluginProcessAttributesE
__ZN6CyberKit18PluginProcessProxy25pluginNeedsExecutableHeapERKNS_16PluginModuleInfoE
__ZN3WTF6VectorINS_6RefPtrIN6CyberKit18PluginProcessProxyEEELm0ENS_15CrashOnOverflowEE14appendSlowCaseINS_10PassRefPtrIS3_EEEEvRKT_
__ZN3WTF6VectorINS_6RefPtrIN6CyberKit18PluginProcessProxyEEELm0ENS_15CrashOnOverflowEE15reserveCapacityEm
__ZN6CyberKitL27addDYLDEnvironmentAdditionsERKNS_15ProcessLauncher13LaunchOptionsEbRNS_20EnvironmentVariablesE
__ZN3WTF16VectorBufferBaseINS_6RefPtrIN6CyberKit18PluginProcessProxyEEEE14allocateBufferEm
__ZN6CyberKit18PluginProcessProxy26getPluginProcessConnectionEN3WTF10PassRefPtrIN8Messages15WebProcessProxy26GetPluginProcessConnection12DelayedReplyEEE
__ZN3WTF5DequeINS_6RefPtrIN8Messages15WebProcessProxy26GetPluginProcessConnection12DelayedReplyEEELm0EE22expandCapacityIfNeededEv
__ZN3WTF5DequeINS_6RefPtrIN8Messages15WebProcessProxy26GetPluginProcessConnection12DelayedReplyEEELm0EE14expandCapacityEv
__ZN3WTF16VectorBufferBaseINS_6RefPtrIN8Messages15WebProcessProxy26GetPluginProcessConnection12DelayedReplyEEEE14allocateBufferEm
__ZN6CyberKit20EnvironmentVariables11appendValueEPKcS2_c
__ZN3WTF6VectorINSt3__14pairINS_7CStringES3_EELm0ENS_15CrashOnOverflowEED2Ev
__ZN3WTF6VectorINSt3__14pairINS_7CStringES3_EELm0ENS_15CrashOnOverflowEE6shrinkEm
__ZN6CyberKit15ProcessLauncher19processTypeAsStringENS0_11ProcessTypeE
__ZNK3WTF12StringAppendIPKcNS_6StringEEcvS3_Ev
__ZN3WTF6VectorINS_7CStringELm0ENS_15CrashOnOverflowEE14appendSlowCaseIS1_EEvRKT_
__ZN3WTF6VectorINS_7CStringELm0ENS_15CrashOnOverflowEE14expandCapacityEmPKS1_
__ZN3WTF6VectorINS_7CStringELm0ENS_15CrashOnOverflowEE15reserveCapacityEm
__ZN3WTF16VectorBufferBaseINS_7CStringEE14allocateBufferEm
__ZN3WTF11VectorMoverILb0ENS_7CStringEE4moveEPKS1_S4_PS1_
__ZN3WTF6VectorINS_7CStringELm0ENS_15CrashOnOverflowEED2Ev
__ZN3WTF6VectorINS_7CStringELm0ENS_15CrashOnOverflowEE6shrinkEm
__ZN6CyberKit18PluginProcessProxy18didFinishLaunchingEPNS_15ProcessLauncherEN7CoreIPC10Connection10IdentifierE
__ZN6CyberKit31PluginProcessCreationParametersC1Ev
__ZN6CyberKit18PluginProcessProxy31platformInitializePluginProcessERNS_31PluginProcessCreationParametersE
__ZN7CoreIPC10Connection4sendIN8Messages13PluginProcess23InitializePluginProcessEEEbRKT_yj
__ZNK6CyberKit31PluginProcessCreationParameters6encodeERN7CoreIPC15ArgumentEncoderE
__ZN3WTF6VectorIyLm0ENS_15CrashOnOverflowEE14shrinkCapacityEm
__ZN3WTF6VectorIN6CyberKit18PluginProcessProxy20ClearSiteDataRequestELm0ENS_15CrashOnOverflowEE14shrinkCapacityEm
__ZN7CoreIPC10Connection4sendIN8Messages13PluginProcess26CreateWebProcessConnectionEEEbRKT_yj
__ZN6CyberKit10WebContext50canEnableProcessSuppressionForGlobalChildProcessesEv
__ZThn8_N6CyberKit18PluginProcessProxy17didReceiveMessageEPN7CoreIPC10ConnectionERNS1_14MessageDecoderE
__ZN6CyberKit18PluginProcessProxy17didReceiveMessageEPN7CoreIPC10ConnectionERNS1_14MessageDecoderE
__ZN7CoreIPC13handleMessageIN8Messages18PluginProcessProxy29DidCreateWebProcessConnectionEN6CyberKit18PluginProcessProxyEMS5_FvRKNS_10AttachmentEbEEEvRNS_14MessageDecoderEPT0_T1_
__ZN7CoreIPC10Arguments2INS_10AttachmentEbE6decodeERNS_15ArgumentDecoderERS2_
__ZN6CyberKit18PluginProcessProxy29didCreateWebProcessConnectionERKN7CoreIPC10AttachmentEb
__ZN3WTF5DequeINS_6RefPtrIN8Messages15WebProcessProxy26GetPluginProcessConnection12DelayedReplyEEELm0EE11removeFirstEv
__ZN8Messages15WebProcessProxy26GetPluginProcessConnection12DelayedReply4sendERKN7CoreIPC10AttachmentEb
__ZN3WTF20ThreadSafeRefCountedIN8Messages15WebProcessProxy26GetPluginProcessConnection12DelayedReplyEE5derefEv
__ZN8Messages15WebProcessProxy26GetPluginProcessConnection12DelayedReplyD1Ev
__ZN8Messages15WebProcessProxy26GetPluginProcessConnection12DelayedReplyD2Ev
__ZN7CoreIPC13handleMessageIN8Messages12WebPageProxy31PluginFocusOrWindowFocusChangedEN6CyberKit12WebPageProxyEMS5_FvybEEEvRNS_14MessageDecoderEPT0_T1_
__ZN7CoreIPC10Arguments2IybE6decodeERNS_15ArgumentDecoderERS1_
__ZN6CyberKit12WebPageProxy31pluginFocusOrWindowFocusChangedEyb
__ZN6CyberKit14PageClientImpl31pluginFocusOrWindowFocusChangedEyb
-[WKView(Internal) _pluginFocusOrWindowFocusChanged:pluginComplexTextInputIdentifier:]
__ZN6CyberKit12WebPageProxy24backForwardBackListCountERi
__ZN6CyberKit12WebPageProxy27backForwardForwardListCountERi
__ZN6CyberKit15WebProcessProxy23enableSuddenTerminationEv
__ZN6CyberKit12WebPageProxy27didRemoveFrameFromHierarchyEyRN7CoreIPC14MessageDecoderE
__ZN6CyberKit15WebLoaderClient27didRemoveFrameFromHierarchyEPNS_12WebPageProxyEPNS_13WebFrameProxyEPNS_9APIObjectE
__ZN3WTF9HashTableIyNS_12KeyValuePairIyNS_6RefPtrIN6CyberKit7WebPageEEEEENS_24KeyValuePairKeyExtractorIS6_EENS_7IntHashIyEENS_18HashMapValueTraitsINS_10HashTraitsIyEENSC_IS5_EEEESD_E15deallocateTableEPS6_i
__ZN3WTF9HashTableIyNS_12KeyValuePairIyNS_6RefPtrIN6CyberKit7WebPageEEEEENS_24KeyValuePairKeyExtractorIS6_EENS_7IntHashIyEENS_18HashMapValueTraitsINS_10HashTraitsIyEENSC_IS5_EEEESD_E16lookupForWritingINS_22IdentityHashTranslatorISA_EEyEENSt3__14pairIPS6_bEERKT0_
__ZN3WTF9HashTableIyNS_12KeyValuePairIyNS_6RefPtrIN6CyberKit7WebPageEEEEENS_24KeyValuePairKeyExtractorIS6_EENS_7IntHashIyEENS_18HashMapValueTraitsINS_10HashTraitsIyEENSC_IS5_EEEESD_E3addINS_17HashMapTranslatorISF_SA_EEyNS_10PassRefPtrIS4_EEEENS_18HashTableAddResultINS_17HashTableIteratorIyS6_S8_SA_SF_SD_EEEERKT0_RKT1_
__ZN3WTF9HashTableIyNS_12KeyValuePairIyNS_6RefPtrIN6CyberKit7WebPageEEEEENS_24KeyValuePairKeyExtractorIS6_EENS_7IntHashIyEENS_18HashMapValueTraitsINS_10HashTraitsIyEENSC_IS5_EEEESD_E4findINS_22IdentityHashTranslatorISA_EEyEENS_17HashTableIteratorIyS6_S8_SA_SF_SD_EERKT0_
__ZN3WTF9HashTableIyNS_12KeyValuePairIyNS_6RefPtrIN6CyberKit7WebPageEEEEENS_24KeyValuePairKeyExtractorIS6_EENS_7IntHashIyEENS_18HashMapValueTraitsINS_10HashTraitsIyEENSC_IS5_EEEESD_E6expandEv
__ZN3WTF9HashTableIyNS_12KeyValuePairIyNS_6RefPtrIN6CyberKit7WebPageEEEEENS_24KeyValuePairKeyExtractorIS6_EENS_7IntHashIyEENS_18HashMapValueTraitsINS_10HashTraitsIyEENSC_IS5_EEEESD_E6lookupINS_22IdentityHashTranslatorISA_EEyEEPS6_RKT0_
__ZN3WTF9HashTableIyNS_12KeyValuePairIyNS_6RefPtrIN6CyberKit7WebPageEEEEENS_24KeyValuePairKeyExtractorIS6_EENS_7IntHashIyEENS_18HashMapValueTraitsINS_10HashTraitsIyEENSC_IS5_EEEESD_E6rehashEi
__ZN3WTF9HashTableIyNS_12KeyValuePairIyNS_6RefPtrIN6CyberKit7WebPageEEEEENS_24KeyValuePairKeyExtractorIS6_EENS_7IntHashIyEENS_18HashMapValueTraitsINS_10HashTraitsIyEENSC_IS5_EEEESD_E6removeEPS6_
__ZN3WTF9HashTableIyNS_12KeyValuePairIyNS_6RefPtrIN7CyberCore13ScrollingTreeEEEEENS_24KeyValuePairKeyExtractorIS6_EENS_7IntHashIyEENS_18HashMapValueTraitsINS_10HashTraitsIyEENSC_IS5_EEEESD_E15deallocateTableEPS6_i
__ZN3WTF9HashTableIyNS_12KeyValuePairIyNS_6RefPtrIN7CyberCore13ScrollingTreeEEEEENS_24KeyValuePairKeyExtractorIS6_EENS_7IntHashIyEENS_18HashMapValueTraitsINS_10HashTraitsIyEENSC_IS5_EEEESD_E16lookupForWritingINS_22IdentityHashTranslatorISA_EEyEENSt3__14pairIPS6_bEERKT0_
__ZN3WTF9HashTableIyNS_12KeyValuePairIyNS_6RefPtrIN7CyberCore13ScrollingTreeEEEEENS_24KeyValuePairKeyExtractorIS6_EENS_7IntHashIyEENS_18HashMapValueTraitsINS_10HashTraitsIyEENSC_IS5_EEEESD_E3addINS_17HashMapTranslatorISF_SA_EEyNS_10PassRefPtrIS4_EEEENS_18HashTableAddResultINS_17HashTableIteratorIyS6_S8_SA_SF_SD_EEEERKT0_RKT1_
__ZN3WTF9HashTableIyNS_12KeyValuePairIyNS_6RefPtrIN7CyberCore13ScrollingTreeEEEEENS_24KeyValuePairKeyExtractorIS6_EENS_7IntHashIyEENS_18HashMapValueTraitsINS_10HashTraitsIyEENSC_IS5_EEEESD_E4findINS_22IdentityHashTranslatorISA_EEyEENS_17HashTableIteratorIyS6_S8_SA_SF_SD_EERKT0_
__ZN3WTF9HashTableIyNS_12KeyValuePairIyNS_6RefPtrIN7CyberCore13ScrollingTreeEEEEENS_24KeyValuePairKeyExtractorIS6_EENS_7IntHashIyEENS_18HashMapValueTraitsINS_10HashTraitsIyEENSC_IS5_EEEESD_E6expandEv
__ZN3WTF9HashTableIyNS_12KeyValuePairIyNS_6RefPtrIN7CyberCore13ScrollingTreeEEEEENS_24KeyValuePairKeyExtractorIS6_EENS_7IntHashIyEENS_18HashMapValueTraitsINS_10HashTraitsIyEENSC_IS5_EEEESD_E6lookupINS_22IdentityHashTranslatorISA_EEyEEPS6_RKT0_
__ZN3WTF9HashTableIyNS_12KeyValuePairIyNS_6RefPtrIN7CyberCore13ScrollingTreeEEEEENS_24KeyValuePairKeyExtractorIS6_EENS_7IntHashIyEENS_18HashMapValueTraitsINS_10HashTraitsIyEENSC_IS5_EEEESD_E6rehashEi
__ZN3WTF9HashTableIyNS_12KeyValuePairIyNS_6RefPtrIN7CyberCore13ScrollingTreeEEEEENS_24KeyValuePairKeyExtractorIS6_EENS_7IntHashIyEENS_18HashMapValueTraitsINS_10HashTraitsIyEENSC_IS5_EEEESD_E6removeEPS6_
__ZN6CyberKit15WebProcessProxy15didDestroyFrameEy
__ZN3WTF7HashMapIyNS_6RefPtrIN6CyberKit13WebFrameProxyEEENS_7IntHashIyEENS_10HashTraitsIyEENS7_IS4_EEE6removeERKy
__ZN6CyberKit13WebFrameProxyD0Ev
__ZN6CyberKit13WebFrameProxyD2Ev
_WKSetNSURLConnectionDefersCallbacks
__ZN6CyberKit30InjectedBundlePageLoaderClient33didNewFirstVisuallyNonEmptyLayoutEPNS_7WebPageERN3WTF6RefPtrINS_9APIObjectEEE
__ZN7CoreIPC13MessageSender4sendIN8Messages12WebPageProxy33DidNewFirstVisuallyNonEmptyLayoutEEEbRKT_y
__ZN6CyberKit12WebPageProxy33didNewFirstVisuallyNonEmptyLayoutERN7CoreIPC14MessageDecoderE
__ZN6CyberKit15WebLoaderClient33didNewFirstVisuallyNonEmptyLayoutEPNS_12WebPageProxyEPNS_9APIObjectE
__ZNK6CyberKit15WebChromeClient21plugInExtraStyleSheetEv
__ZNK6CyberKit26InjectedBundlePageUIClient21plugInExtraStyleSheetEv
__ZN6CyberKit15WebPlugInClient25shouldAutoStartFromOriginERKN3WTF6StringES4_S4_
__ZN6CyberKit10WebProcess31shouldPlugInAutoStartFromOriginEPKNS_7WebPageERKN3WTF6StringES7_S7_
__ZNK6CyberKit7WebPage20matchesPrimaryPlugInERKN3WTF6StringES4_S4_
__ZN6CyberKitL19hashForPlugInOriginERKN3WTF6StringES3_S3_
__ZN3WTF12StringHasher13addCharactersIhXadL_ZNS_15CaseFoldingHash8foldCaseIhEEtT_EEEEvPKS4_j
__ZN6CyberKit10WebProcess27isPlugInAutoStartOriginHashEj
__ZN6CyberKit20WebFrameLoaderClient12createPluginERKN7CyberCore7IntSizeEPNS1_17HTMLPlugInElementERKNS1_4KURLERKN3WTF6VectorINSA_6StringELm0ENSA_15CrashOnOverflowEEESG_RKSC_b
__ZN6CyberKit7WebPage12createPluginEPNS_8WebFrameEPN7CyberCore17HTMLPlugInElementERKNS_6Plugin10ParametersERN3WTF6StringE
__ZN7CoreIPC10Connection8sendSyncIN8Messages12WebPageProxy10FindPluginEEEbRKT_RKNS5_5ReplyEydj
__ZNK7CoreIPC10Arguments6IRKN3WTF6StringEjS4_S4_S4_bE6encodeERNS_15ArgumentEncoderE
__ZNK7CoreIPC10Arguments4IRKN3WTF6StringEjS4_S4_E6encodeERNS_15ArgumentEncoderE
__ZN7CoreIPC10Arguments4IRyRN3WTF6StringERjS4_E6decodeERNS_15ArgumentDecoderERS6_
__ZN7CoreIPC10Arguments3IRyRN3WTF6StringERjE6decodeERNS_15ArgumentDecoderERS6_
__ZN7CoreIPC10Arguments2IRyRN3WTF6StringEE6decodeERNS_15ArgumentDecoderERS5_
__ZN6CyberKit11PluginProxy6createEyb
__ZN6CyberKit11PluginProxyC2Eyb
__ZN6CyberKit6PluginC2Ev
__ZN6CyberKit10PluginView6createEN3WTF10PassRefPtrIN7CyberCore17HTMLPlugInElementEEENS2_INS_6PluginEEERKNS6_10ParametersE
__ZN6CyberKit10PluginViewC2EN3WTF10PassRefPtrIN7CyberCore17HTMLPlugInElementEEENS2_INS_6PluginEEERKNS6_10ParametersE
__ZN6CyberKit18NPRuntimeObjectMapC1EPNS_10PluginViewE
__ZN6CyberKit7WebPage13addPluginViewEPNS_10PluginViewE
__ZN3WTF9HashTableIPN6CyberKit10PluginViewES3_NS_17IdentityExtractorENS_7PtrHashIS3_EENS_10HashTraitsIS3_EES8_E3addINS_22IdentityHashTranslatorIS6_EES3_S3_EENS_18HashTableAddResultINS_17HashTableIteratorIS3_S3_S4_S6_S8_S8_EEEERKT0_RKT1_
__ZN3WTF9HashTableIPN6CyberKit10PluginViewES3_NS_17IdentityExtractorENS_7PtrHashIS3_EENS_10HashTraitsIS3_EES8_E6expandEv
__ZN3WTF9HashTableIPN6CyberKit10PluginViewES3_NS_17IdentityExtractorENS_7PtrHashIS3_EENS_10HashTraitsIS3_EES8_E6rehashEi
__ZNK7CyberCore14PluginViewBase16isPluginViewBaseEv
__ZNK6CyberKit10PluginView21shouldAlwaysAutoStartEv
__ZNK6CyberKit6Plugin21shouldAlwaysAutoStartEv
__ZN6CyberKit10PluginView25transformsAffectFrameRectEv
__ZN6CyberKit10PluginView12setFrameRectERKN7CyberCore7IntRectE
__ZN6CyberKit10PluginView21viewGeometryDidChangeEv
__ZN6CyberKit10PluginView4showEv
__ZN6CyberKit10PluginView9setParentEPN7CyberCore10ScrollViewE
__ZN7CyberCore6Widget16setParentVisibleEb
__ZN6CyberKit10PluginView16initializePluginEv
__ZN6CyberKit6Plugin10initializeEPNS_16PluginControllerERKNS0_10ParametersE
__ZN6CyberKit11PluginProxy10initializeERKNS_6Plugin10ParametersE
__ZN6CyberKit10WebProcess30pluginProcessConnectionManagerEv
__ZN6CyberKit30PluginProcessConnectionManager26getPluginProcessConnectionEy
__ZN7CoreIPC10Connection8sendSyncIN8Messages15WebProcessProxy26GetPluginProcessConnectionEEEbRKT_RKNS5_5ReplyEydj
__ZNK6CyberKit15PluginInfoStore22findPluginForExtensionERKN3WTF6StringERS2_N7CyberCore10PluginData18AllowedPluginTypesE
____ZN6CyberKit16DiskCacheMonitorC2EPK20_CFCachedURLResponsePNS_21NetworkResourceLoaderE_block_invoke
__ZN7CoreIPC10Arguments2IRNS_10AttachmentERbE6decodeERNS_15ArgumentDecoderERS4_
__ZN6CyberKit23PluginProcessConnectionC1EPNS_30PluginProcessConnectionManagerEyN7CoreIPC10Connection10IdentifierEb
__ZN6CyberKit23PluginProcessConnectionC2EPNS_30PluginProcessConnectionManagerEyN7CoreIPC10Connection10IdentifierEb
__ZN6CyberKit17NPRemoteObjectMap6createEPN7CoreIPC10ConnectionE
__ZN3WTF6VectorINS_6RefPtrIN6CyberKit23PluginProcessConnectionEEELm0ENS_15CrashOnOverflowEE14appendSlowCaseIS4_EEvRKT_
__ZN3WTF6VectorINS_6RefPtrIN6CyberKit23PluginProcessConnectionEEELm0ENS_15CrashOnOverflowEE14expandCapacityEmPKS4_
__ZN3WTF6VectorINS_6RefPtrIN6CyberKit23PluginProcessConnectionEEELm0ENS_15CrashOnOverflowEE15reserveCapacityEm
__ZN3WTF16VectorBufferBaseINS_6RefPtrIN6CyberKit23PluginProcessConnectionEEEE14allocateBufferEm
__ZN3WTF7HashMapIyNS_6RefPtrIN7CoreIPC10ConnectionEEENS_7IntHashIyEENS_10HashTraitsIyEENS7_IS4_EEE3setERKyNS_10PassRefPtrIS3_EE
__ZN3WTF6RefPtrIN6CyberKit23PluginProcessConnectionEEaSEPS2_
__ZN6CyberKit23PluginProcessConnection14addPluginProxyEPNS_11PluginProxyE
__ZN6CyberKit24PluginCreationParametersC1Ev
__ZN3WTF14deleteOwnedPtrIN6CyberKit24PluginCreationParametersEEEvPT_
__ZN6CyberKit11PluginProxy16windowNPObjectIDEv
__ZThn64_N6CyberKit10PluginView20windowScriptNPObjectEv
__ZN6CyberKit10PluginView20windowScriptNPObjectEv
__ZN6CyberKit18NPRuntimeObjectMap19getOrCreateNPObjectERN3JSC2VMEPNS1_8JSObjectE
__ZN6CyberKit10NPJSObject6createERN3JSC2VMEPNS_18NPRuntimeObjectMapEPNS1_8JSObjectE
__ZN6CyberKit14createNPObjectEP4_NPPP7NPClass
__ZN6CyberKit10NPJSObject11NP_AllocateEP4_NPPP7NPClass
__ZN3JSC6StrongINS_8JSObjectEE3setERNS_2VMEPS1_
__ZN6CyberKit17NPRemoteObjectMap16registerNPObjectEP8NPObjectPNS_6PluginE
__ZN6CyberKit23NPObjectMessageReceiver6createEPNS_17NPRemoteObjectMapEPNS_6PluginEyP8NPObject
__ZN6CyberKit14retainNPObjectEP8NPObject
__ZN3WTF10PassOwnPtrIN6CyberKit23NPObjectMessageReceiverEED2Ev
__ZN6CyberKit15releaseNPObjectEP8NPObject
__ZThn64_N6CyberKit10PluginView9userAgentEv
__ZN6CyberKit10PluginView9userAgentEv
__ZThn64_N6CyberKit10PluginView19contentsScaleFactorEv
__ZThn64_N6CyberKit10PluginView24isPrivateBrowsingEnabledEv
__ZN6CyberKit10PluginView24isPrivateBrowsingEnabledEv
__ZThn64_NK6CyberKit10PluginView42artificialPluginInitializationDelayEnabledEv
__ZThn64_N6CyberKit10PluginView31isAcceleratedCompositingEnabledEv
__ZN6CyberKit10PluginView31isAcceleratedCompositingEnabledEv
__ZNK6CyberKit11PluginProxy27canInitializeAsynchronouslyEv
__ZThn64_NK6CyberKit10PluginView39asynchronousPluginInitializationEnabledEv
__ZN7CoreIPC10Connection4sendIN8Messages20WebProcessConnection26CreatePluginAsynchronouslyEEEbRKT_yj
__ZNK6CyberKit24PluginCreationParameters6encodeERN7CoreIPC15ArgumentEncoderE
__ZNK6CyberKit6Plugin10Parameters6encodeERN7CoreIPC15ArgumentEncoderE
__ZNK7CyberCore6Widget11isFrameViewEv
__ZN6CyberKit10PluginView16wantsWheelEventsEv
__ZN6CyberKit20WebIconDatabaseProxy21setIconDataForIconURLEN3WTF10PassRefPtrIN7CyberCore12SharedBufferEEERKNS1_6StringE
__ZN7CoreIPC10Connection4sendIN8Messages15WebIconDatabase21SetIconDataForIconURLEEEbRKT_yj
__ZN6CyberKit20WebFrameLoaderClient22dispatchDidReceiveIconEv
__ZN7CoreIPC10Connection4sendIN8Messages15WebIconDatabase24DidReceiveIconForPageURLEEEbRKT_yj
__ZNK6CyberKit10PluginView13platformLayerEv
__ZN7CyberCore6Widget22widgetPositionsUpdatedEv
__ZN6CyberKit23WebBackForwardListProxy13backListCountEv
__ZN7CoreIPC10Connection8sendSyncIN8Messages12WebPageProxy24BackForwardBackListCountEEEbRKT_RKNS5_5ReplyEydj
__ZN6CyberKit23WebBackForwardListProxy16forwardListCountEv
__ZN7CoreIPC10Connection8sendSyncIN8Messages12WebPageProxy27BackForwardForwardListCountEEEbRKT_RKNS5_5ReplyEydj
__ZN6CyberKit15WebChromeClient10windowRectEv
__ZN3WTF9HashTableIPN7CyberCore12RenderObjectES3_NS_17IdentityExtractorENS_7PtrHashIS3_EENS_10HashTraitsIS3_EES8_E3addINS_22IdentityHashTranslatorIS6_EES3_S3_EENS_18HashTableAddResultINS_17HashTableIteratorIS3_S3_S4_S6_S8_S8_EEEERKT0_RKT1_
__ZN3WTF9HashTableIPN7CyberCore12RenderObjectES3_NS_17IdentityExtractorENS_7PtrHashIS3_EENS_10HashTraitsIS3_EES8_E6expandEv
__ZN3WTF9HashTableIPN7CyberCore12RenderObjectES3_NS_17IdentityExtractorENS_7PtrHashIS3_EENS_10HashTraitsIS3_EES8_E6rehashEi
__ZN3WTF9HashTableIPN7CyberCore12RenderObjectES3_NS_17IdentityExtractorENS_7PtrHashIS3_EENS_10HashTraitsIS3_EES8_E16lookupForWritingINS_22IdentityHashTranslatorIS6_EES3_EENSt3__14pairIPS3_bEERKT0_
__ZN3WTF9HashTableIPN7CyberCore12RenderObjectES3_NS_17IdentityExtractorENS_7PtrHashIS3_EENS_10HashTraitsIS3_EES8_E4findINS_22IdentityHashTranslatorIS6_EES3_EENS_17HashTableIteratorIS3_S3_S4_S6_S8_S8_EERKT0_
__ZN3WTF9HashTableIPN7CyberCore12RenderObjectES3_NS_17IdentityExtractorENS_7PtrHashIS3_EENS_10HashTraitsIS3_EES8_E6lookupINS_22IdentityHashTranslatorIS6_EES3_EEPS3_RKT0_
__ZN6CyberKit23PluginProcessConnection21didReceiveSyncMessageEPN7CoreIPC10ConnectionERNS1_14MessageDecoderERN3WTF6OwnPtrINS1_14MessageEncoderEEE
__ZN3WTF9HashTableIyNS_12KeyValuePairIyPN6CyberKit11PluginProxyEEENS_24KeyValuePairKeyExtractorIS5_EENS_7IntHashIyEENS_18HashMapValueTraitsINS_10HashTraitsIyEENSB_IS4_EEEESC_E16lookupForWritingINS_22IdentityHashTranslatorIS9_EEyEENSt3__14pairIPS5_bEERKT0_
__ZN3WTF9HashTableIyNS_12KeyValuePairIyPN6CyberKit11PluginProxyEEENS_24KeyValuePairKeyExtractorIS5_EENS_7IntHashIyEENS_18HashMapValueTraitsINS_10HashTraitsIyEENSB_IS4_EEEESC_E3addINS_17HashMapTranslatorISE_S9_EEyS4_EENS_18HashTableAddResultINS_17HashTableIteratorIyS5_S7_S9_SE_SC_EEEERKT0_RKT1_
__ZN3WTF9HashTableIyNS_12KeyValuePairIyPN6CyberKit11PluginProxyEEENS_24KeyValuePairKeyExtractorIS5_EENS_7IntHashIyEENS_18HashMapValueTraitsINS_10HashTraitsIyEENSB_IS4_EEEESC_E4findINS_22IdentityHashTranslatorIS9_EEyEENS_17HashTableIteratorIyS5_S7_S9_SE_SC_EERKT0_
__ZN3WTF9HashTableIyNS_12KeyValuePairIyPN6CyberKit11PluginProxyEEENS_24KeyValuePairKeyExtractorIS5_EENS_7IntHashIyEENS_18HashMapValueTraitsINS_10HashTraitsIyEENSB_IS4_EEEESC_E6expandEv
__ZN3WTF9HashTableIyNS_12KeyValuePairIyPN6CyberKit11PluginProxyEEENS_24KeyValuePairKeyExtractorIS5_EENS_7IntHashIyEENS_18HashMapValueTraitsINS_10HashTraitsIyEENSB_IS4_EEEESC_E6lookupINS_22IdentityHashTranslatorIS9_EEyEEPS5_RKT0_
__ZN3WTF9HashTableIyNS_12KeyValuePairIyPN6CyberKit11PluginProxyEEENS_24KeyValuePairKeyExtractorIS5_EENS_7IntHashIyEENS_18HashMapValueTraitsINS_10HashTraitsIyEENSB_IS4_EEEESC_E6rehashEi
__ZN3WTF9HashTableIyNS_12KeyValuePairIyPN6CyberKit11PluginProxyEEENS_24KeyValuePairKeyExtractorIS5_EENS_7IntHashIyEENS_18HashMapValueTraitsINS_10HashTraitsIyEENSB_IS4_EEEESC_E6removeEPS5_
__ZN6CyberKit11PluginProxy32didReceiveSyncPluginProxyMessageEPN7CoreIPC10ConnectionERNS1_14MessageDecoderERN3WTF6OwnPtrINS1_14MessageEncoderEEE
__ZN7CoreIPC13handleMessageIN8Messages11PluginProxy8EvaluateEN6CyberKit11PluginProxyEMS5_FvRKNS4_13NPVariantDataERKN3WTF6StringEbRbRS6_EEEvRNS_14MessageDecoderERNS_14MessageEncoderEPT0_T1_
__ZN6CyberKit13NPVariantDataC1Ev
__ZN7CoreIPC10Arguments3IN6CyberKit13NPVariantDataEN3WTF6StringEbE6decodeERNS_15ArgumentDecoderERS5_
__ZN7CoreIPC10Arguments2IN6CyberKit13NPVariantDataEN3WTF6StringEE6decodeERNS_15ArgumentDecoderERS5_
__ZN6CyberKit13NPVariantData6decodeERN7CoreIPC15ArgumentDecoderERS0_
__ZN6CyberKit11PluginProxy8evaluateERKNS_13NPVariantDataERKN3WTF6StringEbRbRS1_
__ZThn64_N6CyberKit10PluginView28protectPluginFromDestructionEv
__ZN6CyberKit17NPRemoteObjectMap24npVariantDataToNPVariantERKNS_13NPVariantDataEPNS_6PluginE
__ZN3WTF9HashTableIyNS_12KeyValuePairIyPN6CyberKit23NPObjectMessageReceiverEEENS_24KeyValuePairKeyExtractorIS5_EENS_7IntHashIyEENS_18HashMapValueTraitsINS_10HashTraitsIyEENSB_IS4_EEEESC_E16lookupForWritingINS_22IdentityHashTranslatorIS9_EEyEENSt3__14pairIPS5_bEERKT0_
__ZN3WTF9HashTableIyNS_12KeyValuePairIyPN6CyberKit23NPObjectMessageReceiverEEENS_24KeyValuePairKeyExtractorIS5_EENS_7IntHashIyEENS_18HashMapValueTraitsINS_10HashTraitsIyEENSB_IS4_EEEESC_E3addINS_17HashMapTranslatorISE_S9_EEyS4_EENS_18HashTableAddResultINS_17HashTableIteratorIyS5_S7_S9_SE_SC_EEEERKT0_RKT1_
__ZN3WTF9HashTableIyNS_12KeyValuePairIyPN6CyberKit23NPObjectMessageReceiverEEENS_24KeyValuePairKeyExtractorIS5_EENS_7IntHashIyEENS_18HashMapValueTraitsINS_10HashTraitsIyEENSB_IS4_EEEESC_E4findINS_22IdentityHashTranslatorIS9_EEyEENS_17HashTableIteratorIyS5_S7_S9_SE_SC_EERKT0_
__ZN3WTF9HashTableIyNS_12KeyValuePairIyPN6CyberKit23NPObjectMessageReceiverEEENS_24KeyValuePairKeyExtractorIS5_EENS_7IntHashIyEENS_18HashMapValueTraitsINS_10HashTraitsIyEENSB_IS4_EEEESC_E6expandEv
__ZN3WTF9HashTableIyNS_12KeyValuePairIyPN6CyberKit23NPObjectMessageReceiverEEENS_24KeyValuePairKeyExtractorIS5_EENS_7IntHashIyEENS_18HashMapValueTraitsINS_10HashTraitsIyEENSB_IS4_EEEESC_E6lookupINS_22IdentityHashTranslatorIS9_EEyEEPS5_RKT0_
__ZN3WTF9HashTableIyNS_12KeyValuePairIyPN6CyberKit23NPObjectMessageReceiverEEENS_24KeyValuePairKeyExtractorIS5_EENS_7IntHashIyEENS_18HashMapValueTraitsINS_10HashTraitsIyEENSB_IS4_EEEESC_E6rehashEi
__ZN3WTF9HashTableIyNS_12KeyValuePairIyPN6CyberKit23NPObjectMessageReceiverEEENS_24KeyValuePairKeyExtractorIS5_EENS_7IntHashIyEENS_18HashMapValueTraitsINS_10HashTraitsIyEENSB_IS4_EEEESC_E6removeEPS5_
__ZThn64_N6CyberKit10PluginView8evaluateEP8NPObjectRKN3WTF6StringEP10_NPVariantb
__ZN6CyberKit10PluginView8evaluateEP8NPObjectRKN3WTF6StringEP10_NPVariantb
__ZN6CyberKit18NPRuntimeObjectMap15PluginProtectorC1EPS0_
__ZN3WTF6RefPtrIN6CyberKit10PluginViewEEaSEPS2_
__ZN6CyberKit18NPRuntimeObjectMap8evaluateEP8NPObjectRKN3WTF6StringEP10_NPVariant
__ZNK6CyberKit18NPRuntimeObjectMap12globalObjectEv
__ZNK6CyberKit10PluginView5frameEv
__ZN3JSC6StrongINS_14JSGlobalObjectEEC2ERNS_2VMEPS1_
__ZN6CyberKit18NPRuntimeObjectMap19getOrCreateJSObjectEPN3JSC14JSGlobalObjectEP8NPObject
__ZN6CyberKit10NPJSObject12isNPJSObjectEP8NPObject
__ZN3JSC20StringSourceProvider6createERKN3WTF6StringES4_RKNS1_12TextPositionE
__ZN3JSC10SourceCodeC2EN3WTF10PassRefPtrINS_14SourceProviderEEEii
__ZNK3JSC20StringSourceProvider6sourceEv
__ZN6CyberKit18NPRuntimeObjectMap25convertJSValueToNPVariantEPN3JSC9ExecStateENS1_7JSValueER10_NPVariant
__ZN3JSC6StrongINS_14JSGlobalObjectEE5clearEv
__ZN6CyberKit18NPRuntimeObjectMap15PluginProtectorD1Ev
__ZN6CyberKit18NPRuntimeObjectMap15PluginProtectorD2Ev
__ZN6CyberKit17NPRemoteObjectMap24npVariantToNPVariantDataERK10_NPVariantPNS_6PluginE
__ZN6CyberKit13NPVariantData8makeVoidEv
__ZN6CyberKit21releaseNPVariantValueEP10_NPVariant
__ZThn64_N6CyberKit10PluginView30unprotectPluginFromDestructionEv
__ZN6CyberKit10PluginView30unprotectPluginFromDestructionEv
__ZNK6CyberKit13NPVariantData6encodeERN7CoreIPC15ArgumentEncoderE
__ZN6CyberKit17NPRemoteObjectMap21didReceiveSyncMessageEPN7CoreIPC10ConnectionERNS1_14MessageDecoderERN3WTF6OwnPtrINS1_14MessageEncoderEEE
__ZN6CyberKit23NPObjectMessageReceiver44didReceiveSyncNPObjectMessageReceiverMessageEPN7CoreIPC10ConnectionERNS1_14MessageDecoderERN3WTF6OwnPtrINS1_14MessageEncoderEEE
__ZN7CoreIPC13handleMessageIN8Messages23NPObjectMessageReceiver6InvokeEN6CyberKit23NPObjectMessageReceiverEMS5_FvRKNS4_16NPIdentifierDataERKN3WTF6VectorINS4_13NPVariantDataELm0ENS9_15CrashOnOverflowEEERbRSB_EEEvRNS_14MessageDecoderERNS_14MessageEncoderEPT0_T1_
__ZN6CyberKit16NPIdentifierDataC1Ev
__ZN7CoreIPC10Arguments2IN6CyberKit16NPIdentifierDataEN3WTF6VectorINS1_13NPVariantDataELm0ENS3_15CrashOnOverflowEEEE6decodeERNS_15ArgumentDecoderERS8_
__ZN6CyberKit16NPIdentifierData6decodeERN7CoreIPC15ArgumentDecoderERS0_
__ZN7CoreIPC13ArgumentCoderIN3WTF7CStringEE6decodeERNS_15ArgumentDecoderERS2_
__ZN3WTF6RefPtrINS_13CStringBufferEEaSERKS2_
__ZN7CoreIPC19VectorArgumentCoderILb0EN6CyberKit13NPVariantDataEE6decodeERNS_15ArgumentDecoderERN3WTF6VectorIS2_Lm0ENS6_15CrashOnOverflowEEE
__ZN3WTF6VectorIN6CyberKit13NPVariantDataELm0ENS_15CrashOnOverflowEE14shrinkCapacityEm
__ZN3WTF6VectorIN6CyberKit13NPVariantDataELm0ENS_15CrashOnOverflowEED2Ev
__ZN6CyberKit23NPObjectMessageReceiver6invokeERKNS_16NPIdentifierDataERKN3WTF6VectorINS_13NPVariantDataELm0ENS4_15CrashOnOverflowEEERbRS6_
__ZNK6CyberKit16NPIdentifierData18createNPIdentifierEv
__ZN6CyberKit10NPJSObject9NP_InvokeEP8NPObjectPvPK10_NPVariantjPS4_
__ZN6CyberKit10NPJSObject6invokeEPvPK10_NPVariantjPS2_
__ZNK6CyberKit18NPRuntimeObjectMap10globalExecEv
__ZN6CyberKitL27identifierFromIdentifierRepEPN3JSC9ExecStateEPN7CyberCore13IdentifierRepE
__ZN3JSC10Identifier3addEPNS_9ExecStateEPN3WTF10StringImplE
__ZNK3JSC8JSObject3getEPNS_9ExecStateENS_12PropertyNameE
__ZNK3JSC12PropertySlot8getValueEPNS_9ExecStateENS_12PropertyNameE
__ZN6CyberKit10NPJSObject6invokeEPN3JSC9ExecStateEPNS1_14JSGlobalObjectENS1_7JSValueEPK10_NPVariantjPS7_
__ZN3JSC20MarkedArgumentBufferD2Ev
__ZN6CyberKit13NPObjectProxy15isNPObjectProxyEP8NPObject
__ZN6CyberKit13NPVariantData19makeLocalNPObjectIDEy
__ZN3WTF6VectorI10_NPVariantLm0ENS_15CrashOnOverflowEED1Ev
__ZN6CyberKit14createNPStringERKN3WTF7CStringE
__ZN6CyberKit13NPVariantData10makeStringEPKcj
__ZN7CoreIPC13ArgumentCoderIN3WTF7CStringEE6encodeERNS_15ArgumentEncoderERKS2_
__ZN6CyberKit23NPObjectMessageReceiver10deallocateEv
__ZN6CyberKit17NPRemoteObjectMap18unregisterNPObjectEy
__ZN3WTF7HashMapIyPN6CyberKit23NPObjectMessageReceiverENS_7IntHashIyEENS_10HashTraitsIyEENS6_IS3_EEE6removeERKy
__ZN6CyberKit18deallocateNPObjectEP8NPObject
__ZN6CyberKit10NPJSObject13NP_DeallocateEP8NPObject
__ZN6CyberKit18NPRuntimeObjectMap19npJSObjectDestroyedEPNS_10NPJSObjectE
__ZN3WTF7HashMapIPN3JSC8JSObjectEPN6CyberKit10NPJSObjectENS_7PtrHashIS3_EENS_10HashTraitsIS3_EENS9_IS6_EEE6removeERKS3_
__ZN3WTF9HashTableIPN3JSC8JSObjectENS_12KeyValuePairIS3_PN6CyberKit10NPJSObjectEEENS_24KeyValuePairKeyExtractorIS8_EENS_7PtrHashIS3_EENS_18HashMapValueTraitsINS_10HashTraitsIS3_EENSE_IS7_EEEESF_E16lookupForWritingINS_22IdentityHashTranslatorISC_EES3_EENSt3__14pairIPS8_bEERKT0_
__ZN3WTF9HashTableIPN3JSC8JSObjectENS_12KeyValuePairIS3_PN6CyberKit10NPJSObjectEEENS_24KeyValuePairKeyExtractorIS8_EENS_7PtrHashIS3_EENS_18HashMapValueTraitsINS_10HashTraitsIS3_EENSE_IS7_EEEESF_E3addINS_17HashMapTranslatorISH_SC_EES3_S7_EENS_18HashTableAddResultINS_17HashTableIteratorIS3_S8_SA_SC_SH_SF_EEEERKT0_RKT1_
__ZN3WTF9HashTableIPN3JSC8JSObjectENS_12KeyValuePairIS3_PN6CyberKit10NPJSObjectEEENS_24KeyValuePairKeyExtractorIS8_EENS_7PtrHashIS3_EENS_18HashMapValueTraitsINS_10HashTraitsIS3_EENSE_IS7_EEEESF_E4findINS_22IdentityHashTranslatorISC_EES3_EENS_17HashTableIteratorIS3_S8_SA_SC_SH_SF_EERKT0_
__ZN3WTF9HashTableIPN3JSC8JSObjectENS_12KeyValuePairIS3_PN6CyberKit10NPJSObjectEEENS_24KeyValuePairKeyExtractorIS8_EENS_7PtrHashIS3_EENS_18HashMapValueTraitsINS_10HashTraitsIS3_EENSE_IS7_EEEESF_E6expandEv
__ZN3WTF9HashTableIPN3JSC8JSObjectENS_12KeyValuePairIS3_PN6CyberKit10NPJSObjectEEENS_24KeyValuePairKeyExtractorIS8_EENS_7PtrHashIS3_EENS_18HashMapValueTraitsINS_10HashTraitsIS3_EENSE_IS7_EEEESF_E6lookupINS_22IdentityHashTranslatorISC_EES3_EEPS8_RKT0_
__ZN3WTF9HashTableIPN3JSC8JSObjectENS_12KeyValuePairIS3_PN6CyberKit10NPJSObjectEEENS_24KeyValuePairKeyExtractorIS8_EENS_7PtrHashIS3_EENS_18HashMapValueTraitsINS_10HashTraitsIS3_EENSE_IS7_EEEESF_E6rehashEi
__ZN3WTF9HashTableIPN3JSC8JSObjectENS_12KeyValuePairIS3_PN6CyberKit10NPJSObjectEEENS_24KeyValuePairKeyExtractorIS8_EENS_7PtrHashIS3_EENS_18HashMapValueTraitsINS_10HashTraitsIS3_EENSE_IS7_EEEESF_E6removeEPS8_
__ZN3JSC6StrongINS_8JSObjectEE5clearEv
__ZNK6CyberKit25WebFrameNetworkingContext31localFileContentSniffingEnabledEv
__ZN6CyberKit23PluginProcessConnection17didReceiveMessageEPN7CoreIPC10ConnectionERNS1_14MessageDecoderE
__ZN6CyberKit11PluginProxy28didReceivePluginProxyMessageEPN7CoreIPC10ConnectionERNS1_14MessageDecoderE
__ZN7CoreIPC13handleMessageIN8Messages11PluginProxy7LoadURLEN6CyberKit11PluginProxyEMS5_FvyRKN3WTF6StringES9_S9_RKN7CyberCore13HTTPHeaderMapERKNS6_6VectorIhLm0ENS6_15CrashOnOverflowEEEbEEEvRNS_14MessageDecoderEPT0_T1_
__ZN7CoreIPC10Arguments7IyN3WTF6StringES2_S2_N7CyberCore13HTTPHeaderMapENS1_6VectorIhLm0ENS1_15CrashOnOverflowEEEbE6decodeERNS_15ArgumentDecoderERS8_
__ZN7CoreIPC10Arguments6IyN3WTF6StringES2_S2_N7CyberCore13HTTPHeaderMapENS1_6VectorIhLm0ENS1_15CrashOnOverflowEEEE6decodeERNS_15ArgumentDecoderERS8_
__ZN7CoreIPC10Arguments5IyN3WTF6StringES2_S2_N7CyberCore13HTTPHeaderMapEE6decodeERNS_15ArgumentDecoderERS5_
__ZN7CoreIPC13ArgumentCoderIN7CyberCore13HTTPHeaderMapEE6decodeERNS_15ArgumentDecoderERS2_
__ZN7CoreIPC13ArgumentCoderIN3WTF7HashMapINS1_12AtomicStringENS1_6StringENS1_15CaseFoldingHashENS1_10HashTraitsIS3_EENS6_IS4_EEEEE6decodeERNS_15ArgumentDecoderERS9_
__ZN7CoreIPC13ArgumentCoderIN3WTF7HashMapINS1_12AtomicStringENS1_6StringENS1_15CaseFoldingHashENS1_10HashTraitsIS3_EENS6_IS4_EEEEE6encodeERNS_15ArgumentEncoderERKS9_
__ZN7CoreIPC19VectorArgumentCoderILb1EhE6decodeERNS_15ArgumentDecoderERN3WTF6VectorIhLm0ENS4_15CrashOnOverflowEEE
__ZN3WTF6VectorIhLm0ENS_15CrashOnOverflowEE6resizeEm
__ZN7CoreIPC18callMemberFunctionIN6CyberKit11PluginProxyEMS2_FvyRKN3WTF6StringES6_S6_RKN7CyberCore13HTTPHeaderMapERKNS3_6VectorIhLm0ENS3_15CrashOnOverflowEEEbEyS4_S4_S4_S8_SD_bEEvRKNS_10Arguments7IT1_T2_T3_T4_T5_T6_T7_EEPT_T0_
__ZN6CyberKit11PluginProxy7loadURLEyRKN3WTF6StringES4_S4_RKN7CyberCore13HTTPHeaderMapERKNS1_6VectorIhLm0ENS1_15CrashOnOverflowEEEb
__ZThn64_N6CyberKit10PluginView7loadURLEyRKN3WTF6StringES4_S4_RKN7CyberCore13HTTPHeaderMapERKNS1_6VectorIhLm0ENS1_15CrashOnOverflowEEEb
__ZN6CyberKit10PluginView7loadURLEyRKN3WTF6StringES4_S4_RKN7CyberCore13HTTPHeaderMapERKNS1_6VectorIhLm0ENS1_15CrashOnOverflowEEEb
__ZN7CyberCore16FrameLoadRequestC2EPNS_14SecurityOriginE
__ZN6CyberKit10PluginView10URLRequest6createEyRKN7CyberCore16FrameLoadRequestEb
__ZN3WTF5DequeINS_6RefPtrIN6CyberKit10PluginView10URLRequestEEELm0EE22expandCapacityIfNeededEv
__ZN3WTF5DequeINS_6RefPtrIN6CyberKit10PluginView10URLRequestEEELm0EE14expandCapacityEv
__ZN3WTF16VectorBufferBaseINS_6RefPtrIN6CyberKit10PluginView10URLRequestEEEE14allocateBufferEm
__ZN3WTF10RefCountedIN7CyberCore8FormDataEE5derefEv
__ZN7CoreIPC13handleMessageIN8Messages11PluginProxy15DidCreatePluginEN6CyberKit11PluginProxyEMS5_FvbjEEEvRNS_14MessageDecoderERNS_14MessageEncoderEPT0_T1_
__ZN7CoreIPC10Arguments2IbjE6decodeERNS_15ArgumentDecoderERS1_
__ZN6CyberKit11PluginProxy15didCreatePluginEbj
__ZThn64_N6CyberKit10PluginView19didInitializePluginEv
__ZN6CyberKit10PluginView19didInitializePluginEv
__ZN6CyberKit10PluginView26windowAndViewFramesChangedERKN7CyberCore9FloatRectES4_
__ZN6CyberKit11PluginProxy26windowAndViewFramesChangedERKN7CyberCore7IntRectES4_
__ZN7CoreIPC10Connection4sendIN8Messages21PluginControllerProxy26WindowAndViewFramesChangedEEEbRKT_yj
__ZNK6CyberKit10PluginView27clipRectInWindowCoordinatesEv
__ZN6CyberKit11PluginProxy17geometryDidChangeERKN7CyberCore7IntSizeERKNS1_7IntRectERKNS1_15AffineTransformE
__ZNK7CyberCore15AffineTransformeqERKS0_
__ZN6CyberKit11PluginProxy17geometryDidChangeEv
__ZN6CyberKit15ShareableBitmap6HandleC1Ev
__ZN6CyberKit11PluginProxy18updateBackingStoreEv
__ZN7CoreIPC10Connection4sendIN8Messages21PluginControllerProxy17GeometryDidChangeEEEbRKT_yj
__ZNK7CoreIPC10Arguments4IRKN7CyberCore7IntSizeERKNS1_7IntRectERKNS1_15AffineTransformEfE6encodeERNS_15ArgumentEncoderE
__ZN7CoreIPC13ArgumentCoderIN7CyberCore15AffineTransformEE6encodeERNS_15ArgumentEncoderERKS2_
__ZNK6CyberKit15ShareableBitmap6Handle6encodeERN7CoreIPC15ArgumentEncoderE
__ZN6CyberKit10PluginView21redeliverManualStreamEv
__ZN6CyberKit11PluginProxy11pluginLayerEv
__ZN3WTF9RetainPtrI7CALayerEaSIPS1_EERS2_ONS0_IT_EE
__ZN6CyberKitL15makeRenderLayerEP7CALayerj
__ZN6CyberKit11PluginProxy23windowVisibilityChangedEb
__ZN7CoreIPC10Connection4sendIN8Messages21PluginControllerProxy23WindowVisibilityChangedEEEbRKT_yj
__ZNK6CyberKit7WebPage15windowIsFocusedEv
__ZN6CyberKit11PluginProxy18windowFocusChangedEb
__ZN7CoreIPC10Connection4sendIN8Messages21PluginControllerProxy18WindowFocusChangedEEEbRKT_yj
__ZN6CyberKit11PluginProxy16wantsWheelEventsEv
__ZN6CyberKit11PluginProxy31pluginFocusOrWindowFocusChangedEb
__ZThn64_N6CyberKit10PluginView31pluginFocusOrWindowFocusChangedEb
__ZN6CyberKit10PluginView31pluginFocusOrWindowFocusChangedEb
__ZNK6CyberKit11PluginProxy32pluginComplexTextInputIdentifierEv
__ZN7CoreIPC13MessageSender4sendIN8Messages12WebPageProxy31PluginFocusOrWindowFocusChangedEEEbRKT_y
__ZN7CyberCore7RunLoop5TimerIN6CyberKit10PluginViewEE5firedEv
__ZN6CyberKit10PluginView28pendingURLRequestsTimerFiredEv
__ZN3WTF5DequeINS_6RefPtrIN6CyberKit10PluginView10URLRequestEEELm0EE11removeFirstEv
__ZN6CyberKit10PluginView17performURLRequestEPNS0_10URLRequestE
__ZN6CyberKit10PluginView9addStreamEPNS0_6StreamE
__ZN3WTF7HashMapIyNS_6RefPtrIN6CyberKit10PluginView6StreamEEENS_7IntHashIyEENS_10HashTraitsIyEENS8_IS5_EEE3setERKyNS_10PassRefPtrIS4_EE
__ZN3WTF17HashMapTranslatorINS_18HashMapValueTraitsINS_10HashTraitsIyEENS2_INS_6RefPtrIN6CyberKit10PluginView6StreamEEEEEEENS_7IntHashIyEEE9translateINS_12KeyValuePairIyS8_EEyNS_10PassRefPtrIS7_EEEEvRT_RKT0_RKT1_
__ZN3WTF6RefPtrIN6CyberKit10PluginView6StreamEEaSERKNS_10PassRefPtrIS3_EE
__ZN6CyberKit10PluginView6Stream5startEv
__ZN3WTF6RefPtrIN7CyberCore26NetscapePlugInStreamLoaderEEaSERKNS_10PassRefPtrIS2_EE
__ZN3WTF10RefCountedIN6CyberKit10PluginView10URLRequestEE5derefEv
__ZN6CyberKit10PluginView6Stream18didReceiveResponseEPN7CyberCore26NetscapePlugInStreamLoaderERKNS2_16ResourceResponseE
__ZN6CyberKitL16buildHTTPHeadersERKN7CyberCore16ResourceResponseERx
__ZN6CyberKit11PluginProxy24streamDidReceiveResponseEyRKN7CyberCore4KURLEjjRKN3WTF6StringES8_S8_
__ZN7CoreIPC10Connection4sendIN8Messages21PluginControllerProxy24StreamDidReceiveResponseEEEbRKT_yj
__ZNK7CoreIPC10Arguments6IyRKN3WTF6StringEjjS4_S4_E6encodeERNS_15ArgumentEncoderE
__ZNK7CoreIPC10Arguments4IyRKN3WTF6StringEjjE6encodeERNS_15ArgumentEncoderE
__ZNK7CyberCore32NetscapePlugInStreamLoaderClient15wantsAllStreamsEv
__ZN6CyberKit10PluginView6Stream14didReceiveDataEPN7CyberCore26NetscapePlugInStreamLoaderEPKci
__ZN6CyberKit11PluginProxy20streamDidReceiveDataEyPKci
__ZN7CoreIPC10Connection4sendIN8Messages21PluginControllerProxy20StreamDidReceiveDataEEEbRKT_yj
__ZN6CyberKit10PluginView6Stream16didFinishLoadingEPN7CyberCore26NetscapePlugInStreamLoaderE
__ZN6CyberKit11PluginProxy22streamDidFinishLoadingEy
__ZN7CoreIPC10Connection4sendIN8Messages21PluginControllerProxy22StreamDidFinishLoadingEEEbRKT_yj
__ZN3WTF7HashMapIyNS_6RefPtrIN6CyberKit10PluginView6StreamEEENS_7IntHashIyEENS_10HashTraitsIyEENS8_IS5_EEE6removeERKy
__ZN3WTF9HashTableIyNS_12KeyValuePairIyNS_6RefPtrIN6CyberKit10PluginView6StreamEEEEENS_24KeyValuePairKeyExtractorIS7_EENS_7IntHashIyEENS_18HashMapValueTraitsINS_10HashTraitsIyEENSD_IS6_EEEESE_E12deleteBucketERS7_
__ZN3WTF9HashTableIyNS_12KeyValuePairIyNS_6RefPtrIN6CyberKit10PluginView6StreamEEEEENS_24KeyValuePairKeyExtractorIS7_EENS_7IntHashIyEENS_18HashMapValueTraitsINS_10HashTraitsIyEENSD_IS6_EEEESE_E15deallocateTableEPS7_i
__ZN3WTF9HashTableIyNS_12KeyValuePairIyNS_6RefPtrIN6CyberKit10PluginView6StreamEEEEENS_24KeyValuePairKeyExtractorIS7_EENS_7IntHashIyEENS_18HashMapValueTraitsINS_10HashTraitsIyEENSD_IS6_EEEESE_E16lookupForWritingINS_22IdentityHashTranslatorISB_EEyEENSt3__14pairIPS7_bEERKT0_
__ZN3WTF9HashTableIyNS_12KeyValuePairIyNS_6RefPtrIN6CyberKit10PluginView6StreamEEEEENS_24KeyValuePairKeyExtractorIS7_EENS_7IntHashIyEENS_18HashMapValueTraitsINS_10HashTraitsIyEENSD_IS6_EEEESE_E3addINS_17HashMapTranslatorISG_SB_EEyNS_10PassRefPtrIS5_EEEENS_18HashTableAddResultINS_17HashTableIteratorIyS7_S9_SB_SG_SE_EEEERKT0_RKT1_
__ZN3WTF9HashTableIyNS_12KeyValuePairIyNS_6RefPtrIN6CyberKit10PluginView6StreamEEEEENS_24KeyValuePairKeyExtractorIS7_EENS_7IntHashIyEENS_18HashMapValueTraitsINS_10HashTraitsIyEENSD_IS6_EEEESE_E4findINS_22IdentityHashTranslatorISB_EEyEENS_17HashTableIteratorIyS7_S9_SB_SG_SE_EERKT0_
__ZN3WTF9HashTableIyNS_12KeyValuePairIyNS_6RefPtrIN6CyberKit10PluginView6StreamEEEEENS_24KeyValuePairKeyExtractorIS7_EENS_7IntHashIyEENS_18HashMapValueTraitsINS_10HashTraitsIyEENSD_IS6_EEEESE_E6expandEv
__ZN3WTF9HashTableIyNS_12KeyValuePairIyNS_6RefPtrIN6CyberKit10PluginView6StreamEEEEENS_24KeyValuePairKeyExtractorIS7_EENS_7IntHashIyEENS_18HashMapValueTraitsINS_10HashTraitsIyEENSD_IS6_EEEESE_E6lookupINS_22IdentityHashTranslatorISB_EEyEEPS7_RKT0_
__ZN3WTF9HashTableIyNS_12KeyValuePairIyNS_6RefPtrIN6CyberKit10PluginView6StreamEEEEENS_24KeyValuePairKeyExtractorIS7_EENS_7IntHashIyEENS_18HashMapValueTraitsINS_10HashTraitsIyEENSD_IS6_EEEESE_E6rehashEi
__ZN3WTF9HashTableIyNS_12KeyValuePairIyNS_6RefPtrIN6CyberKit10PluginView6StreamEEEEENS_24KeyValuePairKeyExtractorIS7_EENS_7IntHashIyEENS_18HashMapValueTraitsINS_10HashTraitsIyEENSD_IS6_EEEESE_E6removeEPS7_
__ZN6CyberKit10PluginView6StreamD0Ev
__ZN6CyberKit10PluginView6StreamD2Ev
__ZN6CyberKit15WebChromeClient23enableSuddenTerminationEv
__ZN7CoreIPC13MessageSender4sendIN8Messages15WebProcessProxy23EnableSuddenTerminationEEEbRKT_y
__ZN6CyberKit20WebFrameLoaderClient19saveViewStateToItemEPN7CyberCore11HistoryItemE
__ZN6CyberKit20WebFrameLoaderClient19detachedFromParent2Ev
__ZN6CyberKit30InjectedBundlePageLoaderClient27didRemoveFrameFromHierarchyEPNS_7WebPageEPNS_8WebFrameERN3WTF6RefPtrINS_9APIObjectEEE
__ZN7CoreIPC13MessageSender4sendIN8Messages12WebPageProxy27DidRemoveFrameFromHierarchyEEEbRKT_y
__ZN6CyberKit20WebFrameLoaderClient19detachedFromParent3Ev
__ZN6CyberKit15WebEditorClient19frameWillDetachPageEPN7CyberCore5FrameE
__ZN6CyberKit20WebFrameLoaderClient20frameLoaderDestroyedEv
__ZN6CyberKit8WebFrame10invalidateEv
__ZN6CyberKit10WebProcess14removeWebFrameEy
__ZN3WTF7HashMapIyPN6CyberKit8WebFrameENS_7IntHashIyEENS_10HashTraitsIyEENS6_IS3_EEE6removeERKy
__ZN7CoreIPC10Connection4sendIN8Messages15WebProcessProxy15DidDestroyFrameEEEbRKT_yj
__ZN6CyberKit25WebFrameNetworkingContextD0Ev
__ZN6CyberKit8WebFrameD0Ev
__ZN6CyberKit20WebFrameLoaderClientD1Ev
__ZN6CyberKit20WebFrameLoaderClientD2Ev
__ZN6CyberKit10PluginView15clipRectChangedEv
__ZN3JSC20StringSourceProviderD0Ev
__ZN7CoreIPC21handleMessageVariadicIN8Messages12WebPageProxy50DidReceiveServerRedirectForProvisionalLoadForFrameEN6CyberKit12WebPageProxyEMS5_FvyRKN3WTF6StringERNS_14MessageDecoderEEEEvSB_PT0_T1_
__ZN6CyberKit12WebPageProxy50didReceiveServerRedirectForProvisionalLoadForFrameEyRKN3WTF6StringERN7CoreIPC14MessageDecoderE
__ZN6CyberKit13WebFrameProxy42didReceiveServerRedirectForProvisionalLoadERKN3WTF6StringE
__ZN6CyberKit15WebLoaderClient50didReceiveServerRedirectForProvisionalLoadForFrameEPNS_12WebPageProxyEPNS_13WebFrameProxyEPNS_9APIObjectE
_WKErrorCopyLocalizedDescription
_WKErrorCopyWKErrorDomain
_WKPageLoadAlternateHTMLString
__ZN6CyberKit12WebPageProxy23loadAlternateHTMLStringERKN3WTF6StringES4_S4_PNS_9APIObjectE
__ZN6CyberKit15WebProcessProxy25assumeReadAccessToBaseURLERKN3WTF6StringE
__ZN6CyberKit17ChildProcessProxy4sendIN8Messages7WebPage23LoadAlternateHTMLStringEEEbRKT_yj
__ZNK7CoreIPC10Arguments4IRKN3WTF6StringES4_S4_RKN6CyberKit28WebContextUserMessageEncoderEE6encodeERNS_15ArgumentEncoderE
__ZNK3WTF6String10startsWithERKS0_
__ZN7CoreIPC13handleMessageIN8Messages15WebProcessProxy24DidPerformServerRedirectEN6CyberKit15WebProcessProxyEMS5_FvyRKN3WTF6StringES9_yEEEvRNS_14MessageDecoderEPT0_T1_
__ZN6CyberKit15WebProcessProxy24didPerformServerRedirectEyRKN3WTF6StringES4_y
__ZN6CyberKit16WebHistoryClient24didPerformServerRedirectEPNS_10WebContextEPNS_12WebPageProxyERKN3WTF6StringES8_PNS_13WebFrameProxyE
__ZN3WTF9HashTableIyyNS_17IdentityExtractorENS_7IntHashIyEENS_10HashTraitsIyEES5_E16lookupForWritingINS_22IdentityHashTranslatorIS3_EEyEENSt3__14pairIPybEERKT0_
__ZN3WTF9HashTableIyyNS_17IdentityExtractorENS_7IntHashIyEENS_10HashTraitsIyEES5_E4findINS_22IdentityHashTranslatorIS3_EEyEENS_17HashTableIteratorIyyS1_S3_S5_S5_EERKT0_
__ZN6CyberKit10PluginView18setWindowIsVisibleEb
__ZN6CyberKit10PluginView18setWindowIsFocusedEb
__ZN3WTF9HashTableINS_6RefPtrIN7CyberCore11HistoryItemEEENS_12KeyValuePairIS4_yEENS_24KeyValuePairKeyExtractorIS6_EENS_7PtrHashIS4_EENS_22KeyValuePairHashTraitsINS_10HashTraitsIS4_EENSC_IyEEEESD_E15deallocateTableEPS6_i
__ZN3WTF9HashTableINS_6RefPtrIN7CyberCore11HistoryItemEEENS_12KeyValuePairIS4_yEENS_24KeyValuePairKeyExtractorIS6_EENS_7PtrHashIS4_EENS_22KeyValuePairHashTraitsINS_10HashTraitsIS4_EENSC_IyEEEESD_E16lookupForWritingINS_22IdentityHashTranslatorISA_EES4_EENSt3__14pairIPS6_bEERKT0_
__ZN3WTF9HashTableINS_6RefPtrIN7CyberCore11HistoryItemEEENS_12KeyValuePairIS4_yEENS_24KeyValuePairKeyExtractorIS6_EENS_7PtrHashIS4_EENS_22KeyValuePairHashTraitsINS_10HashTraitsIS4_EENSC_IyEEEESD_E3addINS_17HashMapTranslatorISF_SA_EES4_yEENS_18HashTableAddResultINS_17HashTableIteratorIS4_S6_S8_SA_SF_SD_EEEERKT0_RKT1_
__ZN3WTF9HashTableINS_6RefPtrIN7CyberCore11HistoryItemEEENS_12KeyValuePairIS4_yEENS_24KeyValuePairKeyExtractorIS6_EENS_7PtrHashIS4_EENS_22KeyValuePairHashTraitsINS_10HashTraitsIS4_EENSC_IyEEEESD_E4findINS_22IdentityHashTranslatorISA_EES4_EENS_17HashTableIteratorIS4_S6_S8_SA_SF_SD_EERKT0_
__ZN3WTF9HashTableINS_6RefPtrIN7CyberCore11HistoryItemEEENS_12KeyValuePairIS4_yEENS_24KeyValuePairKeyExtractorIS6_EENS_7PtrHashIS4_EENS_22KeyValuePairHashTraitsINS_10HashTraitsIS4_EENSC_IyEEEESD_E6expandEv
__ZN3WTF9HashTableINS_6RefPtrIN7CyberCore11HistoryItemEEENS_12KeyValuePairIS4_yEENS_24KeyValuePairKeyExtractorIS6_EENS_7PtrHashIS4_EENS_22KeyValuePairHashTraitsINS_10HashTraitsIS4_EENSC_IyEEEESD_E6lookupINS_17HashMapTranslatorISF_SA_EEPS3_EEPS6_RKT0_
__ZN3WTF9HashTableINS_6RefPtrIN7CyberCore11HistoryItemEEENS_12KeyValuePairIS4_yEENS_24KeyValuePairKeyExtractorIS6_EENS_7PtrHashIS4_EENS_22KeyValuePairHashTraitsINS_10HashTraitsIS4_EENSC_IyEEEESD_E6lookupINS_22IdentityHashTranslatorISA_EES4_EEPS6_RKT0_
__ZN3WTF9HashTableINS_6RefPtrIN7CyberCore11HistoryItemEEENS_12KeyValuePairIS4_yEENS_24KeyValuePairKeyExtractorIS6_EENS_7PtrHashIS4_EENS_22KeyValuePairHashTraitsINS_10HashTraitsIS4_EENSC_IyEEEESD_E6rehashEi
__ZN3WTF9HashTableINS_6RefPtrIN7CyberCore11HistoryItemEEENS_12KeyValuePairIS4_yEENS_24KeyValuePairKeyExtractorIS6_EENS_7PtrHashIS4_EENS_22KeyValuePairHashTraitsINS_10HashTraitsIS4_EENSC_IyEEEESD_E6removeEPS6_
__ZNK6CyberKit11PluginProxy17needsBackingStoreEv
__ZN6CyberKit15ShareableBitmap6createERKN7CyberCore7IntSizeEj
__ZN6CyberKit15ShareableBitmap15createShareableERKN7CyberCore7IntSizeEj
__ZN6CyberKit15ShareableBitmap12createHandleERNS0_6HandleENS_12SharedMemory10ProtectionE
__ZN7CyberCore22DeferrableOneShotTimerIN6CyberKit10PluginViewEE7restartEv
__ZN6CyberKit11PluginProxy6updateERKN7CyberCore7IntRectE
__ZN6CyberKit15ShareableBitmap21createGraphicsContextEv
__ZNK6CyberKit15ShareableBitmap4dataEv
__ZN3WTF10PassOwnPtrIN7CyberCore15GraphicsContextEED2Ev
__ZN6CyberKit15ShareableBitmap5paintERN7CyberCore15GraphicsContextEfRKNS1_8IntPointERKNS1_7IntRectE
__ZN6CyberKit15ShareableBitmap15makeCGImageCopyEv
__ZN3WTF6OwnPtrIN7CyberCore15GraphicsContextEED2Ev
__ZN6CyberKit15ShareableBitmap24releaseBitmapContextDataEPvS1_
__ZN3WTF10RefCountedIN6CyberKit15ShareableBitmapEE5derefEv
__ZN6CyberKit10paintImageEP9CGContextP7CGImaged7CGPoint6CGRect
__ZThn64_N6CyberKit10PluginView10invalidateERKN7CyberCore7IntRectE
__ZN6CyberKit10PluginView14invalidateRectERKN7CyberCore7IntRectE
__ZN6CyberKit12WebInspector29didReceiveWebInspectorMessageEPN7CoreIPC10ConnectionERNS1_14MessageDecoderE
__ZN6CyberKit12WebInspector5closeEv
__ZN6CyberKit10WebProcess28setProcessSuppressionEnabledEb
__ZN6CyberKit7WebPage12setThrottledEb
__ZN6CyberKit12ChildProcess28setProcessSuppressionEnabledEb
__ZN6CyberKit10PluginView19horizontalScrollbarEv
__ZN6CyberKit11PluginProxy19horizontalScrollbarEv
__ZN6CyberKit10PluginView17verticalScrollbarEv
__ZN6CyberKit11PluginProxy17verticalScrollbarEv
__ZN6CyberKit14InjectedBundle22didInitializePageGroupEPNS_17WebPageGroupProxyE
__ZN6CyberKit20InjectedBundleClient22didInitializePageGroupEPNS_14InjectedBundleEPNS_17WebPageGroupProxyE
__ZN6CyberKit15DrawingAreaImpl6createEPNS_7WebPageERKNS_25WebPageCreationParametersE
__ZN6CyberKit15DrawingAreaImplC2EPNS_7WebPageERKNS_25WebPageCreationParametersE
__ZN6CyberKit15DrawingAreaImpl18setPaintingEnabledEb
__ZN3WTF9HashTableINS_6StringES1_NS_17IdentityExtractorENS_15CaseFoldingHashENS_10HashTraitsIS1_EES5_E3addINS_22IdentityHashTranslatorIS3_EES1_S1_EENS_18HashTableAddResultINS_17HashTableIteratorIS1_S1_S2_S3_S5_S5_EEEERKT0_RKT1_
__ZN3WTF9HashTableINS_6StringES1_NS_17IdentityExtractorENS_15CaseFoldingHashENS_10HashTraitsIS1_EES5_E6expandEv
__ZN3WTF9HashTableINS_6StringES1_NS_17IdentityExtractorENS_15CaseFoldingHashENS_10HashTraitsIS1_EES5_E6rehashEi
__ZN3WTF9HashTableINS_6StringES1_NS_17IdentityExtractorENS_15CaseFoldingHashENS_10HashTraitsIS1_EES5_E15deallocateTableEPS1_i
__ZN6CyberKit15DrawingAreaImpl17updatePreferencesERKNS_19WebPreferencesStoreE
__ZN6CyberKit11DrawingArea32didChangeScrollOffsetForAnyFrameEv
__ZN6CyberKit15DrawingAreaImpl21setNeedsDisplayInRectERKN7CyberCore7IntRectE
__ZN6CyberKit11DrawingArea27mainFrameContentSizeChangedERKN7CyberCore7IntSizeE
__ZN7CoreIPC13handleMessageIN8Messages7WebPage20PreferencesDidChangeEN6CyberKit7WebPageEMS5_FvRKNS4_19WebPreferencesStoreEEEEvRNS_14MessageDecoderEPT0_T1_
__ZN6CyberKit7WebPage20preferencesDidChangeERKNS_19WebPreferencesStoreE
__ZN6CyberKit19WebPreferencesStore25removeTestRunnerOverridesEv
__ZN7CyberCore22DeferrableOneShotTimerIN6CyberKit10PluginViewEE5firedEv
__ZN6CyberKit10PluginView24pluginSnapshotTimerFiredEPN7CyberCore22DeferrableOneShotTimerIS0_EE
__ZNK6CyberKit11PluginProxy20supportsSnapshottingEv
__ZN7CoreIPC10Connection8sendSyncIN8Messages21PluginControllerProxy20SupportsSnapshottingEEEbRKT_RKNS5_5ReplyEydj
__ZN6CyberKit7WebPage14setMediaVolumeEf
__ZN7CoreIPC21handleMessageVariadicIN8Messages7WebPage7LoadURLEN6CyberKit7WebPageEMS5_FvRKN3WTF6StringERKNS4_16SandboxExtension6HandleERNS_14MessageDecoderEEEEvSF_PT0_T1_
__ZN7CoreIPC10Arguments2IN3WTF6StringEN6CyberKit16SandboxExtension6HandleEE6decodeERNS_15ArgumentDecoderERS6_
__ZN6CyberKit7WebPage7loadURLERKN3WTF6StringERKNS_16SandboxExtension6HandleERN7CoreIPC14MessageDecoderE
__ZN6CyberKit11PluginProxy8snapshotEv
__ZN7CoreIPC10Connection8sendSyncIN8Messages21PluginControllerProxy8SnapshotEEEbRKT_RKNS5_5ReplyEydj
__ZN6CyberKit15ShareableBitmap6Handle6decodeERN7CoreIPC15ArgumentDecoderERS1_
__ZN6CyberKit15ShareableBitmap6createERKNS0_6HandleENS_12SharedMemory10ProtectionE
__ZN6CyberKit15ShareableBitmap11createImageEv
__ZN6CyberKit15ShareableBitmap11makeCGImageEv
__ZNK6CyberKit15ShareableBitmap13createCGImageEP14CGDataProvider
__ZN3WTF6RefPtrIN7CyberCore5ImageEEaSERKNS_10PassRefPtrIS2_EE
__ZN6CyberKit15DrawingAreaImpl25setLayerTreeStateIsFrozenEb
__ZN6CyberKit10PluginViewD0Ev
__ZN6CyberKit10PluginViewD2Ev
__ZN6CyberKit7WebPage16removePluginViewEPNS_10PluginViewE
__ZN3WTF7HashSetIPN6CyberKit10PluginViewENS_7PtrHashIS3_EENS_10HashTraitsIS3_EEE6removeERKS3_
__ZNK3WTF9HashTableIPN6CyberKit10PluginViewES3_NS_17IdentityExtractorENS_7PtrHashIS3_EENS_10HashTraitsIS3_EES8_E4findINS_22IdentityHashTranslatorIS6_EES3_EENS_22HashTableConstIteratorIS3_S3_S4_S6_S8_S8_EERKT0_
__ZN3WTF9HashTableIPN6CyberKit10PluginViewES3_NS_17IdentityExtractorENS_7PtrHashIS3_EENS_10HashTraitsIS3_EES8_E6lookupINS_22IdentityHashTranslatorIS6_EES3_EEPS3_RKT0_
__ZN3WTF9HashTableIPN6CyberKit10PluginViewES3_NS_17IdentityExtractorENS_7PtrHashIS3_EENS_10HashTraitsIS3_EES8_E6removeEPS3_
__ZN6CyberKit10PluginView21destroyPluginAndResetEv
__ZN6CyberKit6Plugin13destroyPluginEv
__ZN6CyberKit11PluginProxy7destroyEv
__ZN7CoreIPC10Connection8sendSyncIN8Messages20WebProcessConnection13DestroyPluginEEEbRKT_RKNS5_5ReplyEydj
__ZN7CoreIPC10Connection18connectionDidCloseEv
__ZN7CoreIPC10Connection18platformInvalidateEv
____ZN7CoreIPC10Connection24initializeDeadNameSourceEv_block_invoke
__ZN6CyberKit23PluginProcessConnection17removePluginProxyEPNS_11PluginProxyE
____ZN7CoreIPCL25createDataAvailableSourceEjP9WorkQueueRKN3WTF8FunctionIFvvEEE_block_invoke
__ZN3WTF7HashMapIyPN6CyberKit11PluginProxyENS_7IntHashIyEENS_10HashTraitsIyEENS6_IS3_EEE6removeERKy
__ZN6CyberKit17NPRemoteObjectMap15pluginDestroyedEPNS_6PluginE
__ZN3WTF6VectorIPN6CyberKit23NPObjectMessageReceiverELm0ENS_15CrashOnOverflowEE14appendSlowCaseIS3_EEvRKT_
__ZN3WTF6VectorIPN6CyberKit23NPObjectMessageReceiverELm0ENS_15CrashOnOverflowEE14expandCapacityEmPKS3_
__ZN3WTF6VectorIPN6CyberKit23NPObjectMessageReceiverELm0ENS_15CrashOnOverflowEE15reserveCapacityEm
__ZN3WTF16VectorBufferBaseIPN6CyberKit23NPObjectMessageReceiverEE14allocateBufferEm
__ZN3WTF15deleteAllValuesIPN6CyberKit23NPObjectMessageReceiverELm0ENS_15CrashOnOverflowEEEvRKNS_6VectorIT_XT0_ET1_EE
__ZN6CyberKit23NPObjectMessageReceiverD1Ev
__ZNK3WTF9HashTableIPN6CyberKit13NPObjectProxyES3_NS_17IdentityExtractorENS_7PtrHashIS3_EENS_10HashTraitsIS3_EES8_E5beginEv
__ZN3WTF10RefCountedIN6CyberKit17NPRemoteObjectMapEE5derefEv
__ZN6CyberKit17NPRemoteObjectMapD1Ev
__ZN6CyberKit17NPRemoteObjectMapD2Ev
__ZN7CoreIPC10Connection10invalidateEv
__ZN6CyberKit30PluginProcessConnectionManager29removePluginProcessConnectionEPNS_23PluginProcessConnectionE
__ZN3WTF7HashMapIyNS_6RefPtrIN7CoreIPC10ConnectionEEENS_7IntHashIyEENS_10HashTraitsIyEENS7_IS4_EEE6removeERKy
__ZN3WTF9HashTableIyNS_12KeyValuePairIyNS_6RefPtrIN7CoreIPC10ConnectionEEEEENS_24KeyValuePairKeyExtractorIS6_EENS_7IntHashIyEENS_18HashMapValueTraitsINS_10HashTraitsIyEENSC_IS5_EEEESD_E15deallocateTableEPS6_i
__ZN3WTF9HashTableIyNS_12KeyValuePairIyNS_6RefPtrIN7CoreIPC10ConnectionEEEEENS_24KeyValuePairKeyExtractorIS6_EENS_7IntHashIyEENS_18HashMapValueTraitsINS_10HashTraitsIyEENSC_IS5_EEEESD_E16lookupForWritingINS_22IdentityHashTranslatorISA_EEyEENSt3__14pairIPS6_bEERKT0_
__ZN3WTF9HashTableIyNS_12KeyValuePairIyNS_6RefPtrIN7CoreIPC10ConnectionEEEEENS_24KeyValuePairKeyExtractorIS6_EENS_7IntHashIyEENS_18HashMapValueTraitsINS_10HashTraitsIyEENSC_IS5_EEEESD_E3addINS_17HashMapTranslatorISF_SA_EEyNS_10PassRefPtrIS4_EEEENS_18HashTableAddResultINS_17HashTableIteratorIyS6_S8_SA_SF_SD_EEEERKT0_RKT1_
__ZN3WTF9HashTableIyNS_12KeyValuePairIyNS_6RefPtrIN7CoreIPC10ConnectionEEEEENS_24KeyValuePairKeyExtractorIS6_EENS_7IntHashIyEENS_18HashMapValueTraitsINS_10HashTraitsIyEENSC_IS5_EEEESD_E4findINS_22IdentityHashTranslatorISA_EEyEENS_17HashTableIteratorIyS6_S8_SA_SF_SD_EERKT0_
__ZN3WTF9HashTableIyNS_12KeyValuePairIyNS_6RefPtrIN7CoreIPC10ConnectionEEEEENS_24KeyValuePairKeyExtractorIS6_EENS_7IntHashIyEENS_18HashMapValueTraitsINS_10HashTraitsIyEENSC_IS5_EEEESD_E6expandEv
__ZN3WTF9HashTableIyNS_12KeyValuePairIyNS_6RefPtrIN7CoreIPC10ConnectionEEEEENS_24KeyValuePairKeyExtractorIS6_EENS_7IntHashIyEENS_18HashMapValueTraitsINS_10HashTraitsIyEENSC_IS5_EEEESD_E6lookupINS_22IdentityHashTranslatorISA_EEyEEPS6_RKT0_
__ZN3WTF9HashTableIyNS_12KeyValuePairIyNS_6RefPtrIN7CoreIPC10ConnectionEEEEENS_24KeyValuePairKeyExtractorIS6_EENS_7IntHashIyEENS_18HashMapValueTraitsINS_10HashTraitsIyEENSC_IS5_EEEESD_E6rehashEi
__ZN3WTF9HashTableIyNS_12KeyValuePairIyNS_6RefPtrIN7CoreIPC10ConnectionEEEEENS_24KeyValuePairKeyExtractorIS6_EENS_7IntHashIyEENS_18HashMapValueTraitsINS_10HashTraitsIyEENSC_IS5_EEEESD_E6removeEPS6_
__ZN3WTF6VectorINS_6RefPtrIN6CyberKit23PluginProcessConnectionEEELm0ENS_15CrashOnOverflowEE6removeEm
__ZN3WTF5DequeINS_6RefPtrIN6CyberKit10PluginView10URLRequestEEELm0EE5clearEv
__ZN3WTF5DequeINS_6RefPtrIN6CyberKit10PluginView10URLRequestEEELm0EE10destroyAllEv
__ZN6CyberKit18NPRuntimeObjectMap10invalidateEv
__ZN3WTF6VectorIPN6CyberKit10NPJSObjectELm0ENS_15CrashOnOverflowEE6resizeEm
__ZNK3WTF9HashTableIPN3JSC8JSObjectENS_12KeyValuePairIS3_PN6CyberKit10NPJSObjectEEENS_24KeyValuePairKeyExtractorIS8_EENS_7PtrHashIS3_EENS_18HashMapValueTraitsINS_10HashTraitsIS3_EENSE_IS7_EEEESF_E5beginEv
__ZN3WTF6VectorIP8NPObjectLm0ENS_15CrashOnOverflowEED1Ev
__ZN6CyberKit10PluginView16cancelAllStreamsEv
__ZN3WTF6VectorINS_6RefPtrIN6CyberKit10PluginView6StreamEEELm0ENS_15CrashOnOverflowEE6resizeEm
__ZN3WTF16VectorDestructorILb1ENS_6RefPtrIN6CyberKit10PluginView6StreamEEEE8destructEPS5_S7_
__ZN3WTF6VectorINS_6RefPtrIN6CyberKit10PluginView6StreamEEELm0ENS_15CrashOnOverflowEED2Ev
__ZN3WTF5DequeINS_6RefPtrIN6CyberKit10PluginView10URLRequestEEELm0EED2Ev
__ZN6CyberKit11PluginProxyD0Ev
__ZN6CyberKit11PluginProxyD2Ev
__ZN6CyberKit15ShareableBitmapD1Ev
__ZN6CyberKit15ShareableBitmapD2Ev
__ZN6CyberKit23PluginProcessConnectionD0Ev
__ZN6CyberKit23PluginProcessConnectionD2Ev
__ZN6CyberKit6PluginD2Ev
__ZNK6CyberKit15WebChromeClient17plugInExtraScriptEv
__ZNK6CyberKit26InjectedBundlePageUIClient17plugInExtraScriptEv
__ZNK6CyberKit15WebChromeClient21plugInStartLabelTitleERKN3WTF6StringE
__ZNK6CyberKit26InjectedBundlePageUIClient21plugInStartLabelTitleERKN3WTF6StringE
__ZNK6CyberKit15WebChromeClient24plugInStartLabelSubtitleERKN3WTF6StringE
__ZNK6CyberKit26InjectedBundlePageUIClient24plugInStartLabelSubtitleERKN3WTF6StringE
__ZN7CoreIPC10Connection26dispatchConnectionDidCloseEv
__ZN7CoreIPC10ConnectionD1Ev
__ZN7CoreIPC10ConnectionD2Ev
__ZN3WTF5DequeINS_6OwnPtrIN7CoreIPC14MessageEncoderEEELm0EED2Ev
__ZN3WTF5DequeINS_6OwnPtrIN7CoreIPC14MessageEncoderEEELm0EE10destroyAllEv
__ZN3WTF5DequeINS_6OwnPtrIN7CoreIPC14MessageDecoderEEELm0EED2Ev
__ZN3WTF5DequeINS_6OwnPtrIN7CoreIPC14MessageDecoderEEELm0EE10destroyAllEv
-[WKCustomProtocol initWithRequest:cachedResponse:client:]
__ZN6CyberKit21CustomProtocolManager17addCustomProtocolEP16WKCustomProtocol
-[WKCustomProtocol customProtocolID]
__ZN3WTF9RetainPtrI16WKCustomProtocolEC2EPS1_
__ZN3WTF9RetainPtrI16WKCustomProtocolEaSERKS2_
+[WKCustomProtocol canonicalRequestForRequest:]
-[WKCustomProtocol startLoading]
__ZN7CoreIPC13MessageSender4sendIN8Messages26CustomProtocolManagerProxy12StartLoadingEEEbRKT_y
__ZThn8_N6CyberKit12ChildProcess23messageSenderConnectionEv
__ZN6CyberKit26CustomProtocolManagerProxy17didReceiveMessageEPN7CoreIPC10ConnectionERNS1_14MessageDecoderE
__ZN7CoreIPC13handleMessageIN8Messages26CustomProtocolManagerProxy12StartLoadingEN6CyberKit26CustomProtocolManagerProxyEMS5_FvyRKN7CyberCore15ResourceRequestEEEEvRNS_14MessageDecoderEPT0_T1_
__ZN7CoreIPC10Arguments2IyN7CyberCore15ResourceRequestEE6decodeERNS_15ArgumentDecoderERS3_
__ZN6CyberKit26CustomProtocolManagerProxy12startLoadingEyRKN7CyberCore15ResourceRequestE
-[WKCustomProtocolLoader .cxx_construct]
-[WKCustomProtocolLoader initWithCustomProtocolManagerProxy:customProtocolID:request:connection:]
__ZN3WTF9RetainPtrI22WKCustomProtocolLoaderEC2EPS1_
__ZN3WTF9RetainPtrI22WKCustomProtocolLoaderEaSERKS2_
-[WKCustomProtocolLoader connection:willSendRequest:redirectResponse:]
-[WKCustomProtocolLoader connection:didReceiveResponse:]
__ZN7CoreIPC10Connection4sendIN8Messages21CustomProtocolManager18DidReceiveResponseEEEbRKT_yj
-[WKCustomProtocolLoader connection:didReceiveData:]
__ZN7CoreIPC10Connection4sendIN8Messages21CustomProtocolManager11DidLoadDataEEEbRKT_yj
__ZN7CoreIPC13handleMessageIN8Messages21CustomProtocolManager18DidReceiveResponseEN6CyberKit21CustomProtocolManagerEMS5_FvyRKN7CyberCore16ResourceResponseEjEEEvRNS_14MessageDecoderEPT0_T1_
-[WKCustomProtocolLoader connectionDidFinishLoading:]
__ZN7CoreIPC10Arguments3IyN7CyberCore16ResourceResponseEjE6decodeERNS_15ArgumentDecoderERS3_
__ZN7CoreIPC10Arguments2IyN7CyberCore16ResourceResponseEE6decodeERNS_15ArgumentDecoderERS3_
__ZN7CoreIPC10Connection4sendIN8Messages21CustomProtocolManager16DidFinishLoadingEEEbRKT_yj
__ZN3WTF7HashMapIyNS_9RetainPtrI22WKCustomProtocolLoaderEENS_7IntHashIyEENS_10HashTraitsIyEENS6_IS3_EEE6removeERKy
__ZN3WTF9HashTableIyNS_12KeyValuePairIyNS_9RetainPtrI22WKCustomProtocolLoaderEEEENS_24KeyValuePairKeyExtractorIS5_EENS_7IntHashIyEENS_18HashMapValueTraitsINS_10HashTraitsIyEENSB_IS4_EEEESC_E15deallocateTableEPS5_i
__ZN3WTF9HashTableIyNS_12KeyValuePairIyNS_9RetainPtrI22WKCustomProtocolLoaderEEEENS_24KeyValuePairKeyExtractorIS5_EENS_7IntHashIyEENS_18HashMapValueTraitsINS_10HashTraitsIyEENSB_IS4_EEEESC_E16lookupForWritingINS_22IdentityHashTranslatorIS9_EEyEENSt3__14pairIPS5_bEERKT0_
__ZN3WTF9HashTableIyNS_12KeyValuePairIyNS_9RetainPtrI22WKCustomProtocolLoaderEEEENS_24KeyValuePairKeyExtractorIS5_EENS_7IntHashIyEENS_18HashMapValueTraitsINS_10HashTraitsIyEENSB_IS4_EEEESC_E3addINS_17HashMapTranslatorISE_S9_EEyS4_EENS_18HashTableAddResultINS_17HashTableIteratorIyS5_S7_S9_SE_SC_EEEERKT0_RKT1_
__ZN3WTF9HashTableIyNS_12KeyValuePairIyNS_9RetainPtrI22WKCustomProtocolLoaderEEEENS_24KeyValuePairKeyExtractorIS5_EENS_7IntHashIyEENS_18HashMapValueTraitsINS_10HashTraitsIyEENSB_IS4_EEEESC_E4findINS_22IdentityHashTranslatorIS9_EEyEENS_17HashTableIteratorIyS5_S7_S9_SE_SC_EERKT0_
__ZN3WTF9HashTableIyNS_12KeyValuePairIyNS_9RetainPtrI22WKCustomProtocolLoaderEEEENS_24KeyValuePairKeyExtractorIS5_EENS_7IntHashIyEENS_18HashMapValueTraitsINS_10HashTraitsIyEENSB_IS4_EEEESC_E6expandEv
__ZN3WTF9HashTableIyNS_12KeyValuePairIyNS_9RetainPtrI22WKCustomProtocolLoaderEEEENS_24KeyValuePairKeyExtractorIS5_EENS_7IntHashIyEENS_18HashMapValueTraitsINS_10HashTraitsIyEENSB_IS4_EEEESC_E6lookupINS_22IdentityHashTranslatorIS9_EEyEEPS5_RKT0_
__ZN3WTF9HashTableIyNS_12KeyValuePairIyNS_9RetainPtrI22WKCustomProtocolLoaderEEEENS_24KeyValuePairKeyExtractorIS5_EENS_7IntHashIyEENS_18HashMapValueTraitsINS_10HashTraitsIyEENSB_IS4_EEEESC_E6rehashEi
__ZN3WTF9HashTableIyNS_12KeyValuePairIyNS_9RetainPtrI22WKCustomProtocolLoaderEEEENS_24KeyValuePairKeyExtractorIS5_EENS_7IntHashIyEENS_18HashMapValueTraitsINS_10HashTraitsIyEENSB_IS4_EEEESC_E6removeEPS5_
__ZN6CyberKit21CustomProtocolManager18didReceiveResponseEyRKN7CyberCore16ResourceResponseEj
__ZN6CyberKit21CustomProtocolManager13protocolForIDEy
__ZN3WTF9HashTableIyNS_12KeyValuePairIyNS_9RetainPtrI16WKCustomProtocolEEEENS_24KeyValuePairKeyExtractorIS5_EENS_7IntHashIyEENS_18HashMapValueTraitsINS_10HashTraitsIyEENSB_IS4_EEEESC_E15deallocateTableEPS5_i
__ZN3WTF9HashTableIyNS_12KeyValuePairIyNS_9RetainPtrI16WKCustomProtocolEEEENS_24KeyValuePairKeyExtractorIS5_EENS_7IntHashIyEENS_18HashMapValueTraitsINS_10HashTraitsIyEENSB_IS4_EEEESC_E16lookupForWritingINS_22IdentityHashTranslatorIS9_EEyEENSt3__14pairIPS5_bEERKT0_
__ZN3WTF9HashTableIyNS_12KeyValuePairIyNS_9RetainPtrI16WKCustomProtocolEEEENS_24KeyValuePairKeyExtractorIS5_EENS_7IntHashIyEENS_18HashMapValueTraitsINS_10HashTraitsIyEENSB_IS4_EEEESC_E3addINS_17HashMapTranslatorISE_S9_EEyS4_EENS_18HashTableAddResultINS_17HashTableIteratorIyS5_S7_S9_SE_SC_EEEERKT0_RKT1_
__ZN3WTF9HashTableIyNS_12KeyValuePairIyNS_9RetainPtrI16WKCustomProtocolEEEENS_24KeyValuePairKeyExtractorIS5_EENS_7IntHashIyEENS_18HashMapValueTraitsINS_10HashTraitsIyEENSB_IS4_EEEESC_E4findINS_22IdentityHashTranslatorIS9_EEyEENS_17HashTableIteratorIyS5_S7_S9_SE_SC_EERKT0_
__ZN3WTF9HashTableIyNS_12KeyValuePairIyNS_9RetainPtrI16WKCustomProtocolEEEENS_24KeyValuePairKeyExtractorIS5_EENS_7IntHashIyEENS_18HashMapValueTraitsINS_10HashTraitsIyEENSB_IS4_EEEESC_E6expandEv
__ZN3WTF9HashTableIyNS_12KeyValuePairIyNS_9RetainPtrI16WKCustomProtocolEEEENS_24KeyValuePairKeyExtractorIS5_EENS_7IntHashIyEENS_18HashMapValueTraitsINS_10HashTraitsIyEENSB_IS4_EEEESC_E6lookupINS_22IdentityHashTranslatorIS9_EEyEEPS5_RKT0_
__ZN3WTF9HashTableIyNS_12KeyValuePairIyNS_9RetainPtrI16WKCustomProtocolEEEENS_24KeyValuePairKeyExtractorIS5_EENS_7IntHashIyEENS_18HashMapValueTraitsINS_10HashTraitsIyEENSB_IS4_EEEESC_E6rehashEi
__ZN3WTF9HashTableIyNS_12KeyValuePairIyNS_9RetainPtrI16WKCustomProtocolEEEENS_24KeyValuePairKeyExtractorIS5_EENS_7IntHashIyEENS_18HashMapValueTraitsINS_10HashTraitsIyEENSB_IS4_EEEESC_E6removeEPS5_
__ZN3WTF9RetainPtrI16WKCustomProtocolEC2ERKS2_
__ZN3WTF9RetainPtrI13NSURLResponseEC2ERKS2_
-[WKCustomProtocolLoader dealloc]
___copy_helper_block_48
-[WKCustomProtocolLoader .cxx_destruct]
____ZN6CyberKit21CustomProtocolManager18didReceiveResponseEyRKN7CyberCore16ResourceResponseEj_block_invoke
__ZN7CoreIPC13handleMessageIN8Messages21CustomProtocolManager11DidLoadDataEN6CyberKit21CustomProtocolManagerEMS5_FvyRKNS_13DataReferenceEEEEvRNS_14MessageDecoderEPT0_T1_
__ZN7CoreIPC10Arguments2IyNS_13DataReferenceEE6decodeERNS_15ArgumentDecoderERS2_
__ZN6CyberKit21CustomProtocolManager11didLoadDataEyRKN7CoreIPC13DataReferenceE
___destroy_helper_block_49
__ZN3WTF9RetainPtrI6NSDataEC2ERKS2_
___copy_helper_block_42
__ZN6CyberKit21CustomProtocolManager16didFinishLoadingEy
____ZN6CyberKit21CustomProtocolManager11didLoadDataEyRKN7CoreIPC13DataReferenceE_block_invoke
___copy_helper_block_54
__ZN6CyberKit21CustomProtocolManager20removeCustomProtocolEP16WKCustomProtocol
__ZN3WTF7HashMapIyNS_9RetainPtrI16WKCustomProtocolEENS_7IntHashIyEENS_10HashTraitsIyEENS6_IS3_EEE6removeERKy
___destroy_helper_block_43
____ZN6CyberKit21CustomProtocolManager16didFinishLoadingEy_block_invoke
___destroy_helper_block_55
-[WKCustomProtocol stopLoading]
__ZN7CoreIPC13MessageSender4sendIN8Messages26CustomProtocolManagerProxy11StopLoadingEEEbRKT_y
__ZN6CyberKit26CustomProtocolManagerProxy11stopLoadingEy
__ZN7CoreIPC10Connection8sendSyncIN8Messages12WebPageProxy27DecidePolicyForResponseSyncEEEbRKT_RKNS5_5ReplyEydj
__ZNK7CoreIPC10Arguments4IyRKN7CyberCore16ResourceResponseERKNS1_15ResourceRequestEyE6encodeERNS_15ArgumentEncoderE
__ZN7CoreIPC21handleMessageVariadicIN8Messages12WebPageProxy27DecidePolicyForResponseSyncEN6CyberKit12WebPageProxyEMS5_FvyRKN7CyberCore16ResourceResponseERKNS6_15ResourceRequestEyRNS_14MessageDecoderERbRySG_EEEvSE_RNS_14MessageEncoderEPT0_T1_
__ZN7CoreIPC10Arguments4IyN7CyberCore16ResourceResponseENS1_15ResourceRequestEyE6decodeERNS_15ArgumentDecoderERS4_
__ZN7CoreIPC10Arguments3IyN7CyberCore16ResourceResponseENS1_15ResourceRequestEE6decodeERNS_15ArgumentDecoderERS4_
__ZN7CoreIPC18callMemberFunctionIN6CyberKit12WebPageProxyEMS2_FvyRKN7CyberCore16ResourceResponseERKNS3_15ResourceRequestEyRNS_14MessageDecoderERbRySD_EyS4_S7_ybyyEEvRKNS_10Arguments4IT1_T2_T3_T4_EESB_RNS_10Arguments3IT5_T6_T7_EEPT_T0_
__ZN6CyberKit12WebPageProxy27decidePolicyForResponseSyncEyRKN7CyberCore16ResourceResponseERKNS1_15ResourceRequestEyRN7CoreIPC14MessageDecoderERbRySC_
__ZN6CyberKit12WebPageProxy23decidePolicyForResponseEyRKN7CyberCore16ResourceResponseERKNS1_15ResourceRequestEyRN7CoreIPC14MessageDecoderE
__ZN6CyberKit15WebPolicyClient23decidePolicyForResponseEPNS_12WebPageProxyEPNS_13WebFrameProxyERKN7CyberCore16ResourceResponseERKNS5_15ResourceRequestEPNS_27WebFramePolicyListenerProxyEPNS_9APIObjectE
__ZN3WTF9HashTableINS_6StringES1_NS_17IdentityExtractorENS_15CaseFoldingHashENS_10HashTraitsIS1_EES5_E6lookupINS_22IdentityHashTranslatorIS3_EES1_EEPS1_RKT0_
__ZN6CyberKit15DrawingAreaImpl20graphicsLayerFactoryEv
__ZN6CyberKit15DrawingAreaImpl29scheduleCompositingLayerFlushEv
__ZN6CyberKit15DrawingAreaImpl23setRootCompositingLayerEPN7CyberCore13GraphicsLayerE
__ZN6CyberKit15DrawingAreaImpl31enterAcceleratedCompositingModeEPN7CyberCore13GraphicsLayerE
__ZN6CyberKit13LayerTreeHost6createEPNS_7WebPageE
__ZN6CyberKit16LayerTreeHostMac6createEPNS_7WebPageE
__ZN6CyberKit16LayerTreeHostMacC2EPNS_7WebPageE
__ZN6CyberKit13LayerTreeHostC2EPNS_7WebPageE
__ZN6CyberKit16LayerTreeHostMac10initializeEv
__ZN6CyberKit13LayerTreeHost20graphicsLayerFactoryEv
__ZNK7CyberCore19GraphicsLayerClient21shouldUseTiledBackingEPKNS_13GraphicsLayerE
__ZThn24_N6CyberKit16LayerTreeHostMac19notifyFlushRequiredEPKN7CyberCore13GraphicsLayerE
__ZNK6CyberKit15DrawingAreaImpl22layerTreeStateIsFrozenEv
__ZN6CyberKit16LayerTreeHostMac30setLayerFlushSchedulingEnabledEb
__ZN6CyberKit16LayerTreeHostMac18scheduleLayerFlushEv
__ZN3WTF6RefPtrIN6CyberKit13LayerTreeHostEEaSERKNS_10PassRefPtrIS2_EE
__ZN6CyberKit16LayerTreeHostMac43setShouldNotifyAfterNextScheduledLayerFlushEb
__ZN6CyberKit16LayerTreeHostMac23setRootCompositingLayerEPN7CyberCore13GraphicsLayerE
__ZN3WTF12VectorBufferIiLm32EE4swapERS1_
__ZN3WTF12VectorBufferIN7CyberCore6Region4SpanELm16EE4swapERS4_
__ZN3WTF6VectorIN7CyberCore6Region4SpanELm16ENS_15CrashOnOverflowEED2Ev
__ZN3WTF6VectorIiLm32ENS_15CrashOnOverflowEED2Ev
__ZN6CyberKit16LayerTreeHostMac41setNonCompositedContentsNeedDisplayInRectERKN7CyberCore7IntRectE
__ZNK7CyberCore19GraphicsLayerClient18isTrackingRepaintsEv
__ZThn32_N6CyberKit16LayerTreeHostMac11flushLayersEv
__ZN6CyberKit16LayerTreeHostMac26performScheduledLayerFlushEv
__ZN6CyberKit16LayerTreeHostMac24flushPendingLayerChangesEv
__ZThn24_NK6CyberKit16LayerTreeHostMac17deviceScaleFactorEv
__ZThn24_NK6CyberKit16LayerTreeHostMac24didCommitChangesForLayerEPKN7CyberCore13GraphicsLayerE
__ZN6CyberKit15DrawingAreaImpl23layerHostDidFlushLayersEv
__ZN6CyberKit16LayerTreeHostMac12forceRepaintEv
__ZThn24_N6CyberKit16LayerTreeHostMac13paintContentsEPKN7CyberCore13GraphicsLayerERNS1_15GraphicsContextEjRKNS1_7IntRectE
__ZN6CyberKit16LayerTreeHostMac13paintContentsEPKN7CyberCore13GraphicsLayerERNS1_15GraphicsContextEjRKNS1_7IntRectE
__ZN6CyberKit7WebPage8drawRectERN7CyberCore15GraphicsContextERKNS1_7IntRectE
__ZN6CyberKit16LayerTreeHostMac16layerTreeContextEv
__ZN6CyberKit20DrawingAreaProxyImpl31enterAcceleratedCompositingModeEyRKNS_16LayerTreeContextE
__ZN3WTF6OwnPtrIN6CyberKit12BackingStoreEE5clearEv
__ZN6CyberKit15WebChromeClient24decrementActivePageCountEv
__ZN6CyberKit12ChildProcess24decrementActiveTaskCountEv
__ZThn8_N6CyberKit18PluginProcessProxy8didCloseEPN7CoreIPC10ConnectionE
__ZN6CyberKit18PluginProcessProxy8didCloseEPN7CoreIPC10ConnectionE
__ZN6CyberKit17ChildProcessProxy4sendIN8Messages30PluginProcessConnectionManager20PluginProcessCrashedEEEbRKT_yj
__ZN6CyberKit18PluginProcessProxy36pluginProcessCrashedOrFailedToLaunchEv
__ZN6CyberKit20PluginProcessManager24removePluginProcessProxyEPNS_18PluginProcessProxyE
__ZN3WTF6VectorINS_6RefPtrIN6CyberKit18PluginProcessProxyEEELm0ENS_15CrashOnOverflowEE6removeEm
__ZN6CyberKit18PluginProcessProxyD0Ev
__ZN6CyberKit18PluginProcessProxyD2Ev
__ZN3WTF6VectorIN6CyberKit18PluginProcessProxy20ClearSiteDataRequestELm0ENS_15CrashOnOverflowEED2Ev
__ZN3WTF5DequeINS_6RefPtrIN8Messages15WebProcessProxy26GetPluginProcessConnection12DelayedReplyEEELm0EED2Ev
__ZN3WTF5DequeINS_6RefPtrIN8Messages15WebProcessProxy26GetPluginProcessConnection12DelayedReplyEEELm0EE10destroyAllEv
__ZN6CyberKit30PluginProcessConnectionManager17didReceiveMessageEPN7CoreIPC10ConnectionERNS1_14MessageDecoderE
__ZN6CyberKit17ChildProcessProxyD2Ev
__ZN6CyberKit15ProcessLauncher10invalidateEv
__ZN6CyberKit30PluginProcessConnectionManager20pluginProcessCrashedEy
__ZN6CyberKit15ProcessLauncher18platformInvalidateEv
__ZN7CoreIPC18MessageReceiverMapD1Ev
__ZN7CoreIPC18MessageReceiverMapD2Ev
__ZN3WTF6VectorINSt3__14pairINS_6OwnPtrIN7CoreIPC14MessageEncoderEEEjEELm0ENS_15CrashOnOverflowEED2Ev
____ZN6CyberKitL35setUpTerminationNotificationHandlerEi_block_invoke
____ZN6CyberKitL35setUpTerminationNotificationHandlerEi_block_invoke_2
__ZThn72_N6CyberKit21WebPlatformStrategies14cookiesEnabledERKN7CyberCore21NetworkStorageSessionERKNS1_4KURLES7_
__ZN6CyberKit21WebPlatformStrategies14cookiesEnabledERKN7CyberCore21NetworkStorageSessionERKNS1_4KURLES7_
_WKGetHTTPCookieAcceptPolicy
__ZN7CyberCore7RunLoop5TimerIN6CyberKit12ChildProcessEE5firedEv
__ZN6CyberKit12ChildProcess30suspensionHysteresisTimerFiredEv
__ZN3WTF9RetainPtrIP11objc_objectE5clearEv
__ZN6CyberKit20WebFrameLoaderClient50dispatchDidReceiveServerRedirectForProvisionalLoadEv
__ZN6CyberKit30InjectedBundlePageLoaderClient50didReceiveServerRedirectForProvisionalLoadForFrameEPNS_7WebPageEPNS_8WebFrameERN3WTF6RefPtrINS_9APIObjectEEE
__ZN7CoreIPC13MessageSender4sendIN8Messages12WebPageProxy50DidReceiveServerRedirectForProvisionalLoadForFrameEEEbRKT_y
__ZN6CyberKitL37applicationWindowModificationsStoppedEjPvjS0_j
__ZN6CyberKitL32applicationOcclusionStateChangedEv
__ZN6CyberKit10WebContext45updateProcessSuppressionStateOfChildProcessesEv
__ZNK6CyberKit10WebContext18usesNetworkProcessEv
__ZN6CyberKit19NetworkProcessProxy28setProcessSuppressionEnabledEb
__ZN6CyberKitL51updateProcessSuppressionStateOfGlobalChildProcessesEv
__ZN6CyberKit20PluginProcessManager28setProcessSuppressionEnabledEb
__ZN7CoreIPC10Connection4sendIN8Messages14NetworkProcess28SetProcessSuppressionEnabledEEEbRKT_yj
__ZN7CoreIPC10Connection4sendIN8Messages15WebProcessProxy24DidPerformServerRedirectEEEbRKT_yj
__ZN6CyberKit10PluginView12scriptObjectEPN3JSC14JSGlobalObjectE
__ZNK3WTF9HashTableIPN7CyberCore14ScrollableAreaES3_NS_17IdentityExtractorENS_7PtrHashIS3_EENS_10HashTraitsIS3_EES8_E5beginEv
__ZN6CyberKit10PluginView17frameRectsChangedEv
__ZN6CyberKit11PluginProxy24pluginScriptableNPObjectEv
__ZN7CoreIPC10Connection8sendSyncIN8Messages21PluginControllerProxy27GetPluginScriptableNPObjectEEEbRKT_RKNS5_5ReplyEydj
__ZN6CyberKit17NPRemoteObjectMap19createNPObjectProxyEyPNS_6PluginE
__ZN6CyberKit13NPObjectProxy6createEPNS_17NPRemoteObjectMapEPNS_6PluginEy
__ZN6CyberKit13NPObjectProxy11NP_AllocateEP4_NPPP7NPClass
__ZN3WTF9HashTableIPN6CyberKit13NPObjectProxyES3_NS_17IdentityExtractorENS_7PtrHashIS3_EENS_10HashTraitsIS3_EES8_E3addINS_22IdentityHashTranslatorIS6_EES3_S3_EENS_18HashTableAddResultINS_17HashTableIteratorIS3_S3_S4_S6_S8_S8_EEEERKT0_RKT1_
__ZN3WTF9HashTableIPN6CyberKit13NPObjectProxyES3_NS_17IdentityExtractorENS_7PtrHashIS3_EENS_10HashTraitsIS3_EES8_E6expandEv
__ZN3WTF9HashTableIPN6CyberKit13NPObjectProxyES3_NS_17IdentityExtractorENS_7PtrHashIS3_EENS_10HashTraitsIS3_EES8_E6rehashEi
__ZNK3WTF7HashMapIP8NPObjectN3JSC4WeakIN6CyberKit10JSNPObjectEEENS_7PtrHashIS2_EENS_10HashTraitsIS2_EENSA_IS7_EEE3getERKS2_
__ZN6CyberKit10JSNPObject6createEPN3JSC14JSGlobalObjectEPNS_18NPRuntimeObjectMapEP8NPObject
__ZN3JSC12allocateCellINS_9StructureEEEPvRNS_4HeapE
__ZN3JSC12allocateCellIN6CyberKit10JSNPObjectEEEPvRNS_4HeapE
__ZN6CyberKit10JSNPObjectC1EPN3JSC14JSGlobalObjectEPNS1_9StructureEPNS_18NPRuntimeObjectMapEP8NPObject
__ZN6CyberKit10JSNPObject14finishCreationEPN3JSC14JSGlobalObjectE
__ZN3WTF7HashMapIP8NPObjectN3JSC4WeakIN6CyberKit10JSNPObjectEEENS_7PtrHashIS2_EENS_10HashTraitsIS2_EENSA_IS7_EEE3setERKS2_NS3_8PassWeakIS6_EE
__ZN6CyberKit10JSNPObject18getOwnPropertySlotEPN3JSC6JSCellEPNS1_9ExecStateENS1_12PropertyNameERNS1_12PropertySlotE
__ZN6CyberKitL26npIdentifierFromIdentifierEN3JSC12PropertyNameE
__ZN6CyberKit13NPObjectProxy14NP_HasPropertyEP8NPObjectPv
__ZN6CyberKit13NPObjectProxy11hasPropertyEPv
__ZN6CyberKit16NPIdentifierData16fromNPIdentifierEPv
__ZN7CoreIPC10Connection8sendSyncIN8Messages23NPObjectMessageReceiver11HasPropertyEEEbRKT_RKNS5_5ReplyEydj
__ZNK6CyberKit16NPIdentifierData6encodeERN7CoreIPC15ArgumentEncoderE
__ZN6CyberKit13NPObjectProxy12NP_HasMethodEP8NPObjectPv
__ZN6CyberKit13NPObjectProxy9hasMethodEPv
__ZN7CoreIPC10Connection8sendSyncIN8Messages23NPObjectMessageReceiver9HasMethodEEEbRKT_RKNS5_5ReplyEydj
__ZN3WTF9HashTableIPN6CyberKit13NPObjectProxyES3_NS_17IdentityExtractorENS_7PtrHashIS3_EENS_10HashTraitsIS3_EES8_E16lookupForWritingINS_22IdentityHashTranslatorIS6_EES3_EENSt3__14pairIPS3_bEERKT0_
__ZN3WTF9HashTableIPN6CyberKit13NPObjectProxyES3_NS_17IdentityExtractorENS_7PtrHashIS3_EENS_10HashTraitsIS3_EES8_E4findINS_22IdentityHashTranslatorIS6_EES3_EENS_17HashTableIteratorIS3_S3_S4_S6_S8_S8_EERKT0_
__ZN3WTF9HashTableIPN6CyberKit13NPObjectProxyES3_NS_17IdentityExtractorENS_7PtrHashIS3_EENS_10HashTraitsIS3_EES8_E6lookupINS_22IdentityHashTranslatorIS6_EES3_EEPS3_RKT0_
__ZN7CoreIPC13handleMessageIN8Messages14StorageManager5ClearEN6CyberKit14StorageManagerEMS5_FvPNS_10ConnectionEyyyRKN3WTF6StringEEEEvS7_RNS_14MessageDecoderEPT0_T1_
__ZN7CoreIPC18callMemberFunctionIN6CyberKit14StorageManagerEMS2_FvPNS_10ConnectionEyyyRKN3WTF6StringEEyyyS6_EEvS4_RKNS_10Arguments4IT1_T2_T3_T4_EEPT_T0_
__ZN6CyberKit14StorageManager5clearEPN7CoreIPC10ConnectionEyyyRKN3WTF6StringE
__ZN6CyberKit14StorageManager11StorageArea5clearEPN7CoreIPC10ConnectionEyRKN3WTF6StringE
__ZN7CoreIPC10Connection4sendIN8Messages14StorageAreaMap8DidClearEEEbRKT_yj
__ZN6CyberKit15ShareableBitmap23releaseDataProviderDataEPvPKvm
__ZN3WTF6VectorIPN6CyberKit13NPObjectProxyELm0ENS_15CrashOnOverflowEE14appendSlowCaseIS3_EEvRKT_
__ZN3WTF6VectorIPN6CyberKit13NPObjectProxyELm0ENS_15CrashOnOverflowEE14expandCapacityEmPKS3_
__ZN3WTF6VectorIPN6CyberKit13NPObjectProxyELm0ENS_15CrashOnOverflowEE15reserveCapacityEm
__ZN3WTF16VectorBufferBaseIPN6CyberKit13NPObjectProxyEE14allocateBufferEm
__ZN6CyberKit13NPObjectProxy10invalidateEv
__ZN3WTF7HashSetIPN6CyberKit13NPObjectProxyENS_7PtrHashIS3_EENS_10HashTraitsIS3_EEE6removeERKS3_
__ZNK3WTF9HashTableIPN6CyberKit13NPObjectProxyES3_NS_17IdentityExtractorENS_7PtrHashIS3_EENS_10HashTraitsIS3_EES8_E4findINS_22IdentityHashTranslatorIS6_EES3_EENS_22HashTableConstIteratorIS3_S3_S4_S6_S8_S8_EERKT0_
__ZN3WTF9HashTableIPN6CyberKit13NPObjectProxyES3_NS_17IdentityExtractorENS_7PtrHashIS3_EENS_10HashTraitsIS3_EES8_E6removeEPS3_
__ZN6CyberKit10JSNPObject12leakNPObjectEv
__ZN3WTF6VectorIP8NPObjectLm0ENS_15CrashOnOverflowEE14appendSlowCaseIS2_EEvRKT_
__ZN3WTF6VectorIP8NPObjectLm0ENS_15CrashOnOverflowEE14expandCapacityEmPKS2_
__ZN3WTF6VectorIP8NPObjectLm0ENS_15CrashOnOverflowEE15reserveCapacityEm
__ZN3WTF16VectorBufferBaseIP8NPObjectE14allocateBufferEm
__ZN6CyberKit13NPObjectProxy13NP_DeallocateEP8NPObject
__ZN6CyberKit13NPObjectProxyD2Ev
__ZN6CyberKit10JSNPObject7destroyEPN3JSC6JSCellE
__ZN6CyberKit14StorageManager17destroyStorageMapEPN7CoreIPC10ConnectionEy
__ZN6CyberKit14StorageManager11StorageArea14removeListenerEPN7CoreIPC10ConnectionEy
__ZN3WTF7HashSetINSt3__14pairINS_6RefPtrIN7CoreIPC10ConnectionEEEyEENS_8PairHashIS6_yEENS_10HashTraitsIS7_EEE6removeERKS7_
__ZN3WTF9HashTableINSt3__14pairINS_6RefPtrIN7CoreIPC10ConnectionEEEyEES7_NS_17IdentityExtractorENS_8PairHashIS6_yEENS_10HashTraitsIS7_EESC_E15deallocateTableEPS7_i
__ZN3WTF9HashTableINSt3__14pairINS_6RefPtrIN7CoreIPC10ConnectionEEEyEES7_NS_17IdentityExtractorENS_8PairHashIS6_yEENS_10HashTraitsIS7_EESC_E16lookupForWritingINS_22IdentityHashTranslatorISA_EES7_EENS2_IPS7_bEERKT0_
__ZN3WTF9HashTableINSt3__14pairINS_6RefPtrIN7CoreIPC10ConnectionEEEyEES7_NS_17IdentityExtractorENS_8PairHashIS6_yEENS_10HashTraitsIS7_EESC_E3addINS_22IdentityHashTranslatorISA_EES7_S7_EENS_18HashTableAddResultINS_17HashTableIteratorIS7_S7_S8_SA_SC_SC_EEEERKT0_RKT1_
__ZN3WTF9HashTableINSt3__14pairINS_6RefPtrIN7CoreIPC10ConnectionEEEyEES7_NS_17IdentityExtractorENS_8PairHashIS6_yEENS_10HashTraitsIS7_EESC_E4findINS_22IdentityHashTranslatorISA_EES7_EENS_17HashTableIteratorIS7_S7_S8_SA_SC_SC_EERKT0_
__ZN3WTF9HashTableINSt3__14pairINS_6RefPtrIN7CoreIPC10ConnectionEEEyEES7_NS_17IdentityExtractorENS_8PairHashIS6_yEENS_10HashTraitsIS7_EESC_E6expandEv
__ZN3WTF9HashTableINSt3__14pairINS_6RefPtrIN7CoreIPC10ConnectionEEEyEES7_NS_17IdentityExtractorENS_8PairHashIS6_yEENS_10HashTraitsIS7_EESC_E6lookupINS_22IdentityHashTranslatorISA_EES7_EEPS7_RKT0_
__ZN3WTF9HashTableINSt3__14pairINS_6RefPtrIN7CoreIPC10ConnectionEEEyEES7_NS_17IdentityExtractorENS_8PairHashIS6_yEENS_10HashTraitsIS7_EESC_E6rehashEi
__ZN3WTF9HashTableINSt3__14pairINS_6RefPtrIN7CoreIPC10ConnectionEEEyEES7_NS_17IdentityExtractorENS_8PairHashIS6_yEENS_10HashTraitsIS7_EESC_E6removeEPS7_
__ZN3WTF7HashMapINSt3__14pairINS_6RefPtrIN7CoreIPC10ConnectionEEEyEENS3_IN6CyberKit14StorageManager11StorageAreaEEENS_8PairHashIS6_yEENS_10HashTraitsIS7_EENSE_ISB_EEE6removeERKS7_
__ZN3WTF20ThreadSafeRefCountedIN6CyberKit14StorageManager11StorageAreaEE5derefEv
__ZN6CyberKit15WebChromeClient18invalidateRootViewERKN7CyberCore7IntRectEb
__ZN6CyberKit15WebChromeClient6scrollERKN7CyberCore7IntSizeERKNS1_7IntRectES7_
__ZN6CyberKit7WebPage13pageDidScrollEv
__ZN6CyberKit26InjectedBundlePageUIClient13pageDidScrollEPNS_7WebPageE
__ZN7CoreIPC13MessageSender4sendIN8Messages12WebPageProxy13PageDidScrollEEEbRKT_y
__ZN6CyberKit29TiledCoreAnimationDrawingArea6scrollERKN7CyberCore7IntRectERKNS1_7IntSizeE
__ZN6CyberKit29TiledCoreAnimationDrawingArea25updateScrolledExposedRectEv
__ZN6CyberKit7WebPage33didChangeScrollOffsetForMainFrameEv
__ZN7CoreIPC13MessageSender4sendIN8Messages12WebPageProxy40DidChangeScrollOffsetPinningForMainFrameEEEbRKT_y
__ZNK7CoreIPC10Arguments4IbbbbE6encodeERNS_15ArgumentEncoderE
__ZN6CyberKit12WebPageProxy13pageDidScrollEv
__ZN6CyberKit11WebUIClient13pageDidScrollEPNS_12WebPageProxyE
__ZN7CoreIPC13handleMessageIN8Messages12WebPageProxy40DidChangeScrollOffsetPinningForMainFrameEN6CyberKit12WebPageProxyEMS5_FvbbbbEEEvRNS_14MessageDecoderEPT0_T1_
__ZN7CoreIPC10Arguments4IbbbbE6decodeERNS_15ArgumentDecoderERS1_
__ZN7CoreIPC10Arguments3IbbbE6decodeERNS_15ArgumentDecoderERS1_
__ZN7CoreIPC18callMemberFunctionIN6CyberKit12WebPageProxyEMS2_FvbbbbEbbbbEEvRKNS_10Arguments4IT1_T2_T3_T4_EEPT_T0_
__ZN6CyberKit12WebPageProxy40didChangeScrollOffsetPinningForMainFrameEbbbb
_WKBackForwardListGetBackItem
_PluginProcessMain
__ZN6CyberKit16ChildProcessMainINS_13PluginProcessENS_25PluginProcessMainDelegateEEEiiPPc
__ZN6CyberKit11CommandLine5parseEiPPc
__ZN6CyberKit24ChildProcessMainDelegate21installSignalHandlersEv
__ZN6CyberKit25PluginProcessMainDelegate23doPreInitializationWorkEv
__ZN6CyberKit20NetscapePluginModule32createPluginMIMETypesPreferencesERKN3WTF6StringE
_WKBundleFrameGetContentBounds
__ZNK6CyberKit8WebFrame13contentBoundsEv
_WKBundleFrameGetVisibleContentBounds
__ZNK6CyberKit8WebFrame20visibleContentBoundsEv
_WKBundlePageCreateSnapshotInDocumentCoordinates
__ZN6CyberKit7WebPage25scaledSnapshotWithOptionsERKN7CyberCore7IntRectEdj
__ZN6CyberKit8WebImage6createERKN7CyberCore7IntSizeENS_12ImageOptionsE
__ZNK6CyberKit14TypedAPIObjectILNS_9APIObject4TypeE12EE4typeEv
__ZN6CyberKit8WebImageD0Ev
__ZN6CyberKit8WebImage6createEN3WTF10PassRefPtrINS_15ShareableBitmapEEE
_WKImageGetTypeID
_WKPageGetBackingScaleFactor
__ZNK6CyberKit12WebPageProxy17deviceScaleFactorEv
_WKImageCreateCGImage
_WKPageClose
__ZN6CyberKit12WebPageProxy5closeEv
__ZN6CyberKit18WebBackForwardList10pageClosedEv
__ZN6CyberKit12WebPageProxy22backForwardRemovedItemEy
__ZN6CyberKit17ChildProcessProxy4sendIN8Messages7WebPage24DidRemoveBackForwardItemEEEbRKT_yj
__ZN6CyberKit14PageClientImpl10pageClosedEv
-[WKView(Internal) _pageClosed]
_WKAXRemoteProcessIdentifier
__ZN6CyberKit7WebPage24didRemoveBackForwardItemEy
__ZN6CyberKit23WebBackForwardListProxy10removeItemEy
__ZN6CyberKit15WebProcessProxy24disconnectFramesFromPageEPNS_12WebPageProxyE
__ZN3WTF7HashMapINS_6RefPtrIN7CyberCore11HistoryItemEEEyNS_7PtrHashIS4_EENS_10HashTraitsIS4_EENS7_IyEEE6removeERKS4_
__ZN3WTF6VectorINS_6RefPtrIN6CyberKit13WebFrameProxyEEELm0ENS_15CrashOnOverflowEE6resizeEm
__ZN3WTF6VectorINS_6RefPtrIN6CyberKit13WebFrameProxyEEELm0ENS_15CrashOnOverflowEE15reserveCapacityEm
__ZN3WTF9HashTableIyNS_12KeyValuePairIyNS_6RefPtrIN7CyberCore11HistoryItemEEEEENS_24KeyValuePairKeyExtractorIS6_EENS_7IntHashIyEENS_18HashMapValueTraitsINS_10HashTraitsIyEENSC_IS5_EEEESD_E15deallocateTableEPS6_i
__ZN3WTF9HashTableIyNS_12KeyValuePairIyNS_6RefPtrIN7CyberCore11HistoryItemEEEEENS_24KeyValuePairKeyExtractorIS6_EENS_7IntHashIyEENS_18HashMapValueTraitsINS_10HashTraitsIyEENSC_IS5_EEEESD_E16lookupForWritingINS_22IdentityHashTranslatorISA_EEyEENSt3__14pairIPS6_bEERKT0_
__ZN3WTF9HashTableIyNS_12KeyValuePairIyNS_6RefPtrIN7CyberCore11HistoryItemEEEEENS_24KeyValuePairKeyExtractorIS6_EENS_7IntHashIyEENS_18HashMapValueTraitsINS_10HashTraitsIyEENSC_IS5_EEEESD_E3addINS_17HashMapTranslatorISF_SA_EEyNS_10PassRefPtrIS4_EEEENS_18HashTableAddResultINS_17HashTableIteratorIyS6_S8_SA_SF_SD_EEEERKT0_RKT1_
__ZN3WTF9HashTableIyNS_12KeyValuePairIyNS_6RefPtrIN7CyberCore11HistoryItemEEEEENS_24KeyValuePairKeyExtractorIS6_EENS_7IntHashIyEENS_18HashMapValueTraitsINS_10HashTraitsIyEENSC_IS5_EEEESD_E4findINS_22IdentityHashTranslatorISA_EEyEENS_17HashTableIteratorIyS6_S8_SA_SF_SD_EERKT0_
__ZN3WTF9HashTableIyNS_12KeyValuePairIyNS_6RefPtrIN7CyberCore11HistoryItemEEEEENS_24KeyValuePairKeyExtractorIS6_EENS_7IntHashIyEENS_18HashMapValueTraitsINS_10HashTraitsIyEENSC_IS5_EEEESD_E6expandEv
__ZN3WTF9HashTableIyNS_12KeyValuePairIyNS_6RefPtrIN7CyberCore11HistoryItemEEEEENS_24KeyValuePairKeyExtractorIS6_EENS_7IntHashIyEENS_18HashMapValueTraitsINS_10HashTraitsIyEENSC_IS5_EEEESD_E6lookupINS_22IdentityHashTranslatorISA_EEyEEPS6_RKT0_
__ZN3WTF9HashTableIyNS_12KeyValuePairIyNS_6RefPtrIN7CyberCore11HistoryItemEEEEENS_24KeyValuePairKeyExtractorIS6_EENS_7IntHashIyEENS_18HashMapValueTraitsINS_10HashTraitsIyEENSC_IS5_EEEESD_E6rehashEi
__ZN3WTF9HashTableIyNS_12KeyValuePairIyNS_6RefPtrIN7CyberCore11HistoryItemEEEEENS_24KeyValuePairKeyExtractorIS6_EENS_7IntHashIyEENS_18HashMapValueTraitsINS_10HashTraitsIyEENSC_IS5_EEEESD_E6removeEPS6_
__ZN3WTF16VectorBufferBaseINS_6RefPtrIN6CyberKit13WebFrameProxyEEEE14allocateBufferEm
__ZN3WTF6RefPtrIN6CyberKit13WebFrameProxyEEaSERKS3_
__ZN6CyberKit13WebFrameProxy10disconnectEv
__ZN3WTF6VectorINS_6RefPtrIN6CyberKit13WebFrameProxyEEELm0ENS_15CrashOnOverflowEED2Ev
__ZN3WTF16VectorDestructorILb1ENS_6RefPtrIN6CyberKit13WebFrameProxyEEEE8destructEPS4_S6_
__ZN6CyberKit17WebInspectorProxy10invalidateEv
__ZN6CyberKit17ChildProcessProxy21removeMessageReceiverEN7CoreIPC15StringReferenceEy
__ZN7CoreIPC18MessageReceiverMap21removeMessageReceiverENS_15StringReferenceEy
__ZN3WTF7HashMapINSt3__14pairIN7CoreIPC15StringReferenceEyEEPNS3_15MessageReceiverENS_8PairHashIS4_yEENS_10HashTraitsIS5_EENSA_IS7_EEE6removeERKS5_
__ZN6CyberKit17WebInspectorProxyD0Ev
__ZN6CyberKit17WebInspectorProxyD2Ev
__ZN6CyberKit25WebFullScreenManagerProxy10invalidateEv
-[WKView(Internal) closeFullScreenWindowController]
__ZN3WTF6RefPtrIN6CyberKit25WebFullScreenManagerProxyEEaSEPS2_
__ZN6CyberKit25WebFullScreenManagerProxyD0Ev
__ZN6CyberKit40GeolocationPermissionRequestManagerProxy18invalidateRequestsEv
__ZN6CyberKit41NotificationPermissionRequestManagerProxy18invalidateRequestsEv
__ZN6CyberKit27WebNotificationManagerProxy18clearNotificationsEPNS_12WebPageProxyE
__ZN6CyberKit27WebNotificationManagerProxy18clearNotificationsEPNS_12WebPageProxyERKN3WTF6VectorIyLm0ENS3_15CrashOnOverflowEEEPFbyyyS8_E
__ZN6CyberKit23WebNotificationProvider18clearNotificationsERKN3WTF6VectorIyLm0ENS1_15CrashOnOverflowEEE
__ZN6CyberKit21invalidateCallbackMapIN3WTF6RefPtrINS_12VoidCallbackEEEEEvRNS1_7HashMapIyT_NS1_7IntHashIyEENS1_10HashTraitsIyEENS9_IS6_EEEE
__ZN3WTF6VectorINS_6RefPtrIN6CyberKit12VoidCallbackEEELm0ENS_15CrashOnOverflowEE6resizeEm
__ZN3WTF16VectorDestructorILb1ENS_6RefPtrIN6CyberKit12VoidCallbackEEEE8destructEPS4_S6_
__ZN3WTF6VectorINS_6RefPtrIN6CyberKit12VoidCallbackEEELm0ENS_15CrashOnOverflowEED2Ev
__ZN6CyberKit21invalidateCallbackMapIN3WTF6RefPtrINS_15GenericCallbackIPK12OpaqueWKDataPNS_7WebDataEEEEEEEvRNS1_7HashMapIyT_NS1_7IntHashIyEENS1_10HashTraitsIyEENSF_ISC_EEEE
__ZN3WTF6VectorINS_6RefPtrIN6CyberKit15GenericCallbackIPK12OpaqueWKDataPNS2_7WebDataEEEEELm0ENS_15CrashOnOverflowEE6resizeEm
__ZN3WTF16VectorDestructorILb1ENS_6RefPtrIN6CyberKit15GenericCallbackIPK12OpaqueWKDataPNS2_7WebDataEEEEEE8destructEPSA_SC_
__ZN3WTF6VectorINS_6RefPtrIN6CyberKit15GenericCallbackIPK12OpaqueWKDataPNS2_7WebDataEEEEELm0ENS_15CrashOnOverflowEED2Ev
__ZN6CyberKit21invalidateCallbackMapIN3WTF6RefPtrINS_13ImageCallbackEEEEEvRNS1_7HashMapIyT_NS1_7IntHashIyEENS1_10HashTraitsIyEENS9_IS6_EEEE
__ZN3WTF6VectorINS_6RefPtrIN6CyberKit13ImageCallbackEEELm0ENS_15CrashOnOverflowEE6resizeEm
__ZN3WTF16VectorDestructorILb1ENS_6RefPtrIN6CyberKit13ImageCallbackEEEE8destructEPS4_S6_
__ZN3WTF6VectorINS_6RefPtrIN6CyberKit13ImageCallbackEEELm0ENS_15CrashOnOverflowEED2Ev
__ZN6CyberKit21invalidateCallbackMapIN3WTF6RefPtrINS_15GenericCallbackIPK14OpaqueWKStringPNS1_10StringImplEEEEEEEvRNS1_7HashMapIyT_NS1_7IntHashIyEENS1_10HashTraitsIyEENSF_ISC_EEEE
__ZN3WTF6VectorINS_6RefPtrIN6CyberKit15GenericCallbackIPK14OpaqueWKStringPNS_10StringImplEEEEELm0ENS_15CrashOnOverflowEE6resizeEm
__ZN3WTF16VectorDestructorILb1ENS_6RefPtrIN6CyberKit15GenericCallbackIPK14OpaqueWKStringPNS_10StringImplEEEEEE8destructEPSA_SC_
__ZN3WTF6VectorINS_6RefPtrIN6CyberKit15GenericCallbackIPK14OpaqueWKStringPNS_10StringImplEEEEELm0ENS_15CrashOnOverflowEED2Ev
__ZN6CyberKit21invalidateCallbackMapIN3WTF6RefPtrINS_15GenericCallbackIPK29OpaqueWKSerializedScriptValuePNS_24WebSerializedScriptValueEEEEEEEvRNS1_7HashMapIyT_NS1_7IntHashIyEENS1_10HashTraitsIyEENSF_ISC_EEEE
__ZN3WTF16VectorDestructorILb1ENS_6RefPtrIN6CyberKit15GenericCallbackIPK29OpaqueWKSerializedScriptValuePNS2_24WebSerializedScriptValueEEEEEE8destructEPSA_SC_
__ZN3WTF6VectorINS_6RefPtrIN6CyberKit15GenericCallbackIPK29OpaqueWKSerializedScriptValuePNS2_24WebSerializedScriptValueEEEEELm0ENS_15CrashOnOverflowEE15reserveCapacityEm
__ZN3WTF6VectorINS_6RefPtrIN6CyberKit15GenericCallbackIPK29OpaqueWKSerializedScriptValuePNS2_24WebSerializedScriptValueEEEEELm0ENS_15CrashOnOverflowEE6resizeEm
__ZN3WTF6VectorINS_6RefPtrIN6CyberKit15GenericCallbackIPK29OpaqueWKSerializedScriptValuePNS2_24WebSerializedScriptValueEEEEELm0ENS_15CrashOnOverflowEED2Ev
__ZN6CyberKit21invalidateCallbackMapIN3WTF6RefPtrINS_21ComputedPagesCallbackEEEEEvRNS1_7HashMapIyT_NS1_7IntHashIyEENS1_10HashTraitsIyEENS9_IS6_EEEE
__ZN3WTF6VectorINS_6RefPtrIN6CyberKit21ComputedPagesCallbackEEELm0ENS_15CrashOnOverflowEE6resizeEm
__ZN3WTF16VectorDestructorILb1ENS_6RefPtrIN6CyberKit21ComputedPagesCallbackEEEE8destructEPS4_S6_
__ZN3WTF6VectorINS_6RefPtrIN6CyberKit21ComputedPagesCallbackEEELm0ENS_15CrashOnOverflowEED2Ev
__ZN3WTF6VectorIPN6CyberKit19WebEditCommandProxyELm0ENS_15CrashOnOverflowEE6resizeEm
__ZNK3WTF9HashTableIPN6CyberKit19WebEditCommandProxyES3_NS_17IdentityExtractorENS_7PtrHashIS3_EENS_10HashTraitsIS3_EES8_E5beginEv
__ZN3WTF6RefPtrIN6CyberKit17WebPopupMenuProxyEEaSEPS2_
__ZN6CyberKit20DrawingAreaProxyImplD0Ev
__ZN6CyberKit20DrawingAreaProxyImplD2Ev
__ZNK6CyberKit16LayerTreeContext7isEmptyEv
__ZN6CyberKit12WebPageProxy30exitAcceleratedCompositingModeEv
__ZN6CyberKit14PageClientImpl30exitAcceleratedCompositingModeEv
__ZN3WTF9RetainPtrI6NSViewEaSEPS1_
__ZN3WTF6OwnPtrIN6CyberKit12BackingStoreEED2Ev
__ZN6CyberKit16DrawingAreaProxyD2Ev
__ZN6CyberKit17ChildProcessProxy4sendIN8Messages7WebPage5CloseEEEbRKT_yj
__ZN6CyberKit15WebProcessProxy13removeWebPageEy
__ZN3WTF7HashMapIyPN6CyberKit12WebPageProxyENS_7IntHashIyEENS_10HashTraitsIyEENS6_IS3_EEE6removeERKy
__ZN6CyberKit14StorageManager30destroySessionStorageNamespaceEy
__ZN6CyberKit7WebPage5closeEv
__ZN3WTF6VectorIPN6CyberKit19WebEditCommandProxyELm0ENS_15CrashOnOverflowEED1Ev
__ZN3WTF17BoundFunctionImplINS_15FunctionWrapperIMN6CyberKit14StorageManagerEFvyEEEFvPS3_yEEclEv
-[WKView dealloc]
__ZN6CyberKit14StorageManager38destroySessionStorageNamespaceInternalEy
__ZN3WTF7HashMapIyNS_6RefPtrIN6CyberKit14StorageManager23SessionStorageNamespaceEEENS_7IntHashIyEENS_10HashTraitsIyEENS8_IS5_EEE6removeERKy
-[WKViewData .cxx_destruct]
__ZN3WTF6OwnPtrIN6CyberKit19FindIndicatorWindowEED2Ev
__ZN6CyberKit14InjectedBundle15willDestroyPageEPNS_7WebPageE
__ZN6CyberKit20InjectedBundleClient15willDestroyPageEPNS_14InjectedBundleEPNS_7WebPageE
__ZN3WTF6OwnPtrIN6CyberKit17PDFViewControllerEED2Ev
__ZN3WTF20ThreadSafeRefCountedIN6CyberKit14StorageManager23SessionStorageNamespaceEE5derefEv
__ZN6CyberKit14PageClientImplD0Ev
__ZN6CyberKit14StorageManager23SessionStorageNamespaceD2Ev
__ZN6CyberKit14PageClientImplD2Ev
__ZN3WTF17BoundFunctionImplINS_15FunctionWrapperIMN6CyberKit14StorageManagerEFvyEEEFvPS3_yEED0Ev
__ZN6CyberKit15CorrectionPanelD1Ev
__ZN6CyberKit12WebInspectorD0Ev
__ZN6CyberKit15CorrectionPanelD2Ev
__ZN3WTF6RefPtrIN6CyberKit20WebFullScreenManagerEEaSEPS2_
__ZN6CyberKit7WebPage23SandboxExtensionTracker10invalidateEv
__ZN3WTF6OwnPtrIN7CyberCore12PrintContextEE5clearEv
__ZN6CyberKit12WebPageProxyD0Ev
__ZN6CyberKit12WebPageProxyD2Ev
__ZN6CyberKit12WebPageGroup10removePageEPNS_12WebPageProxyE
__ZN3WTF7HashSetIPN6CyberKit12WebPageProxyENS_7PtrHashIS3_EENS_10HashTraitsIS3_EEE6removeERKS3_
__ZNK3WTF9HashTableIPN6CyberKit12WebPageProxyES3_NS_17IdentityExtractorENS_7PtrHashIS3_EENS_10HashTraitsIS3_EES8_E4findINS_22IdentityHashTranslatorIS6_EES3_EENS_22HashTableConstIteratorIS3_S3_S4_S6_S8_S8_EERKT0_
__ZN3WTF9HashTableIPN6CyberKit12WebPageProxyES3_NS_17IdentityExtractorENS_7PtrHashIS3_EENS_10HashTraitsIS3_EES8_E6removeEPS3_
__ZN3WTF6OwnPtrIN6CyberKit19NativeWebMouseEventEED2Ev
__ZN3WTF5DequeINS_6OwnPtrINS_6VectorIN6CyberKit19NativeWebWheelEventELm0ENS_15CrashOnOverflowEEEEELm0EED2Ev
__ZN3WTF5DequeINS_6OwnPtrINS_6VectorIN6CyberKit19NativeWebWheelEventELm0ENS_15CrashOnOverflowEEEEELm0EE10destroyAllEv
__ZN3WTF5DequeIN6CyberKit19NativeWebWheelEventELm0EED2Ev
__ZN3WTF5DequeIN6CyberKit19NativeWebWheelEventELm0EE10destroyAllEv
__ZN3WTF5DequeIN6CyberKit22NativeWebKeyboardEventELm0EED2Ev
__ZN3WTF5DequeIN6CyberKit22NativeWebKeyboardEventELm0EE10destroyAllEv
__ZN6CyberKit18WebBackForwardListD0Ev
__ZN6CyberKit15DrawingAreaImpl34exitAcceleratedCompositingModeSoonEv
__ZN3WTF6OwnPtrIN7CyberCore4PageEE5clearEv
__ZN6CyberKit15WebEditorClient13pageDestroyedEv
__ZN6CyberKit15WebEditorClientD0Ev
__ZN6CyberKit15WebPlugInClient13pageDestroyedEv
__ZN6CyberKit15WebPlugInClientD0Ev
__ZN6CyberKit24WebAlternativeTextClient13pageDestroyedEv
__ZN6CyberKit24WebAlternativeTextClientD0Ev
__ZN6CyberKit18WebInspectorClient18inspectorDestroyedEv
__ZN6CyberKit18WebInspectorClient22closeInspectorFrontendEv
__ZN6CyberKit18WebInspectorClientD0Ev
__ZN6CyberKit23WebBackForwardListProxy5closeEv
__ZN6CyberKit23WebBackForwardListProxy9itemForIDEy
__ZN6CyberKit23WebBackForwardListProxyD0Ev
__ZN6CyberKit20WebContextMenuClient20contextMenuDestroyedEv
__ZN6CyberKit20WebContextMenuClientD0Ev
__ZN6CyberKit13WebDragClient23dragControllerDestroyedEv
__ZN6CyberKit13WebDragClientD0Ev
__ZN6CyberKit15WebChromeClient15chromeDestroyedEv
__ZN6CyberKit15WebChromeClientD0Ev
__ZN6CyberKit20WebGeolocationClient20geolocationDestroyedEv
__ZN6CyberKit10WebProcess10supplementINS_21WebGeolocationManagerEEEPT_v
__ZN6CyberKit21WebGeolocationManager17unregisterWebPageEPNS_7WebPageE
__ZN3WTF7HashSetIPN6CyberKit7WebPageENS_7PtrHashIS3_EENS_10HashTraitsIS3_EEE6removeERKS3_
__ZNK3WTF9HashTableIPN6CyberKit7WebPageES3_NS_17IdentityExtractorENS_7PtrHashIS3_EENS_10HashTraitsIS3_EES8_E4findINS_22IdentityHashTranslatorIS6_EES3_EENS_22HashTableConstIteratorIS3_S3_S4_S6_S8_S8_EERKT0_
__ZN7CoreIPC10Connection4sendIN8Messages26WebGeolocationManagerProxy12StopUpdatingEEEbRKT_yj
__ZN6CyberKit20WebGeolocationClientD0Ev
__ZN6CyberKit21WebNotificationClient31notificationControllerDestroyedEv
__ZN6CyberKit21WebNotificationClientD0Ev
__ZN6CyberKit15DrawingAreaImplD0Ev
__ZN6CyberKit15DrawingAreaImplD2Ev
__ZN6CyberKit16LayerTreeHostMac10invalidateEv
__ZN6CyberKit19LayerHostingContext10invalidateEv
_WKCAContextInvalidate
__ZN3WTF6OwnPtrIN6CyberKit19LayerHostingContextEE5clearEv
__ZN6CyberKit19LayerHostingContextD1Ev
__ZN6CyberKit16LayerTreeHostMacD0Ev
__ZN6CyberKit16LayerTreeHostMacD2Ev
__ZN6CyberKit13LayerTreeHostD2Ev
__ZN6CyberKit11DrawingAreaD2Ev
__ZN6CyberKit10WebProcess13removeWebPageEy
__ZN3WTF7HashMapIyNS_6RefPtrIN6CyberKit7WebPageEEENS_7IntHashIyEENS_10HashTraitsIyEENS7_IS4_EEE6removeERKy
__ZN6CyberKit7WebPageD0Ev
__ZN6CyberKit7WebPageD2Ev
__ZN6CyberKit12ChildProcess21removeMessageReceiverEN7CoreIPC15StringReferenceEy
__ZN6CyberKit7WebPage23SandboxExtensionTrackerD2Ev
__ZN3WTF6OwnPtrIN7CyberCore12PrintContextEED2Ev
__ZN3WTF6VectorINS_6RefPtrIN6CyberKit11PageOverlayEEELm0ENS_15CrashOnOverflowEED2Ev
__ZN6CyberKit14FindControllerD1Ev
__ZN3WTF6VectorINS_6RefPtrIN7CyberCore5RangeEEELm0ENS_15CrashOnOverflowEED2Ev
-[WKAccessibilityWebPageObject dealloc]
_WKUnregisterUniqueIdForElement
__ZN3WTF6OwnPtrIN7CyberCore4PageEED2Ev
__ZN6CyberKit12ChildProcess17enableTerminationEv
__ZThn32_N6CyberKit26WebGeolocationManagerProxy17didReceiveMessageEPN7CoreIPC10ConnectionERNS1_14MessageDecoderE
__ZN6CyberKit26WebGeolocationManagerProxy17didReceiveMessageEPN7CoreIPC10ConnectionERNS1_14MessageDecoderE
__ZN6CyberKit26WebGeolocationManagerProxy12stopUpdatingEv
__ZN6CyberKit20WebFrameLoaderClient29savePlatformDataToCachedFrameEPN7CyberCore11CachedFrameE
__ZN6CyberKit20WebFrameLoaderClient18didSaveToPageCacheEv
__ZN7CoreIPC13MessageSender4sendIN8Messages12WebPageProxy18DidSaveToPageCacheEEEbRKT_y
__ZNK6CyberKit20WebFrameLoaderClient25didPerformFirstNavigationEv
-[WKView viewDidUnhide]
__ZN6CyberKit20StorageNamespaceImplD0Ev
__ZN6CyberKit20StorageNamespaceImplD2Ev
__ZN6CyberKit15StorageAreaImpl20decrementAccessCountEv
__ZN6CyberKit15StorageAreaImplD0Ev
__ZN6CyberKit15StorageAreaImplD2Ev
__ZN6CyberKit14StorageAreaMapD0Ev
__ZN6CyberKit14StorageAreaMapD2Ev
__ZN7CoreIPC10Connection4sendIN8Messages14StorageManager17DestroyStorageMapEEEbRKT_yj
__ZN3WTF10RefCountedIN7CyberCore10StorageMapEE5derefEv
__ZN6CyberKit14StorageManager11StorageAreaD2Ev
__ZN6CyberKit14WebPreferences26updatePrivateBrowsingValueEb
_WKPreferencesSetCookieEnabled
__ZN6CyberKit14WebPreferences16setCookieEnabledERKb
__ZN6CyberKit10WebContext29willStartUsingPrivateBrowsingEv
__ZN6CyberKit17ChildProcessProxy4sendIN8Messages14NetworkProcess28EnsurePrivateBrowsingSessionEEEbRKT_yj
__ZN6CyberKit17ChildProcessProxy4sendIN8Messages10WebProcess28EnsurePrivateBrowsingSessionEEEbRKT_yj
__ZN6CyberKit14NetworkProcess28ensurePrivateBrowsingSessionEv
__ZN6CyberKit23RemoteNetworkingContext28ensurePrivateBrowsingSessionEv
__ZN6CyberKitL29privateBrowsingStorageSessionEv
__ZN6CyberKit17ChildProcessProxy4sendIN8Messages7WebPage24DidReceivePolicyDecisionEEEbRKT_yj
__ZNK7CoreIPC10Arguments4IyyjyE6encodeERNS_15ArgumentEncoderE
_WKCreatePrivateStorageSession
__ZN3WTF10PassOwnPtrIN7CyberCore21NetworkStorageSessionEED2Ev
__ZN6CyberKit10WebProcess28ensurePrivateBrowsingSessionEv
__ZN6CyberKit25WebFrameNetworkingContext28ensurePrivateBrowsingSessionEv
__ZN7CoreIPC13handleMessageIN8Messages7WebPage24DidReceivePolicyDecisionEN6CyberKit7WebPageEMS5_FvyyjyEEEvRNS_14MessageDecoderEPT0_T1_
__ZN7CoreIPC10Arguments4IyyjyE6decodeERNS_15ArgumentDecoderERS1_
__ZN7CoreIPC10Arguments3IyyjE6decodeERNS_15ArgumentDecoderERS1_
__ZN6CyberKit7WebPage24didReceivePolicyDecisionEyyjy
__ZN3WTF9HashTableINS_6RefPtrIN7CoreIPC10ConnectionEEES4_NS_17IdentityExtractorENS_7PtrHashIS4_EENS_10HashTraitsIS4_EES9_E16lookupForWritingINS_22IdentityHashTranslatorIS7_EES4_EENSt3__14pairIPS4_bEERKT0_
__ZN3WTF9HashTableINS_6RefPtrIN7CoreIPC10ConnectionEEES4_NS_17IdentityExtractorENS_7PtrHashIS4_EENS_10HashTraitsIS4_EES9_E4findINS_22IdentityHashTranslatorIS7_EES4_EENS_17HashTableIteratorIS4_S4_S5_S7_S9_S9_EERKT0_
__ZN6CyberKit20WebFrameLoaderClient19dispatchDidFailLoadERKN7CyberCore13ResourceErrorE
__ZN6CyberKit30InjectedBundlePageLoaderClient28didFailLoadWithErrorForFrameEPNS_7WebPageEPNS_8WebFrameERKN7CyberCore13ResourceErrorERN3WTF6RefPtrINS_9APIObjectEEE
__ZN7CoreIPC13MessageSender4sendIN8Messages12WebPageProxy19DidFailLoadForFrameEEEbRKT_y
__ZN7CoreIPC21handleMessageVariadicIN8Messages12WebPageProxy19DidFailLoadForFrameEN6CyberKit12WebPageProxyEMS5_FvyRKN7CyberCore13ResourceErrorERNS_14MessageDecoderEEEEvSB_PT0_T1_
__ZN6CyberKit12WebPageProxy19didFailLoadForFrameEyRKN7CyberCore13ResourceErrorERN7CoreIPC14MessageDecoderE
__ZN6CyberKit13WebFrameProxy11didFailLoadEv
__ZN6CyberKit15WebLoaderClient28didFailLoadWithErrorForFrameEPNS_12WebPageProxyEPNS_13WebFrameProxyERKN7CyberCore13ResourceErrorEPNS_9APIObjectE
__ZN6CyberKit10WebContext28willStopUsingPrivateBrowsingEv
__ZN6CyberKit17ChildProcessProxy4sendIN8Messages14NetworkProcess29DestroyPrivateBrowsingSessionEEEbRKT_yj
__ZN6CyberKit17ChildProcessProxy4sendIN8Messages10WebProcess29DestroyPrivateBrowsingSessionEEEbRKT_yj
__ZN6CyberKit14NetworkProcess29destroyPrivateBrowsingSessionEv
__ZN6CyberKit23RemoteNetworkingContext29destroyPrivateBrowsingSessionEv
__ZN3WTF6OwnPtrIN7CyberCore21NetworkStorageSessionEEaSEDn
__ZN6CyberKit10WebProcess29destroyPrivateBrowsingSessionEv
__ZN6CyberKit25WebFrameNetworkingContext29destroyPrivateBrowsingSessionEv
__ZN3WTF9HashTableIPN6CyberKit10PluginViewES3_NS_17IdentityExtractorENS_7PtrHashIS3_EENS_10HashTraitsIS3_EES8_E16lookupForWritingINS_22IdentityHashTranslatorIS6_EES3_EENSt3__14pairIPS3_bEERKT0_
__ZN3WTF9HashTableIPN6CyberKit10PluginViewES3_NS_17IdentityExtractorENS_7PtrHashIS3_EENS_10HashTraitsIS3_EES8_E4findINS_22IdentityHashTranslatorIS6_EES3_EENS_17HashTableIteratorIS3_S3_S4_S6_S8_S8_EERKT0_
_WKContextGetResourceCacheManager
__ZN6CyberKit10WebContext10supplementINS_28WebResourceCacheManagerProxyEEEPT_v
_WKResourceCacheManagerClearCacheForAllOrigins
__ZN6CyberKit28WebResourceCacheManagerProxy23clearCacheForAllOriginsENS_21ResourceCachesToClearE
__ZN6CyberKit10WebContext45sendToNetworkingProcessRelaunchingIfNecessaryIN8Messages14NetworkProcess23ClearCacheForAllOriginsEEEvRKT_
__ZN6CyberKit17ChildProcessProxy4sendIN8Messages14NetworkProcess23ClearCacheForAllOriginsEEEbRKT_yj
__ZN6CyberKit10WebContext44sendToAllProcessesRelaunchingThemIfNecessaryIN8Messages23WebResourceCacheManager23ClearCacheForAllOriginsEEEvRKT_
__ZN6CyberKit17ChildProcessProxy4sendIN8Messages23WebResourceCacheManager23ClearCacheForAllOriginsEEEbRKT_yj
_WKContextGetApplicationCacheManager
__ZN6CyberKit10WebContext10supplementINS_31WebApplicationCacheManagerProxyEEEPT_v
_WKApplicationCacheManagerDeleteAllEntries
__ZN6CyberKit31WebApplicationCacheManagerProxy16deleteAllEntriesEv
__ZN6CyberKit10WebContext44sendToAllProcessesRelaunchingThemIfNecessaryIN8Messages26WebApplicationCacheManager16DeleteAllEntriesEEEvRKT_
__ZN6CyberKit17ChildProcessProxy4sendIN8Messages26WebApplicationCacheManager16DeleteAllEntriesEEEbRKT_yj
_WKIconDatabaseRemoveAllIcons
__ZN6CyberKit15WebIconDatabase14removeAllIconsEv
_WKCookieManagerDeleteAllCookies
__ZN6CyberKit21WebCookieManagerProxy16deleteAllCookiesEv
__ZN6CyberKit10WebContext45sendToNetworkingProcessRelaunchingIfNecessaryIN8Messages16WebCookieManager16DeleteAllCookiesEEEvRKT_
__ZN6CyberKit17ChildProcessProxy4sendIN8Messages16WebCookieManager16DeleteAllCookiesEEEbRKT_yj
_WKContextGetDatabaseManager
__ZN6CyberKit10WebContext10supplementINS_23WebDatabaseManagerProxyEEEPT_v
_WKDatabaseManagerDeleteAllDatabases
__ZN6CyberKit23WebDatabaseManagerProxy18deleteAllDatabasesEv
__ZN6CyberKit10WebContext16sendToOneProcessIN8Messages18WebDatabaseManager18DeleteAllDatabasesEEEvRKT_
__ZN6CyberKit17ChildProcessProxy4sendIN8Messages18WebDatabaseManager18DeleteAllDatabasesEEEbRKT_yj
_WKContextGetKeyValueStorageManager
__ZN6CyberKit10WebContext10supplementINS_25WebKeyValueStorageManagerEEEPT_v
_WKKeyValueStorageManagerDeleteAllEntries
__ZN6CyberKit25WebKeyValueStorageManager16deleteAllEntriesEv
__ZN6CyberKit14StorageManager16deleteAllEntriesEv
_WKContextGetMediaCacheManager
__ZN6CyberKit10WebContext10supplementINS_25WebMediaCacheManagerProxyEEEPT_v
_WKMediaCacheManagerClearCacheForAllHostnames
__ZN6CyberKit25WebMediaCacheManagerProxy25clearCacheForAllHostnamesEv
__ZN6CyberKit10WebContext44sendToAllProcessesRelaunchingThemIfNecessaryIN8Messages20WebMediaCacheManager25ClearCacheForAllHostnamesEEEvRKT_
__ZN6CyberKit17ChildProcessProxy4sendIN8Messages20WebMediaCacheManager25ClearCacheForAllHostnamesEEEbRKT_yj
_WKContextGetPluginSiteDataManager
_WKPluginSiteDataManagerClearAllSiteData
__ZN6CyberKit24WebPluginSiteDataManager13clearSiteDataEPNS_14ImmutableArrayEyyN3WTF10PassRefPtrINS_12VoidCallbackEEE
__ZN3WTF7HashMapIyNS_6RefPtrIN6CyberKit12VoidCallbackEEENS_7IntHashIyEENS_10HashTraitsIyEENS7_IS4_EEE3setERKyNS_10PassRefPtrIS3_EE
__ZN3WTF17HashMapTranslatorINS_18HashMapValueTraitsINS_10HashTraitsIyEENS2_INS_6RefPtrIN6CyberKit12VoidCallbackEEEEEEENS_7IntHashIyEEE9translateINS_12KeyValuePairIyS7_EEyNS_10PassRefPtrIS6_EEEEvRT_RKT0_RKT1_
__ZN3WTF6RefPtrIN6CyberKit12VoidCallbackEEaSERKNS_10PassRefPtrIS2_EE
__ZN3WTF7HashMapIyNS_6OwnPtrIN6CyberKit24WebPluginSiteDataManager18ClearSiteDataStateEEENS_7IntHashIyEENS_10HashTraitsIyEENS8_IS5_EEE3setERKyNS_10PassOwnPtrIS4_EE
__ZN3WTF7HashMapIyNS_6OwnPtrIN6CyberKit24WebPluginSiteDataManager18ClearSiteDataStateEEENS_7IntHashIyEENS_10HashTraitsIyEENS8_IS5_EEE4takeERKy
__ZN3WTF10PassOwnPtrIN6CyberKit24WebPluginSiteDataManager18ClearSiteDataStateEED1Ev
__ZN6CyberKit24WebPluginSiteDataManager18ClearSiteDataState26clearSiteDataForNextPluginEv
__ZN6CyberKit20PluginProcessManager13clearSiteDataERKNS_16PluginModuleInfoEPNS_24WebPluginSiteDataManagerERKN3WTF6VectorINS6_6StringELm0ENS6_15CrashOnOverflowEEEyyy
__ZN6CyberKit18PluginProcessProxy13clearSiteDataEPNS_24WebPluginSiteDataManagerERKN3WTF6VectorINS3_6StringELm0ENS3_15CrashOnOverflowEEEyyy
__ZN3WTF7HashMapIyNS_6RefPtrIN6CyberKit24WebPluginSiteDataManagerEEENS_7IntHashIyEENS_10HashTraitsIyEENS7_IS4_EEE3setERKyNS_10PassRefPtrIS3_EE
__ZN3WTF17HashMapTranslatorINS_18HashMapValueTraitsINS_10HashTraitsIyEENS2_INS_6RefPtrIN6CyberKit24WebPluginSiteDataManagerEEEEEEENS_7IntHashIyEEE9translateINS_12KeyValuePairIyS7_EEyNS_10PassRefPtrIS6_EEEEvRT_RKT0_RKT1_
__ZN3WTF6VectorIN6CyberKit18PluginProcessProxy20ClearSiteDataRequestELm0ENS_15CrashOnOverflowEE14appendSlowCaseIS3_EEvRKT_
__ZN3WTF6VectorIN6CyberKit18PluginProcessProxy20ClearSiteDataRequestELm0ENS_15CrashOnOverflowEE14expandCapacityEmPKS3_
__ZN3WTF6VectorIN6CyberKit18PluginProcessProxy20ClearSiteDataRequestELm0ENS_15CrashOnOverflowEE15reserveCapacityEm
__ZN3WTF16VectorBufferBaseIN6CyberKit18PluginProcessProxy20ClearSiteDataRequestEE14allocateBufferEm
__ZN3WTF11VectorMoverILb0EN6CyberKit18PluginProcessProxy20ClearSiteDataRequestEE4moveEPKS3_S6_PS3_
__ZN3WTF6VectorIN6CyberKit16PluginModuleInfoELm0ENS_15CrashOnOverflowEE10removeLastEv
_WKContextResetHSTSHosts
__ZN6CyberKit10WebContext14resetHSTSHostsEv
__ZN3WTF17BoundFunctionImplINS_15FunctionWrapperIMN6CyberKit14StorageManagerEFvvEEEFvPS3_EEclEv
__ZN6CyberKit14StorageManager24deleteAllEntriesInternalEv
__ZN6CyberKit14StorageManager21LocalStorageNamespace20clearAllStorageAreasEv
__ZN3WTF9HashTableINS_6RefPtrIN7CyberCore14SecurityOriginEEENS_12KeyValuePairIS4_PN6CyberKit14StorageManager11StorageAreaEEENS_24KeyValuePairKeyExtractorISA_EENS2_18SecurityOriginHashENS_22KeyValuePairHashTraitsINS_10HashTraitsIS4_EENSF_IS9_EEEESG_E15deallocateTableEPSA_i
__ZN3WTF9HashTableINS_6RefPtrIN7CyberCore14SecurityOriginEEENS_12KeyValuePairIS4_PN6CyberKit14StorageManager11StorageAreaEEENS_24KeyValuePairKeyExtractorISA_EENS2_18SecurityOriginHashENS_22KeyValuePairHashTraitsINS_10HashTraitsIS4_EENSF_IS9_EEEESG_E16lookupForWritingINS_22IdentityHashTranslatorISD_EES4_EENSt3__14pairIPSA_bEERKT0_
__ZN3WTF9HashTableINS_6RefPtrIN7CyberCore14SecurityOriginEEENS_12KeyValuePairIS4_PN6CyberKit14StorageManager11StorageAreaEEENS_24KeyValuePairKeyExtractorISA_EENS2_18SecurityOriginHashENS_22KeyValuePairHashTraitsINS_10HashTraitsIS4_EENSF_IS9_EEEESG_E3addINS_17HashMapTranslatorISI_SD_EES4_S9_EENS_18HashTableAddResultINS_17HashTableIteratorIS4_SA_SC_SD_SI_SG_EEEERKT0_RKT1_
__ZN3WTF9HashTableINS_6RefPtrIN7CyberCore14SecurityOriginEEENS_12KeyValuePairIS4_PN6CyberKit14StorageManager11StorageAreaEEENS_24KeyValuePairKeyExtractorISA_EENS2_18SecurityOriginHashENS_22KeyValuePairHashTraitsINS_10HashTraitsIS4_EENSF_IS9_EEEESG_E4findINS_17HashMapTranslatorISI_SD_EEPS3_EENS_17HashTableIteratorIS4_SA_SC_SD_SI_SG_EERKT0_
__ZN3WTF9HashTableINS_6RefPtrIN7CyberCore14SecurityOriginEEENS_12KeyValuePairIS4_PN6CyberKit14StorageManager11StorageAreaEEENS_24KeyValuePairKeyExtractorISA_EENS2_18SecurityOriginHashENS_22KeyValuePairHashTraitsINS_10HashTraitsIS4_EENSF_IS9_EEEESG_E4findINS_22IdentityHashTranslatorISD_EES4_EENS_17HashTableIteratorIS4_SA_SC_SD_SI_SG_EERKT0_
__ZN3WTF9HashTableINS_6RefPtrIN7CyberCore14SecurityOriginEEENS_12KeyValuePairIS4_PN6CyberKit14StorageManager11StorageAreaEEENS_24KeyValuePairKeyExtractorISA_EENS2_18SecurityOriginHashENS_22KeyValuePairHashTraitsINS_10HashTraitsIS4_EENSF_IS9_EEEESG_E5beginEv
__ZN3WTF9HashTableINS_6RefPtrIN7CyberCore14SecurityOriginEEENS_12KeyValuePairIS4_PN6CyberKit14StorageManager11StorageAreaEEENS_24KeyValuePairKeyExtractorISA_EENS2_18SecurityOriginHashENS_22KeyValuePairHashTraitsINS_10HashTraitsIS4_EENSF_IS9_EEEESG_E6expandEv
__ZN3WTF9HashTableINS_6RefPtrIN7CyberCore14SecurityOriginEEENS_12KeyValuePairIS4_PN6CyberKit14StorageManager11StorageAreaEEENS_24KeyValuePairKeyExtractorISA_EENS2_18SecurityOriginHashENS_22KeyValuePairHashTraitsINS_10HashTraitsIS4_EENSF_IS9_EEEESG_E6lookupINS_17HashMapTranslatorISI_SD_EEPS3_EEPSA_RKT0_
__ZN3WTF9HashTableINS_6RefPtrIN7CyberCore14SecurityOriginEEENS_12KeyValuePairIS4_PN6CyberKit14StorageManager11StorageAreaEEENS_24KeyValuePairKeyExtractorISA_EENS2_18SecurityOriginHashENS_22KeyValuePairHashTraitsINS_10HashTraitsIS4_EENSF_IS9_EEEESG_E6lookupINS_22IdentityHashTranslatorISD_EES4_EEPSA_RKT0_
__ZN3WTF9HashTableINS_6RefPtrIN7CyberCore14SecurityOriginEEENS_12KeyValuePairIS4_PN6CyberKit14StorageManager11StorageAreaEEENS_24KeyValuePairKeyExtractorISA_EENS2_18SecurityOriginHashENS_22KeyValuePairHashTraitsINS_10HashTraitsIS4_EENSF_IS9_EEEESG_E6rehashEi
__ZN3WTF9HashTableINS_6RefPtrIN7CyberCore14SecurityOriginEEENS_12KeyValuePairIS4_PN6CyberKit14StorageManager11StorageAreaEEENS_24KeyValuePairKeyExtractorISA_EENS2_18SecurityOriginHashENS_22KeyValuePairHashTraitsINS_10HashTraitsIS4_EENSF_IS9_EEEESG_E6removeEPSA_
__ZN6CyberKit14StorageManager11StorageArea5clearEv
__ZN6CyberKit20LocalStorageDatabase5closeEv
__ZN6CyberKit20LocalStorageDatabase15databaseIsEmptyEv
__ZN6CyberKit20LocalStorageDatabaseD1Ev
__ZN6CyberKit20LocalStorageDatabaseD2Ev
__ZN7CoreIPC10Connection4sendIN8Messages14StorageAreaMap10ClearCacheEEEbRKT_yj
__ZN6CyberKit27LocalStorageDatabaseTracker24deleteDatabaseWithOriginEPN7CyberCore14SecurityOriginE
__ZN6CyberKit27LocalStorageDatabaseTracker34removeDatabaseWithOriginIdentifierERKN3WTF6StringE
__ZN6CyberKit27LocalStorageDatabaseTracker35pathForDatabaseWithOriginIdentifierERKN3WTF6StringE
____ZN6CyberKitL22privateBrowsingSessionEv_block_invoke
_WKContextCopyPlugInAutoStartOriginHashes
__ZNK6CyberKit10WebContext27plugInAutoStartOriginHashesEv
__ZNK6CyberKit23PlugInAutoStartProvider25autoStartOriginsTableCopyEv
__ZN6CyberKit17ChildProcessProxy4sendIN8Messages10WebProcess32ResetPlugInAutoStartOriginHashesEEEbRKT_yj
_WKNotificationManagerProviderDidRemoveNotificationPolicies
__ZN6CyberKit27WebNotificationManagerProxy37providerDidRemoveNotificationPoliciesEPNS_14ImmutableArrayE
__ZN7CoreIPC10Connection4sendIN8Messages13PluginProcess13ClearSiteDataEEEbRKT_yj
__ZNK7CoreIPC10Arguments4IRKN3WTF6VectorINS1_6StringELm0ENS1_15CrashOnOverflowEEEyyyE6encodeERNS_15ArgumentEncoderE
__ZN3WTF6VectorIN6CyberKit18PluginProcessProxy20ClearSiteDataRequestELm0ENS_15CrashOnOverflowEE6shrinkEm
__ZN3WTF7HashSetINS_6StringENS_10StringHashENS_10HashTraitsIS1_EEE6removeERKS1_
__ZNK3WTF9HashTableINS_6StringES1_NS_17IdentityExtractorENS_10StringHashENS_10HashTraitsIS1_EES5_E4findINS_22IdentityHashTranslatorIS3_EES1_EENS_22HashTableConstIteratorIS1_S1_S2_S3_S5_S5_EERKT0_
__ZN3WTF9HashTableINS_6StringES1_NS_17IdentityExtractorENS_10StringHashENS_10HashTraitsIS1_EES5_E6removeEPS1_
__ZN3WTF9HashTableINS_6StringES1_NS_17IdentityExtractorENS_10StringHashENS_10HashTraitsIS1_EES5_E12deleteBucketERS1_
__ZN6CyberKit27LocalStorageDatabaseTracker18deleteAllDatabasesEv
__ZN3WTF17BoundFunctionImplINS_15FunctionWrapperIMN6CyberKit14StorageManagerEFvvEEEFvPS3_EED0Ev
__ZThn16_N6CyberKit15WebIconDatabase17didRemoveAllIconsEv
__ZN6CyberKit21WebIconDatabaseClient17didRemoveAllIconsEPNS_15WebIconDatabaseE
__ZN6CyberKit15WebEditorClient18shouldBeginEditingEPN7CyberCore5RangeE
__ZN6CyberKit30InjectedBundlePageEditorClient18shouldBeginEditingEPNS_7WebPageEPN7CyberCore5RangeE
__ZN6CyberKit15WebEditorClient15didBeginEditingEv
__ZN6CyberKit30InjectedBundlePageEditorClient15didBeginEditingEPNS_7WebPageEPN3WTF10StringImplE
__ZN6CyberKit18PluginProcessProxy16didClearSiteDataEy
__ZN3WTF7HashMapIyNS_6RefPtrIN6CyberKit24WebPluginSiteDataManagerEEENS_7IntHashIyEENS_10HashTraitsIyEENS7_IS4_EEE4takeERKy
__ZN3WTF9HashTableIyNS_12KeyValuePairIyNS_6RefPtrIN6CyberKit24WebPluginSiteDataManagerEEEEENS_24KeyValuePairKeyExtractorIS6_EENS_7IntHashIyEENS_18HashMapValueTraitsINS_10HashTraitsIyEENSC_IS5_EEEESD_E15deallocateTableEPS6_i
__ZN3WTF9HashTableIyNS_12KeyValuePairIyNS_6RefPtrIN6CyberKit24WebPluginSiteDataManagerEEEEENS_24KeyValuePairKeyExtractorIS6_EENS_7IntHashIyEENS_18HashMapValueTraitsINS_10HashTraitsIyEENSC_IS5_EEEESD_E16lookupForWritingINS_22IdentityHashTranslatorISA_EEyEENSt3__14pairIPS6_bEERKT0_
__ZN3WTF9HashTableIyNS_12KeyValuePairIyNS_6RefPtrIN6CyberKit24WebPluginSiteDataManagerEEEEENS_24KeyValuePairKeyExtractorIS6_EENS_7IntHashIyEENS_18HashMapValueTraitsINS_10HashTraitsIyEENSC_IS5_EEEESD_E3addINS_17HashMapTranslatorISF_SA_EEyNS_10PassRefPtrIS4_EEEENS_18HashTableAddResultINS_17HashTableIteratorIyS6_S8_SA_SF_SD_EEEERKT0_RKT1_
__ZN3WTF9HashTableIyNS_12KeyValuePairIyNS_6RefPtrIN6CyberKit24WebPluginSiteDataManagerEEEEENS_24KeyValuePairKeyExtractorIS6_EENS_7IntHashIyEENS_18HashMapValueTraitsINS_10HashTraitsIyEENSC_IS5_EEEESD_E4findINS_22IdentityHashTranslatorISA_EEyEENS_17HashTableIteratorIyS6_S8_SA_SF_SD_EERKT0_
__ZN3WTF9HashTableIyNS_12KeyValuePairIyNS_6RefPtrIN6CyberKit24WebPluginSiteDataManagerEEEEENS_24KeyValuePairKeyExtractorIS6_EENS_7IntHashIyEENS_18HashMapValueTraitsINS_10HashTraitsIyEENSC_IS5_EEEESD_E6expandEv
__ZN3WTF9HashTableIyNS_12KeyValuePairIyNS_6RefPtrIN6CyberKit24WebPluginSiteDataManagerEEEEENS_24KeyValuePairKeyExtractorIS6_EENS_7IntHashIyEENS_18HashMapValueTraitsINS_10HashTraitsIyEENSC_IS5_EEEESD_E6lookupINS_22IdentityHashTranslatorISA_EEyEEPS6_RKT0_
__ZN3WTF9HashTableIyNS_12KeyValuePairIyNS_6RefPtrIN6CyberKit24WebPluginSiteDataManagerEEEEENS_24KeyValuePairKeyExtractorIS6_EENS_7IntHashIyEENS_18HashMapValueTraitsINS_10HashTraitsIyEENSC_IS5_EEEESD_E6rehashEi
__ZN3WTF9HashTableIyNS_12KeyValuePairIyNS_6RefPtrIN6CyberKit24WebPluginSiteDataManagerEEEEENS_24KeyValuePairKeyExtractorIS6_EENS_7IntHashIyEENS_18HashMapValueTraitsINS_10HashTraitsIyEENSC_IS5_EEEESD_E6removeEPS6_
__ZN6CyberKit24WebPluginSiteDataManager31didClearSiteDataForSinglePluginEy
__ZN6CyberKit24WebPluginSiteDataManager29didClearSiteDataForAllPluginsEy
__ZN3WTF9HashTableIyNS_12KeyValuePairIyNS_6OwnPtrIN6CyberKit24WebPluginSiteDataManager18ClearSiteDataStateEEEEENS_24KeyValuePairKeyExtractorIS7_EENS_7IntHashIyEENS_18HashMapValueTraitsINS_10HashTraitsIyEENSD_IS6_EEEESE_E15deallocateTableEPS7_i
__ZN3WTF9HashTableIyNS_12KeyValuePairIyNS_6OwnPtrIN6CyberKit24WebPluginSiteDataManager18ClearSiteDataStateEEEEENS_24KeyValuePairKeyExtractorIS7_EENS_7IntHashIyEENS_18HashMapValueTraitsINS_10HashTraitsIyEENSD_IS6_EEEESE_E16lookupForWritingINS_22IdentityHashTranslatorISB_EEyEENSt3__14pairIPS7_bEERKT0_
__ZN3WTF9HashTableIyNS_12KeyValuePairIyNS_6OwnPtrIN6CyberKit24WebPluginSiteDataManager18ClearSiteDataStateEEEEENS_24KeyValuePairKeyExtractorIS7_EENS_7IntHashIyEENS_18HashMapValueTraitsINS_10HashTraitsIyEENSD_IS6_EEEESE_E3addINS_17HashMapTranslatorISG_SB_EEyNS_10PassOwnPtrIS5_EEEENS_18HashTableAddResultINS_17HashTableIteratorIyS7_S9_SB_SG_SE_EEEERKT0_RKT1_
__ZN3WTF9HashTableIyNS_12KeyValuePairIyNS_6OwnPtrIN6CyberKit24WebPluginSiteDataManager18ClearSiteDataStateEEEEENS_24KeyValuePairKeyExtractorIS7_EENS_7IntHashIyEENS_18HashMapValueTraitsINS_10HashTraitsIyEENSD_IS6_EEEESE_E4findINS_22IdentityHashTranslatorISB_EEyEENS_17HashTableIteratorIyS7_S9_SB_SG_SE_EERKT0_
__ZN3WTF9HashTableIyNS_12KeyValuePairIyNS_6OwnPtrIN6CyberKit24WebPluginSiteDataManager18ClearSiteDataStateEEEEENS_24KeyValuePairKeyExtractorIS7_EENS_7IntHashIyEENS_18HashMapValueTraitsINS_10HashTraitsIyEENSD_IS6_EEEESE_E6expandEv
__ZN3WTF9HashTableIyNS_12KeyValuePairIyNS_6OwnPtrIN6CyberKit24WebPluginSiteDataManager18ClearSiteDataStateEEEEENS_24KeyValuePairKeyExtractorIS7_EENS_7IntHashIyEENS_18HashMapValueTraitsINS_10HashTraitsIyEENSD_IS6_EEEESE_E6lookupINS_22IdentityHashTranslatorISB_EEyEEPS7_RKT0_
__ZN3WTF9HashTableIyNS_12KeyValuePairIyNS_6OwnPtrIN6CyberKit24WebPluginSiteDataManager18ClearSiteDataStateEEEEENS_24KeyValuePairKeyExtractorIS7_EENS_7IntHashIyEENS_18HashMapValueTraitsINS_10HashTraitsIyEENSD_IS6_EEEESE_E6rehashEi
__ZN3WTF9HashTableIyNS_12KeyValuePairIyNS_6OwnPtrIN6CyberKit24WebPluginSiteDataManager18ClearSiteDataStateEEEEENS_24KeyValuePairKeyExtractorIS7_EENS_7IntHashIyEENS_18HashMapValueTraitsINS_10HashTraitsIyEENSD_IS6_EEEESE_E6removeEPS7_
__ZN6CyberKit24WebPluginSiteDataManager16didClearSiteDataEy
__ZN3WTF7HashMapIyNS_6RefPtrIN6CyberKit12VoidCallbackEEENS_7IntHashIyEENS_10HashTraitsIyEENS7_IS4_EEE4takeERKy
__ZN3WTF9HashTableIyNS_12KeyValuePairIyNS_6RefPtrIN6CyberKit12VoidCallbackEEEEENS_24KeyValuePairKeyExtractorIS6_EENS_7IntHashIyEENS_18HashMapValueTraitsINS_10HashTraitsIyEENSC_IS5_EEEESD_E12deleteBucketERS6_
__ZN3WTF9HashTableIyNS_12KeyValuePairIyNS_6RefPtrIN6CyberKit12VoidCallbackEEEEENS_24KeyValuePairKeyExtractorIS6_EENS_7IntHashIyEENS_18HashMapValueTraitsINS_10HashTraitsIyEENSC_IS5_EEEESD_E15deallocateTableEPS6_i
__ZN3WTF9HashTableIyNS_12KeyValuePairIyNS_6RefPtrIN6CyberKit12VoidCallbackEEEEENS_24KeyValuePairKeyExtractorIS6_EENS_7IntHashIyEENS_18HashMapValueTraitsINS_10HashTraitsIyEENSC_IS5_EEEESD_E16lookupForWritingINS_22IdentityHashTranslatorISA_EEyEENSt3__14pairIPS6_bEERKT0_
__ZN3WTF9HashTableIyNS_12KeyValuePairIyNS_6RefPtrIN6CyberKit12VoidCallbackEEEEENS_24KeyValuePairKeyExtractorIS6_EENS_7IntHashIyEENS_18HashMapValueTraitsINS_10HashTraitsIyEENSC_IS5_EEEESD_E3addINS_17HashMapTranslatorISF_SA_EEyNS_10PassRefPtrIS4_EEEENS_18HashTableAddResultINS_17HashTableIteratorIyS6_S8_SA_SF_SD_EEEERKT0_RKT1_
__ZN3WTF9HashTableIyNS_12KeyValuePairIyNS_6RefPtrIN6CyberKit12VoidCallbackEEEEENS_24KeyValuePairKeyExtractorIS6_EENS_7IntHashIyEENS_18HashMapValueTraitsINS_10HashTraitsIyEENSC_IS5_EEEESD_E4findINS_22IdentityHashTranslatorISA_EEyEENS_17HashTableIteratorIyS6_S8_SA_SF_SD_EERKT0_
__ZN3WTF9HashTableIyNS_12KeyValuePairIyNS_6RefPtrIN6CyberKit12VoidCallbackEEEEENS_24KeyValuePairKeyExtractorIS6_EENS_7IntHashIyEENS_18HashMapValueTraitsINS_10HashTraitsIyEENSC_IS5_EEEESD_E6expandEv
__ZN3WTF9HashTableIyNS_12KeyValuePairIyNS_6RefPtrIN6CyberKit12VoidCallbackEEEEENS_24KeyValuePairKeyExtractorIS6_EENS_7IntHashIyEENS_18HashMapValueTraitsINS_10HashTraitsIyEENSC_IS5_EEEESD_E6lookupINS_22IdentityHashTranslatorISA_EEyEEPS6_RKT0_
__ZN3WTF9HashTableIyNS_12KeyValuePairIyNS_6RefPtrIN6CyberKit12VoidCallbackEEEEENS_24KeyValuePairKeyExtractorIS6_EENS_7IntHashIyEENS_18HashMapValueTraitsINS_10HashTraitsIyEENSC_IS5_EEEESD_E6rehashEi
__ZN3WTF9HashTableIyNS_12KeyValuePairIyNS_6RefPtrIN6CyberKit12VoidCallbackEEEEENS_24KeyValuePairKeyExtractorIS6_EENS_7IntHashIyEENS_18HashMapValueTraitsINS_10HashTraitsIyEENSC_IS5_EEEESD_E6removeEPS6_
__ZN6CyberKit12VoidCallbackD0Ev
__ZN7CyberCore5TimerIN6CyberKit10WebProcessEE5firedEv
__ZN6CyberKit10WebProcess34nonVisibleProcessCleanupTimerFiredEPN7CyberCore5TimerIS0_EE
_WKDestroyRenderingResources
__ZThn104_N6CyberKit21WebPlatformStrategies14refreshPluginsEv
__ZN6CyberKit15PluginInfoStore7refreshEv
__ZThn328_N6CyberKit21NetworkResourceLoader42canAuthenticateAgainstProtectionSpaceAsyncEPN7CyberCore14ResourceHandleERKNS1_15ProtectionSpaceE
__ZN6CyberKit21NetworkResourceLoader21sendAbortingOnFailureIN8Messages17WebResourceLoader37CanAuthenticateAgainstProtectionSpaceEEEbRKT_j
__ZN7CoreIPC10Connection4sendIN8Messages17WebResourceLoader37CanAuthenticateAgainstProtectionSpaceEEEbRKT_yj
__ZN7CoreIPC13handleMessageIN8Messages17WebResourceLoader37CanAuthenticateAgainstProtectionSpaceEN6CyberKit17WebResourceLoaderEMS5_FvRKN7CyberCore15ProtectionSpaceEEEEvRNS_14MessageDecoderEPT0_T1_
__ZN6CyberKit17WebResourceLoader37canAuthenticateAgainstProtectionSpaceERKN7CyberCore15ProtectionSpaceE
__ZN7CoreIPC13MessageSender4sendIN8Messages21NetworkResourceLoader45ContinueCanAuthenticateAgainstProtectionSpaceEEEbRKT_y
__ZN6CyberKit21NetworkResourceLoader45continueCanAuthenticateAgainstProtectionSpaceEb
__ZN7CyberCore17FrameLoaderClient18didNotAllowPluginsEv
-[WKView shouldDelayWindowOrderingForEvent:]
-[WKView mouseDown:]
-[WKView _setMouseDownEvent:]
-[WKView mouseDownInternal:]
__ZN7CyberCore12ChromeClient29supportsImmediateInvalidationEv
-[WKView mouseUp:]
-[WKView mouseUpInternal:]
_WKBundleHitTestResultCopyLinkTitle
__ZNK6CyberKit27InjectedBundleHitTestResult9linkTitleEv
_WKBundleHitTestResultCopyLinkLabel
__ZNK6CyberKit27InjectedBundleHitTestResult9linkLabelEv
__ZThn88_N6CyberKit21WebPlatformStrategies25loadResourceSynchronouslyEPN7CyberCore17NetworkingContextEmRKNS1_15ResourceRequestENS1_17StoredCredentialsENS1_22ClientCredentialPolicyERNS1_13ResourceErrorERNS1_16ResourceResponseERN3WTF6VectorIcLm0ENSD_15CrashOnOverflowEEE
__ZN6CyberKit21WebPlatformStrategies25loadResourceSynchronouslyEPN7CyberCore17NetworkingContextEmRKNS1_15ResourceRequestENS1_17StoredCredentialsENS1_22ClientCredentialPolicyERNS1_13ResourceErrorERNS1_16ResourceResponseERN3WTF6VectorIcLm0ENSD_15CrashOnOverflowEEE
__ZNK7CyberCore22FrameNetworkingContext40shouldClearReferrerOnHTTPSToHTTPRedirectEv
__ZN7CoreIPC10Connection8sendSyncIN8Messages29NetworkConnectionToWebProcess22PerformSynchronousLoadEEEbRKT_RKNS5_5ReplyEydj
__ZN7CoreIPC20handleMessageDelayedIN8Messages29NetworkConnectionToWebProcess22PerformSynchronousLoadEN6CyberKit29NetworkConnectionToWebProcessEMS5_FvRKNS4_29NetworkResourceLoadParametersEN3WTF10PassRefPtrINS3_12DelayedReplyEEEEEEvPNS_10ConnectionERNS_14MessageDecoderERNS9_6OwnPtrINS_14MessageEncoderEEEPT0_T1_
__ZN7CoreIPC18callMemberFunctionIN6CyberKit29NetworkConnectionToWebProcessEMS2_FvRKNS1_29NetworkResourceLoadParametersEN3WTF10PassRefPtrIN8Messages29NetworkConnectionToWebProcess22PerformSynchronousLoad12DelayedReplyEEEES3_SB_EEvRKNS_10Arguments1IT1_EENS7_IT2_EEPT_T0_
__ZN6CyberKit29NetworkConnectionToWebProcess22performSynchronousLoadERKNS_29NetworkResourceLoadParametersEN3WTF10PassRefPtrIN8Messages29NetworkConnectionToWebProcess22PerformSynchronousLoad12DelayedReplyEEE
__ZN6CyberKit25SyncNetworkResourceLoader6createERKNS_29NetworkResourceLoadParametersEPNS_29NetworkConnectionToWebProcessEN3WTF10PassRefPtrIN8Messages29NetworkConnectionToWebProcess22PerformSynchronousLoad12DelayedReplyEEE
__ZN6CyberKit25SyncNetworkResourceLoaderC1ERKNS_29NetworkResourceLoadParametersEPNS_29NetworkConnectionToWebProcessEN3WTF10PassRefPtrIN8Messages29NetworkConnectionToWebProcess22PerformSynchronousLoad12DelayedReplyEEE
__ZN3WTF17HashMapTranslatorINS_18HashMapValueTraitsINS_10HashTraitsIyEENS2_INS_6RefPtrIN6CyberKit25SyncNetworkResourceLoaderEEEEEEENS_7IntHashIyEEE9translateINS_12KeyValuePairIyS7_EEyNS_10PassRefPtrIS6_EEEEvRT_RKT0_RKT1_
__ZN3WTF6RefPtrIN6CyberKit25SyncNetworkResourceLoaderEEaSERKNS_10PassRefPtrIS2_EE
__ZN6CyberKit25SyncNetworkResourceLoader13isSynchronousEv
__ZN6CyberKit25SyncNetworkResourceLoader5startEv
__ZN8Messages29NetworkConnectionToWebProcess22PerformSynchronousLoad12DelayedReply4sendERKN7CyberCore13ResourceErrorERKNS3_16ResourceResponseERKN7CoreIPC13DataReferenceE
__ZN7CoreIPC10Arguments3IRN7CyberCore13ResourceErrorERNS1_16ResourceResponseERNS_13DataReferenceEE6decodeERNS_15ArgumentDecoderERS8_
__ZN7CoreIPC10Arguments2IRN7CyberCore13ResourceErrorERNS1_16ResourceResponseEE6decodeERNS_15ArgumentDecoderERS6_
__ZN3WTF6VectorIcLm0ENS_15CrashOnOverflowEE6resizeEm
__ZN6CyberKit14EncoderAdapter11encodeBytesEPKhm
__ZN6CyberKit16SandboxExtension11HandleArray8allocateEm
__ZNK6CyberKit16SandboxExtension11HandleArray6encodeERN7CoreIPC15ArgumentEncoderE
__ZN6CyberKit14DecoderAdapterC1EPKhm
__ZN6CyberKit14DecoderAdapter10decodeBoolERb
__ZN6CyberKit14DecoderAdapter11decodeBytesERN3WTF6VectorIhLm0ENS1_15CrashOnOverflowEEE
__ZN6CyberKit14DecoderAdapter12decodeUInt64ERy
__ZN6CyberKit14DecoderAdapter12decodeUInt32ERj
__ZN6CyberKit14DecoderAdapter11decodeInt64ERx
__ZN6CyberKit16SandboxExtension11HandleArray6decodeERN7CoreIPC15ArgumentDecoderERS1_
__ZN6CyberKit18NPRuntimeObjectMap8finalizeEN3JSC6HandleINS1_7UnknownEEEPv
__ZN3WTF9HashTableIP8NPObjectNS_12KeyValuePairIS2_N3JSC4WeakIN6CyberKit10JSNPObjectEEEEENS_24KeyValuePairKeyExtractorIS9_EENS_7PtrHashIS2_EENS_18HashMapValueTraitsINS_10HashTraitsIS2_EENSF_IS8_EEEESG_E15deallocateTableEPS9_i
__ZN3WTF9HashTableIP8NPObjectNS_12KeyValuePairIS2_N3JSC4WeakIN6CyberKit10JSNPObjectEEEEENS_24KeyValuePairKeyExtractorIS9_EENS_7PtrHashIS2_EENS_18HashMapValueTraitsINS_10HashTraitsIS2_EENSF_IS8_EEEESG_E16lookupForWritingINS_22IdentityHashTranslatorISD_EES2_EENSt3__14pairIPS9_bEERKT0_
__ZN3WTF9HashTableIP8NPObjectNS_12KeyValuePairIS2_N3JSC4WeakIN6CyberKit10JSNPObjectEEEEENS_24KeyValuePairKeyExtractorIS9_EENS_7PtrHashIS2_EENS_18HashMapValueTraitsINS_10HashTraitsIS2_EENSF_IS8_EEEESG_E3addINS_17HashMapTranslatorISI_SD_EES2_NS4_8PassWeakIS7_EEEENS_18HashTableAddResultINS_17HashTableIteratorIS2_S9_SB_SD_SI_SG_EEEERKT0_RKT1_
__ZN3WTF9HashTableIP8NPObjectNS_12KeyValuePairIS2_N3JSC4WeakIN6CyberKit10JSNPObjectEEEEENS_24KeyValuePairKeyExtractorIS9_EENS_7PtrHashIS2_EENS_18HashMapValueTraitsINS_10HashTraitsIS2_EENSF_IS8_EEEESG_E4findINS_22IdentityHashTranslatorISD_EES2_EENS_17HashTableIteratorIS2_S9_SB_SD_SI_SG_EERKT0_
__ZN3WTF9HashTableIP8NPObjectNS_12KeyValuePairIS2_N3JSC4WeakIN6CyberKit10JSNPObjectEEEEENS_24KeyValuePairKeyExtractorIS9_EENS_7PtrHashIS2_EENS_18HashMapValueTraitsINS_10HashTraitsIS2_EENSF_IS8_EEEESG_E5beginEv
__ZN3WTF9HashTableIP8NPObjectNS_12KeyValuePairIS2_N3JSC4WeakIN6CyberKit10JSNPObjectEEEEENS_24KeyValuePairKeyExtractorIS9_EENS_7PtrHashIS2_EENS_18HashMapValueTraitsINS_10HashTraitsIS2_EENSF_IS8_EEEESG_E6expandEv
__ZN3WTF9HashTableIP8NPObjectNS_12KeyValuePairIS2_N3JSC4WeakIN6CyberKit10JSNPObjectEEEEENS_24KeyValuePairKeyExtractorIS9_EENS_7PtrHashIS2_EENS_18HashMapValueTraitsINS_10HashTraitsIS2_EENSF_IS8_EEEESG_E6lookupINS_22IdentityHashTranslatorISD_EES2_EEPS9_RKT0_
__ZN3WTF9HashTableIP8NPObjectNS_12KeyValuePairIS2_N3JSC4WeakIN6CyberKit10JSNPObjectEEEEENS_24KeyValuePairKeyExtractorIS9_EENS_7PtrHashIS2_EENS_18HashMapValueTraitsINS_10HashTraitsIS2_EENSF_IS8_EEEESG_E6rehashEi
__ZN3WTF9HashTableIP8NPObjectNS_12KeyValuePairIS2_N3JSC4WeakIN6CyberKit10JSNPObjectEEEEENS_24KeyValuePairKeyExtractorIS9_EENS_7PtrHashIS2_EENS_18HashMapValueTraitsINS_10HashTraitsIS2_EENSF_IS8_EEEESG_E6removeEPS9_
__ZN6CyberKit18NPRuntimeObjectMap22addToInvalidationQueueEP8NPObject
__ZN6CyberKit22trySafeReleaseNPObjectEP8NPObject
__ZN7CyberCore7RunLoop5TimerIN6CyberKit18NPRuntimeObjectMapEE5firedEv
__ZN6CyberKit18NPRuntimeObjectMap23invalidateQueuedObjectsEv
__ZN6CyberKit17NPRemoteObjectMap22npObjectProxyDestroyedEP8NPObject
__ZN7CoreIPC10Connection8sendSyncIN8Messages23NPObjectMessageReceiver10DeallocateEEEbRKT_RKNS5_5ReplyEydj
__ZN3WTF6VectorIP8NPObjectLm0ENS_15CrashOnOverflowEE14shrinkCapacityEm
__ZN6CyberKit10JSNPObject12methodGetterEPN3JSC9ExecStateENS1_7JSValueENS1_12PropertyNameE
__ZN6CyberKit10JSNPMethod6createEPN3JSC9ExecStateEPNS1_14JSGlobalObjectERKN3WTF6StringEPv
__ZN3JSC12allocateCellIN6CyberKit10JSNPMethodEEEPvRNS_4HeapE
__ZN6CyberKit10JSNPMethodC1EPN3JSC14JSGlobalObjectEPNS1_9StructureEPv
__ZN6CyberKit10JSNPMethod14finishCreationERN3JSC2VMERKN3WTF6StringE
__ZN6CyberKit10JSNPMethod11getCallDataEPN3JSC6JSCellERNS1_8CallDataE
__ZN6CyberKitL10callMethodEPN3JSC9ExecStateE
__ZN6CyberKit10JSNPObject10callMethodEPN3JSC9ExecStateEPv
__ZN6CyberKit13NPObjectProxy9NP_InvokeEP8NPObjectPvPK10_NPVariantjPS4_
__ZN6CyberKit13NPObjectProxy6invokeEPvPK10_NPVariantjPS2_
__ZN3WTF6VectorIN6CyberKit13NPVariantDataELm0ENS_15CrashOnOverflowEE14appendSlowCaseIS2_EEvRKT_
__ZN3WTF6VectorIN6CyberKit13NPVariantDataELm0ENS_15CrashOnOverflowEE14expandCapacityEmPKS2_
__ZN3WTF6VectorIN6CyberKit13NPVariantDataELm0ENS_15CrashOnOverflowEE15reserveCapacityEm
__ZN3WTF16VectorBufferBaseIN6CyberKit13NPVariantDataEE14allocateBufferEm
__ZN3WTF11VectorMoverILb0EN6CyberKit13NPVariantDataEE4moveEPKS2_S5_PS2_
__ZN7CoreIPC10Connection8sendSyncIN8Messages23NPObjectMessageReceiver6InvokeEEEbRKT_RKNS5_5ReplyEydj
__ZN7CoreIPC19VectorArgumentCoderILb0EN6CyberKit13NPVariantDataEE6encodeERNS_15ArgumentEncoderERKN3WTF6VectorIS2_Lm0ENS6_15CrashOnOverflowEEE
__ZN6CyberKit13NPVariantData8makeNullEv
__ZN7CoreIPC10Arguments2IRbRN6CyberKit13NPVariantDataEE6decodeERNS_15ArgumentDecoderERS5_
__ZN3WTF6VectorIN6CyberKit13NPVariantDataELm0ENS_15CrashOnOverflowEE6shrinkEm
__ZN6CyberKit18NPRuntimeObjectMap30moveGlobalExceptionToExecStateEPN3JSC9ExecStateE
__ZN6CyberKitL21globalExceptionStringEv
__ZN6CyberKit18NPRuntimeObjectMap25convertNPVariantToJSValueEPN3JSC9ExecStateEPNS1_14JSGlobalObjectERK10_NPVariant
__ZN3WTF6VectorI10_NPVariantLm8ENS_15CrashOnOverflowEED2Ev
__ZN3WTF10RefCountedIN7CyberCore9FormStateEE5derefEv
_WKBundleNavigationActionCopyFormElement
__ZN6CyberKit20WebFrameLoaderClient22dispatchWillSubmitFormEMN7CyberCore13PolicyCheckerEFvNS1_12PolicyActionEEN3WTF10PassRefPtrINS1_9FormStateEEE
__ZN6CyberKit28InjectedBundlePageFormClient14willSubmitFormEPNS_7WebPageEPN7CyberCore15HTMLFormElementEPNS_8WebFrameES7_RKN3WTF6VectorINSt3__14pairINS8_6StringESC_EELm0ENS8_15CrashOnOverflowEEERNS8_6RefPtrINS_9APIObjectEEE
__ZN7CoreIPC13MessageSender4sendIN8Messages12WebPageProxy14WillSubmitFormEEEbRKT_y
__ZNK7CoreIPC10Arguments4IyyRKN3WTF6VectorINSt3__14pairINS1_6StringES5_EELm0ENS1_15CrashOnOverflowEEEyE6encodeERNS_15ArgumentEncoderE
__ZN7CoreIPC19VectorArgumentCoderILb0ENSt3__14pairIN3WTF6StringES4_EEE6encodeERNS_15ArgumentEncoderERKNS3_6VectorIS5_Lm0ENS3_15CrashOnOverflowEEE
__ZN7CoreIPC21handleMessageVariadicIN8Messages12WebPageProxy14WillSubmitFormEN6CyberKit12WebPageProxyEMS5_FvyyRKN3WTF6VectorINSt3__14pairINS6_6StringESA_EELm0ENS6_15CrashOnOverflowEEEyRNS_14MessageDecoderEEEEvSH_PT0_T1_
__ZN7CoreIPC10Arguments4IyyN3WTF6VectorINSt3__14pairINS1_6StringES5_EELm0ENS1_15CrashOnOverflowEEEyE6decodeERNS_15ArgumentDecoderERS9_
__ZN7CoreIPC10Arguments3IyyN3WTF6VectorINSt3__14pairINS1_6StringES5_EELm0ENS1_15CrashOnOverflowEEEE6decodeERNS_15ArgumentDecoderERS9_
__ZN7CoreIPC19VectorArgumentCoderILb0ENSt3__14pairIN3WTF6StringES4_EEE6decodeERNS_15ArgumentDecoderERNS3_6VectorIS5_Lm0ENS3_15CrashOnOverflowEEE
__ZN3WTF6VectorINSt3__14pairINS_6StringES3_EELm0ENS_15CrashOnOverflowEE14shrinkCapacityEm
__ZN3WTF6VectorINSt3__14pairINS_6StringES3_EELm0ENS_15CrashOnOverflowEED2Ev
__ZN7CoreIPC18callMemberFunctionIN6CyberKit12WebPageProxyEMS2_FvyyRKN3WTF6VectorINSt3__14pairINS3_6StringES7_EELm0ENS3_15CrashOnOverflowEEEyRNS_14MessageDecoderEEyySA_yEEvRKNS_10Arguments4IT1_T2_T3_T4_EESE_PT_T0_
__ZN6CyberKit12WebPageProxy14willSubmitFormEyyRKN3WTF6VectorINSt3__14pairINS1_6StringES5_EELm0ENS1_15CrashOnOverflowEEEyRN7CoreIPC14MessageDecoderE
__ZN6CyberKit13WebFrameProxy32setUpFormSubmissionListenerProxyEy
__ZN6CyberKit30WebFormSubmissionListenerProxyC1EPNS_13WebFrameProxyEy
__ZN6CyberKit13WebFormClient14willSubmitFormEPNS_12WebPageProxyEPNS_13WebFrameProxyES4_RKN3WTF6VectorINSt3__14pairINS5_6StringES9_EELm0ENS5_15CrashOnOverflowEEEPNS_9APIObjectEPNS_30WebFormSubmissionListenerProxyE
_WKFormSubmissionListenerContinue
__ZN6CyberKit30WebFormSubmissionListenerProxy18continueSubmissionEv
_WKBackForwardListCopyForwardListWithLimit
__ZNK6CyberKit18WebBackForwardList36forwardListAsImmutableArrayWithLimitEj
_WKPageSetVisibilityState
__ZN6CyberKit12WebPageProxy18setVisibilityStateEN7CyberCore19PageVisibilityStateEb
__ZN6CyberKit12MutableArray15reserveCapacityEj
__ZN6CyberKit34TiledCoreAnimationDrawingAreaProxyD0Ev
__ZN6CyberKit15WebProcessProxy24canTerminateChildProcessEv
__ZN6CyberKit10WebContext15shouldTerminateEPNS_15WebProcessProxyE
__ZNK6CyberKit20WebContextSupplement15shouldTerminateEPNS_15WebProcessProxyE
__ZThn16_NK6CyberKit31WebApplicationCacheManagerProxy15shouldTerminateEPNS_15WebProcessProxyE
__ZThn16_NK6CyberKit28WebResourceCacheManagerProxy15shouldTerminateEPNS_15WebProcessProxyE
__ZThn16_NK6CyberKit25WebMediaCacheManagerProxy15shouldTerminateEPNS_15WebProcessProxyE
__ZThn16_NK6CyberKit21WebCookieManagerProxy15shouldTerminateEPNS_15WebProcessProxyE
__ZThn16_NK6CyberKit23WebDatabaseManagerProxy15shouldTerminateEPNS_15WebProcessProxyE
__ZNK6CyberKit24WebPluginSiteDataManager15shouldTerminateEPNS_15WebProcessProxyE
__ZN6CyberKit17ChildProcessProxy26abortProcessLaunchIfNeededEv
__ZN6CyberKit15WebProcessProxy10disconnectEv
__ZN6CyberKit17ChildProcessProxy15clearConnectionEv
__ZN6CyberKit15WebProcessProxy19connectionWillCloseEPN7CoreIPC10ConnectionE
__ZN6CyberKit10WebContext26processWillCloseConnectionEPNS_15WebProcessProxyE
__ZN6CyberKit14StorageManager26processWillCloseConnectionEPNS_15WebProcessProxyE
__ZN3WTF4bindIMN6CyberKit14StorageManagerEFvPN7CoreIPC10ConnectionEEPS2_NS_6RefPtrIS4_EEEENS_8FunctionIFNS_15FunctionWrapperIT_E10ResultTypeEvEEESD_RKT0_RKT1_
__ZN6CyberKit14StorageManager28invalidateConnectionInternalEPN7CoreIPC10ConnectionE
__ZN6CyberKit25WebConnectionToWebProcess10invalidateEv
__ZNK3WTF9HashTableINSt3__14pairINS_6RefPtrIN7CoreIPC10ConnectionEEEyEENS_12KeyValuePairIS7_NS3_IN6CyberKit14StorageManager11StorageAreaEEEEENS_24KeyValuePairKeyExtractorISD_EENS_8PairHashIS6_yEENS_18HashMapValueTraitsINS_10HashTraitsIS7_EENSJ_ISC_EEEESK_E17makeConstIteratorEPSD_
__ZNK3WTF9HashTableINSt3__14pairINS_6RefPtrIN7CoreIPC10ConnectionEEEyEENS_12KeyValuePairIS7_NS3_IN6CyberKit14StorageManager11StorageAreaEEEEENS_24KeyValuePairKeyExtractorISD_EENS_8PairHashIS6_yEENS_18HashMapValueTraitsINS_10HashTraitsIS7_EENSJ_ISC_EEEESK_E5beginEv
__ZN6CyberKit25WebConnectionToWebProcessD0Ev
__ZN3WTF6RefPtrIN6CyberKit14StorageManager11StorageAreaEEaSERKS4_
__ZN6CyberKit13WebConnectionD2Ev
__ZN3WTF6VectorINSt3__14pairINS_6RefPtrIN7CoreIPC10ConnectionEEEyEELm0ENS_15CrashOnOverflowEED2Ev
__ZN6CyberKit10WebContext17disconnectProcessEPNS_15WebProcessProxyE
__ZN6CyberKit19VisitedLinkProvider15processDidCloseEPNS_15WebProcessProxyE
__ZN3WTF7HashSetIPN6CyberKit15WebProcessProxyENS_7PtrHashIS3_EENS_10HashTraitsIS3_EEE6removeERKS3_
__ZNK3WTF9HashTableIPN6CyberKit15WebProcessProxyES3_NS_17IdentityExtractorENS_7PtrHashIS3_EENS_10HashTraitsIS3_EES8_E4findINS_22IdentityHashTranslatorIS6_EES3_EENS_22HashTableConstIteratorIS3_S3_S4_S6_S8_S8_EERKT0_
__ZN3WTF9HashTableIPN6CyberKit15WebProcessProxyES3_NS_17IdentityExtractorENS_7PtrHashIS3_EENS_10HashTraitsIS3_EES8_E6lookupINS_22IdentityHashTranslatorIS6_EES3_EEPS3_RKT0_
__ZN3WTF9HashTableIPN6CyberKit15WebProcessProxyES3_NS_17IdentityExtractorENS_7PtrHashIS3_EENS_10HashTraitsIS3_EES8_E6removeEPS3_
__ZN3WTF6VectorINS_6RefPtrIN6CyberKit15WebProcessProxyEEELm0ENS_15CrashOnOverflowEE6removeEm
__ZN6CyberKitL29didCloseOnConnectionWorkQueueEPN7CoreIPC10ConnectionE
__ZN6CyberKit29TiledCoreAnimationDrawingAreaD0Ev
__ZN6CyberKit29TiledCoreAnimationDrawingAreaD2Ev
__ZN6CyberKit15EventDispatcher26removeScrollingTreeForPageEPNS_7WebPageE
__ZN3WTF7HashMapIyNS_6RefPtrIN7CyberCore13ScrollingTreeEEENS_7IntHashIyEENS_10HashTraitsIyEENS7_IS4_EEE6removeERKy
__ZN6CyberKit10WebProcess15shouldTerminateEv
__ZN7CoreIPC10Connection8sendSyncIN8Messages15WebProcessProxy15ShouldTerminateEEEbRKT_RKNS5_5ReplyEydj
__ZN6CyberKit29NetworkConnectionToWebProcess8didCloseEPN7CoreIPC10ConnectionE
__ZN6CyberKit19NetworkBlobRegistry6sharedEv
__ZN6CyberKit19NetworkBlobRegistry30connectionToWebProcessDidCloseEPNS_29NetworkConnectionToWebProcessE
__ZN6CyberKit14NetworkProcess35removeNetworkConnectionToWebProcessEPNS_29NetworkConnectionToWebProcessE
__ZN3WTF6VectorINS_6RefPtrIN6CyberKit29NetworkConnectionToWebProcessEEELm0ENS_15CrashOnOverflowEE6removeEm
__ZN6CyberKit29NetworkConnectionToWebProcessD0Ev
__ZN6CyberKit29NetworkConnectionToWebProcessD2Ev
____ZN6CyberKitL16connectToServiceERKNS_15ProcessLauncher13LaunchOptionsEbPS0_MS0_FviN7CoreIPC10Connection10IdentifierEEPNS_12_GLO
__ZN6CyberKit15WebProcessProxyD0Ev
__ZN6CyberKit15WebProcessProxyD2Ev
__ZN3WTF6OwnPtrIN6CyberKit16DownloadProxyMapEED2Ev
__ZN6CyberKit22WebBackForwardListItemD0Ev
__ZN6CyberKit22WebBackForwardListItemD2Ev
__ZN6CyberKit19ResponsivenessTimerD1Ev
__ZN7CyberCore12ChromeClient19addMessageToConsoleENS_13MessageSourceENS_11MessageTypeENS_12MessageLevelERKN3WTF6StringEjjS7_
__ZN6CyberKit11PluginProxy19visibilityDidChangeEv
__ZN6CyberKit13NPVariantData10makeDoubleEd
__ZN3JSC8jsStringEPNS_9ExecStateERKN3WTF6StringE
__ZN3JSC8JSString6createERNS_2VMEN3WTF10PassRefPtrINS3_10StringImplEEE
__ZNK3WTF10StringImpl4costEv
__ZN3JSC12allocateCellINS_8JSStringEEEPvRNS_4HeapE
__ZN3JSC8JSString14finishCreationERNS_2VMEmm
_WKFramePolicyListenerDownload
__ZN6CyberKit27WebFramePolicyListenerProxy8downloadEv
__ZN6CyberKit10WebContext19createDownloadProxyEv
__ZN6CyberKit19NetworkProcessProxy19createDownloadProxyEv
__ZN6CyberKit16DownloadProxyMapC1EPNS_17ChildProcessProxyE
__ZN3WTF6OwnPtrIN6CyberKit16DownloadProxyMapEEaSERKNS_10PassOwnPtrIS2_EE
__ZN3WTF10PassOwnPtrIN6CyberKit16DownloadProxyMapEED2Ev
__ZN6CyberKit16DownloadProxyMap19createDownloadProxyEPNS_10WebContextE
__ZN6CyberKit13DownloadProxy6createERNS_16DownloadProxyMapEPNS_10WebContextE
__ZN6CyberKit13DownloadProxyC2ERNS_16DownloadProxyMapEPNS_10WebContextE
__ZN3WTF7HashMapIyNS_6RefPtrIN6CyberKit13DownloadProxyEEENS_7IntHashIyEENS_10HashTraitsIyEENS7_IS4_EEE3setERKyNS_10PassRefPtrIS3_EE
__ZN3WTF9HashTableIyNS_12KeyValuePairIyNS_6RefPtrIN6CyberKit13DownloadProxyEEEEENS_24KeyValuePairKeyExtractorIS6_EENS_7IntHashIyEENS_18HashMapValueTraitsINS_10HashTraitsIyEENSC_IS5_EEEESD_E15deallocateTableEPS6_i
__ZN3WTF9HashTableIyNS_12KeyValuePairIyNS_6RefPtrIN6CyberKit13DownloadProxyEEEEENS_24KeyValuePairKeyExtractorIS6_EENS_7IntHashIyEENS_18HashMapValueTraitsINS_10HashTraitsIyEENSC_IS5_EEEESD_E16lookupForWritingINS_22IdentityHashTranslatorISA_EEyEENSt3__14pairIPS6_bEERKT0_
__ZN3WTF9HashTableIyNS_12KeyValuePairIyNS_6RefPtrIN6CyberKit13DownloadProxyEEEEENS_24KeyValuePairKeyExtractorIS6_EENS_7IntHashIyEENS_18HashMapValueTraitsINS_10HashTraitsIyEENSC_IS5_EEEESD_E3addINS_17HashMapTranslatorISF_SA_EEyNS_10PassRefPtrIS4_EEEENS_18HashTableAddResultINS_17HashTableIteratorIyS6_S8_SA_SF_SD_EEEERKT0_RKT1_
__ZN3WTF9HashTableIyNS_12KeyValuePairIyNS_6RefPtrIN6CyberKit13DownloadProxyEEEEENS_24KeyValuePairKeyExtractorIS6_EENS_7IntHashIyEENS_18HashMapValueTraitsINS_10HashTraitsIyEENSC_IS5_EEEESD_E4findINS_22IdentityHashTranslatorISA_EEyEENS_17HashTableIteratorIyS6_S8_SA_SF_SD_EERKT0_
__ZN3WTF9HashTableIyNS_12KeyValuePairIyNS_6RefPtrIN6CyberKit13DownloadProxyEEEEENS_24KeyValuePairKeyExtractorIS6_EENS_7IntHashIyEENS_18HashMapValueTraitsINS_10HashTraitsIyEENSC_IS5_EEEESD_E6expandEv
__ZN3WTF9HashTableIyNS_12KeyValuePairIyNS_6RefPtrIN6CyberKit13DownloadProxyEEEEENS_24KeyValuePairKeyExtractorIS6_EENS_7IntHashIyEENS_18HashMapValueTraitsINS_10HashTraitsIyEENSC_IS5_EEEESD_E6lookupINS_22IdentityHashTranslatorISA_EEyEEPS6_RKT0_
__ZN3WTF9HashTableIyNS_12KeyValuePairIyNS_6RefPtrIN6CyberKit13DownloadProxyEEEEENS_24KeyValuePairKeyExtractorIS6_EENS_7IntHashIyEENS_18HashMapValueTraitsINS_10HashTraitsIyEENSC_IS5_EEEESD_E6rehashEi
__ZN3WTF9HashTableIyNS_12KeyValuePairIyNS_6RefPtrIN6CyberKit13DownloadProxyEEEEENS_24KeyValuePairKeyExtractorIS6_EENS_7IntHashIyEENS_18HashMapValueTraitsINS_10HashTraitsIyEENSC_IS5_EEEESD_E6removeEPS6_
__ZN3WTF17HashMapTranslatorINS_18HashMapValueTraitsINS_10HashTraitsIyEENS2_INS_6RefPtrIN6CyberKit13DownloadProxyEEEEEEENS_7IntHashIyEEE9translateINS_12KeyValuePairIyS7_EEyNS_10PassRefPtrIS6_EEEEvRT_RKT0_RKT1_
__ZN6CyberKit20WebFrameLoaderClient33convertMainResourceLoadToDownloadEPN7CyberCore14DocumentLoaderERKNS1_15ResourceRequestERKNS1_16ResourceResponseE
__ZN6CyberKit8WebFrame33convertMainResourceLoadToDownloadEPN7CyberCore14DocumentLoaderERKNS1_15ResourceRequestERKNS1_16ResourceResponseE
__ZN7CoreIPC10Connection4sendIN8Messages29NetworkConnectionToWebProcess33ConvertMainResourceLoadToDownloadEEEbRKT_yj
__ZNK7CoreIPC10Arguments4IyyRKN7CyberCore15ResourceRequestERKNS1_16ResourceResponseEE6encodeERNS_15ArgumentEncoderE
__ZN6CyberKit20WebFrameLoaderClient31interruptedForPolicyChangeErrorERKN7CyberCore15ResourceRequestE
__ZN6CyberKit31interruptedForPolicyChangeErrorERKN7CyberCore15ResourceRequestE
__ZN7CoreIPC13handleMessageIN8Messages29NetworkConnectionToWebProcess33ConvertMainResourceLoadToDownloadEN6CyberKit29NetworkConnectionToWebProcessEMS5_FvyyRKN7CyberCore15ResourceRequestERKNS6_16ResourceResponseEEEEvRNS_14MessageDecoderEPT0_T1_
__ZN7CoreIPC10Arguments4IyyN7CyberCore15ResourceRequestENS1_16ResourceResponseEE6decodeERNS_15ArgumentDecoderERS4_
__ZN7CoreIPC10Arguments3IyyN7CyberCore15ResourceRequestEE6decodeERNS_15ArgumentDecoderERS3_
__ZN6CyberKit29NetworkConnectionToWebProcess33convertMainResourceLoadToDownloadEyyRKN7CyberCore15ResourceRequestERKNS1_16ResourceResponseE
__ZN6CyberKit14NetworkProcess15downloadManagerEv
__ZN6CyberKit15DownloadManagerC1EPNS0_6ClientE
__ZN6CyberKit15DownloadManager23convertHandleToDownloadEyPN7CyberCore14ResourceHandleERKNS1_15ResourceRequestERKNS1_16ResourceResponseE
__ZN6CyberKit8Download6createERNS_15DownloadManagerEyRKN7CyberCore15ResourceRequestE
__ZN6CyberKit15DownloadManager17didCreateDownloadEv
__ZThn208_N6CyberKit14NetworkProcess17didCreateDownloadEv
__ZN6CyberKit8Download15startWithHandleEPN7CyberCore14ResourceHandleERKNS1_16ResourceResponseE
-[WKDownloadAsDelegate initWithDownload:]
__ZN3WTF9RetainPtrIP20WKDownloadAsDelegateEC2ENS_10AdoptNSTagES2_
__ZN3WTF9RetainPtrI20WKDownloadAsDelegateEaSIPS1_EERS2_ONS0_IT_EE
-[WKDownloadAsDelegate downloadDidBegin:]
__ZL20dispatchOnMainThreadU13block_pointerFvvE
___41-[WKDownloadAsDelegate downloadDidBegin:]_block_invoke
__ZN6CyberKit8Download8didStartEv
__ZN6CyberKit8Download26messageSenderDestinationIDEv
__ZN7CoreIPC13MessageSender4sendIN8Messages13DownloadProxy8DidStartEEEbRKT_y
__ZN6CyberKit8Download23messageSenderConnectionEv
__ZN6CyberKit15DownloadManager23downloadProxyConnectionEv
__ZThn208_N6CyberKit14NetworkProcess23downloadProxyConnectionEv
-[WKDownloadAsDelegate download:willSendRequest:redirectResponse:]
-[WKDownloadAsDelegate download:didReceiveResponse:]
___52-[WKDownloadAsDelegate download:didReceiveResponse:]_block_invoke
__ZN6CyberKit8Download18didReceiveResponseERKN7CyberCore16ResourceResponseE
__ZThn16_N6CyberKit13DownloadProxy17didReceiveMessageEPN7CoreIPC10ConnectionERNS1_14MessageDecoderE
__ZN7CoreIPC13MessageSender4sendIN8Messages13DownloadProxy18DidReceiveResponseEEEbRKT_y
__ZN6CyberKit13DownloadProxy17didReceiveMessageEPN7CoreIPC10ConnectionERNS1_14MessageDecoderE
__ZN7CoreIPC13handleMessageIN8Messages13DownloadProxy8DidStartEN6CyberKit13DownloadProxyEMS5_FvRKN7CyberCore15ResourceRequestEEEEvRNS_14MessageDecoderEPT0_T1_
__ZN3WTF9RetainPtrI13NSURLDownloadEaSI11objc_objectEERS2_PT_
__ZN6CyberKit21NetworkResourceLoader26didConvertHandleToDownloadEv
__ZN6CyberKit13DownloadProxy8didStartERKN7CyberCore15ResourceRequestE
__ZN6CyberKit17WebDownloadClient8didStartEPNS_10WebContextEPNS_13DownloadProxyE
_WKDownloadCopyRequest
__ZN6CyberKit20WebFrameLoaderClient38dispatchDidLoadResourceFromMemoryCacheEPN7CyberCore14DocumentLoaderERKNS1_15ResourceRequestERKNS1_16ResourceResponseEi
-[WKDownloadAsDelegate download:decideDestinationWithSuggestedFilename:]
___72-[WKDownloadAsDelegate download:decideDestinationWithSuggestedFilename:]_block_invoke
__ZN6CyberKit8Download38decideDestinationWithSuggestedFilenameERKN3WTF6StringERb
__ZN6CyberKit8Download40retrieveDestinationWithSuggestedFilenameERKN3WTF6StringERb
__ZN7CoreIPC10Connection8sendSyncIN8Messages13DownloadProxy38DecideDestinationWithSuggestedFilenameEEEbRKT_RKNS5_5ReplyEydj
__ZN7CoreIPC13handleMessageIN8Messages13DownloadProxy18DidReceiveResponseEN6CyberKit13DownloadProxyEMS5_FvRKN7CyberCore16ResourceResponseEEEEvRNS_14MessageDecoderEPT0_T1_
__ZN6CyberKit13DownloadProxy18didReceiveResponseERKN7CyberCore16ResourceResponseE
__ZN6CyberKit17WebDownloadClient18didReceiveResponseEPNS_10WebContextEPNS_13DownloadProxyERKN7CyberCore16ResourceResponseE
__ZThn8_N6CyberKit19NetworkProcessProxy21didReceiveSyncMessageEPN7CoreIPC10ConnectionERNS1_14MessageDecoderERN3WTF6OwnPtrINS1_14MessageEncoderEEE
__ZThn16_N6CyberKit13DownloadProxy21didReceiveSyncMessageEPN7CoreIPC10ConnectionERNS1_14MessageDecoderERN3WTF6OwnPtrINS1_14MessageEncoderEEE
__ZN6CyberKit13DownloadProxy21didReceiveSyncMessageEPN7CoreIPC10ConnectionERNS1_14MessageDecoderERN3WTF6OwnPtrINS1_14MessageEncoderEEE
__ZN7CoreIPC13handleMessageIN8Messages13DownloadProxy38DecideDestinationWithSuggestedFilenameEN6CyberKit13DownloadProxyEMS5_FvRKN3WTF6StringERS7_RbRNS4_16SandboxExtension6HandleEEEEvRNS_14MessageDecoderERNS_14MessageEncoderEPT0_T1_
__ZN6CyberKit13DownloadProxy38decideDestinationWithSuggestedFilenameERKN3WTF6StringERS2_RbRNS_16SandboxExtension6HandleE
__ZN6CyberKit17WebDownloadClient38decideDestinationWithSuggestedFilenameEPNS_10WebContextEPNS_13DownloadProxyERKN3WTF6StringERb
__ZN7CoreIPC10Arguments3IRN3WTF6StringERbRN6CyberKit16SandboxExtension6HandleEE6decodeERNS_15ArgumentDecoderERS9_
__ZN7CoreIPC10Arguments2IRN3WTF6StringERbE6decodeERNS_15ArgumentDecoderERS5_
__ZN6CyberKit8Download20didDecideDestinationERKN3WTF6StringEb
-[WKDownloadAsDelegate download:didCreateDestination:]
___54-[WKDownloadAsDelegate download:didCreateDestination:]_block_invoke
__ZN6CyberKit8Download20didCreateDestinationERKN3WTF6StringE
__ZN7CoreIPC13MessageSender4sendIN8Messages13DownloadProxy20DidCreateDestinationEEEbRKT_y
__ZN7CoreIPC13handleMessageIN8Messages13DownloadProxy20DidCreateDestinationEN6CyberKit13DownloadProxyEMS5_FvRKN3WTF6StringEEEEvRNS_14MessageDecoderEPT0_T1_
__ZN6CyberKit13DownloadProxy20didCreateDestinationERKN3WTF6StringE
__ZN6CyberKit17WebDownloadClient20didCreateDestinationEPNS_10WebContextEPNS_13DownloadProxyERKN3WTF6StringE
-[WKDownloadAsDelegate download:didReceiveDataOfLength:]
___56-[WKDownloadAsDelegate download:didReceiveDataOfLength:]_block_invoke
__ZN6CyberKit8Download14didReceiveDataEy
__ZN7CoreIPC13MessageSender4sendIN8Messages13DownloadProxy14DidReceiveDataEEEbRKT_y
__ZN6CyberKit13DownloadProxy14didReceiveDataEy
__ZN6CyberKit17WebDownloadClient14didReceiveDataEPNS_10WebContextEPNS_13DownloadProxyEy
__ZN7CyberCore12ChromeClient34requiresFullscreenForVideoPlaybackEv
__ZNK7CyberCore12ChromeClient22isSVGImageChromeClientEv
-[WKDownloadAsDelegate downloadDidFinish:]
___42-[WKDownloadAsDelegate downloadDidFinish:]_block_invoke
__ZN6CyberKit8Download9didFinishEv
__ZN6CyberKit8Download17platformDidFinishEv
__ZN7CoreIPC13MessageSender4sendIN8Messages13DownloadProxy9DidFinishEEEbRKT_y
__ZN6CyberKit16SandboxExtension6revokeEv
_WKSandboxExtensionInvalidate
__ZN6CyberKit13DownloadProxy9didFinishEv
__ZN6CyberKit15DownloadManager16downloadFinishedEPNS_8DownloadE
__ZN6CyberKit17WebDownloadClient9didFinishEPNS_10WebContextEPNS_13DownloadProxyE
__ZN3WTF7HashMapIyPN6CyberKit8DownloadENS_7IntHashIyEENS_10HashTraitsIyEENS6_IS3_EEE6removeERKy
__ZN3WTF9HashTableIyNS_12KeyValuePairIyPN6CyberKit8DownloadEEENS_24KeyValuePairKeyExtractorIS5_EENS_7IntHashIyEENS_18HashMapValueTraitsINS_10HashTraitsIyEENSB_IS4_EEEESC_E16lookupForWritingINS_22IdentityHashTranslatorIS9_EEyEENSt3__14pairIPS5_bEERKT0_
__ZN3WTF9HashTableIyNS_12KeyValuePairIyPN6CyberKit8DownloadEEENS_24KeyValuePairKeyExtractorIS5_EENS_7IntHashIyEENS_18HashMapValueTraitsINS_10HashTraitsIyEENSB_IS4_EEEESC_E3addINS_17HashMapTranslatorISE_S9_EEyS4_EENS_18HashTableAddResultINS_17HashTableIteratorIyS5_S7_S9_SE_SC_EEEERKT0_RKT1_
__ZN3WTF9HashTableIyNS_12KeyValuePairIyPN6CyberKit8DownloadEEENS_24KeyValuePairKeyExtractorIS5_EENS_7IntHashIyEENS_18HashMapValueTraitsINS_10HashTraitsIyEENSB_IS4_EEEESC_E4findINS_22IdentityHashTranslatorIS9_EEyEENS_17HashTableIteratorIyS5_S7_S9_SE_SC_EERKT0_
__ZN3WTF9HashTableIyNS_12KeyValuePairIyPN6CyberKit8DownloadEEENS_24KeyValuePairKeyExtractorIS5_EENS_7IntHashIyEENS_18HashMapValueTraitsINS_10HashTraitsIyEENSB_IS4_EEEESC_E6expandEv
__ZN3WTF9HashTableIyNS_12KeyValuePairIyPN6CyberKit8DownloadEEENS_24KeyValuePairKeyExtractorIS5_EENS_7IntHashIyEENS_18HashMapValueTraitsINS_10HashTraitsIyEENSB_IS4_EEEESC_E6lookupINS_22IdentityHashTranslatorIS9_EEyEEPS5_RKT0_
__ZN3WTF9HashTableIyNS_12KeyValuePairIyPN6CyberKit8DownloadEEENS_24KeyValuePairKeyExtractorIS5_EENS_7IntHashIyEENS_18HashMapValueTraitsINS_10HashTraitsIyEENSB_IS4_EEEESC_E6rehashEi
__ZN3WTF9HashTableIyNS_12KeyValuePairIyPN6CyberKit8DownloadEEENS_24KeyValuePairKeyExtractorIS5_EENS_7IntHashIyEENS_18HashMapValueTraitsINS_10HashTraitsIyEENSB_IS4_EEEESC_E6removeEPS5_
__ZN6CyberKit8DownloadD0Ev
__ZN6CyberKit8DownloadD2Ev
__ZN6CyberKit8Download18platformInvalidateEv
-[WKDownloadAsDelegate invalidate]
__ZN3WTF9RetainPtrI20WKDownloadAsDelegateEaSEPS1_
__ZN3WTF9RetainPtrI13NSURLDownloadEaSEPS1_
__ZN6CyberKit15DownloadManager18didDestroyDownloadEv
__ZThn208_N6CyberKit14NetworkProcess18didDestroyDownloadEv
__ZN6CyberKit14NetworkProcess15shouldTerminateEv
_WKPreferencesGetJavaEnabled
__ZNK6CyberKit14WebPreferences11javaEnabledEv
__ZN6CyberKit16DownloadProxyMap16downloadFinishedEPNS_13DownloadProxyE
__ZN6CyberKit13DownloadProxy10invalidateEv
__ZN3WTF7HashMapIyNS_6RefPtrIN6CyberKit13DownloadProxyEEENS_7IntHashIyEENS_10HashTraitsIyEENS7_IS4_EEE6removeERKy
__ZN7CyberCore17FrameLoaderClient29dispatchDidNavigateWithinPageEv
__ZN6CyberKit20WebFrameLoaderClient29dispatchDidPopStateWithinPageEv
__ZN6CyberKit20WebFrameLoaderClient35dispatchDidChangeLocationWithinPageEv
__ZN6CyberKit20WebFrameLoaderClient13didFinishLoadEv
__ZN6CyberKit15WebChromeClient12createWindowEPN7CyberCore5FrameERKNS1_16FrameLoadRequestERKNS1_14WindowFeaturesERKNS1_16NavigationActionE
__ZN6CyberKit30InjectedBundleNavigationAction30mouseButtonForNavigationActionERKN7CyberCore16NavigationActionE
__ZN7CoreIPC10Connection8sendSyncIN8Messages12WebPageProxy13CreateNewPageEEEbRKT_RKNS5_5ReplyEydj
__ZNK7CoreIPC10Arguments4IRKN7CyberCore15ResourceRequestERKNS1_14WindowFeaturesEjiE6encodeERNS_15ArgumentEncoderE
__ZN7CoreIPC13ArgumentCoderIN7CyberCore14WindowFeaturesEE6encodeERNS_15ArgumentEncoderERKS2_
__ZN7CoreIPC13handleMessageIN8Messages12WebPageProxy13CreateNewPageEN6CyberKit12WebPageProxyEMS5_FvRKN7CyberCore15ResourceRequestERKNS6_14WindowFeaturesEjiRyRNS4_25WebPageCreationParametersEEEEvRNS_14MessageDecoderERNS_14MessageEncoderEPT0_T1_
__ZN7CoreIPC10Arguments4IN7CyberCore15ResourceRequestENS1_14WindowFeaturesEjiE6decodeERNS_15ArgumentDecoderERS4_
__ZN7CoreIPC10Arguments3IN7CyberCore15ResourceRequestENS1_14WindowFeaturesEjE6decodeERNS_15ArgumentDecoderERS4_
__ZN7CoreIPC10Arguments2IN7CyberCore15ResourceRequestENS1_14WindowFeaturesEE6decodeERNS_15ArgumentDecoderERS4_
__ZN7CoreIPC13ArgumentCoderIN7CyberCore14WindowFeaturesEE6decodeERNS_15ArgumentDecoderERS2_
__ZN7CoreIPC18callMemberFunctionIN6CyberKit12WebPageProxyEMS2_FvRKN7CyberCore15ResourceRequestERKNS3_14WindowFeaturesEjiRyRNS1_25WebPageCreationParametersEES4_S7_jiySB_EEvRKNS_10Arguments4IT1_T2_T3_T4_EERNS_10Arguments2IT5_T6_EEPT_T0_
__ZN6CyberKit12WebPageProxy13createNewPageERKN7CyberCore15ResourceRequestERKNS1_14WindowFeaturesEjiRyRNS_25WebPageCreationParametersE
__ZN6CyberKit11WebUIClient13createNewPageEPNS_12WebPageProxyERKN7CyberCore15ResourceRequestERKNS3_14WindowFeaturesENS_8WebEvent9ModifiersENS_13WebMouseEvent6ButtonE
_WKDictionaryGetSize
_WKStringCreateWithUTF8CString
__ZN6CyberKit9WebString20createFromUTF8StringEPKc
__ZN3WTF9RetainPtrIP12CGColorSpaceEaSERKS3_
__ZN6CyberKit14StorageManager28cloneSessionStorageNamespaceEyy
__ZN3WTF17BoundFunctionImplINS_15FunctionWrapperIMN6CyberKit14StorageManagerEFvyyEEEFvPS3_yyEEclEv
__ZN6CyberKit14StorageManager36cloneSessionStorageNamespaceInternalEyy
__ZN6CyberKit14StorageManager23SessionStorageNamespace7cloneToERS1_
__ZN3WTF9HashTableINS_6RefPtrIN7CyberCore14SecurityOriginEEENS_12KeyValuePairIS4_NS1_IN6CyberKit14StorageManager11StorageAreaEEEEENS_24KeyValuePairKeyExtractorISA_EENS2_18SecurityOriginHashENS_22KeyValuePairHashTraitsINS_10HashTraitsIS4_EENSF_IS9_EEEESG_E15deallocateTableEPSA_i
__ZN3WTF9HashTableINS_6RefPtrIN7CyberCore14SecurityOriginEEENS_12KeyValuePairIS4_NS1_IN6CyberKit14StorageManager11StorageAreaEEEEENS_24KeyValuePairKeyExtractorISA_EENS2_18SecurityOriginHashENS_22KeyValuePairHashTraitsINS_10HashTraitsIS4_EENSF_IS9_EEEESG_E16lookupForWritingINS_22IdentityHashTranslatorISD_EES4_EENSt3__14pairIPSA_bEERKT0_
__ZN3WTF9HashTableINS_6RefPtrIN7CyberCore14SecurityOriginEEENS_12KeyValuePairIS4_NS1_IN6CyberKit14StorageManager11StorageAreaEEEEENS_24KeyValuePairKeyExtractorISA_EENS2_18SecurityOriginHashENS_22KeyValuePairHashTraitsINS_10HashTraitsIS4_EENSF_IS9_EEEESG_E3addINS_17HashMapTranslatorISI_SD_EES4_NS_10PassRefPtrIS8_EEEENS_18HashTableAddResultINS_17HashTableIteratorIS4_SA_SC_SD_SI_SG_EEEERKT0_RKT1_
__ZN3WTF9HashTableINS_6RefPtrIN7CyberCore14SecurityOriginEEENS_12KeyValuePairIS4_NS1_IN6CyberKit14StorageManager11StorageAreaEEEEENS_24KeyValuePairKeyExtractorISA_EENS2_18SecurityOriginHashENS_22KeyValuePairHashTraitsINS_10HashTraitsIS4_EENSF_IS9_EEEESG_E4findINS_22IdentityHashTranslatorISD_EES4_EENS_17HashTableIteratorIS4_SA_SC_SD_SI_SG_EERKT0_
__ZN3WTF9HashTableINS_6RefPtrIN7CyberCore14SecurityOriginEEENS_12KeyValuePairIS4_NS1_IN6CyberKit14StorageManager11StorageAreaEEEEENS_24KeyValuePairKeyExtractorISA_EENS2_18SecurityOriginHashENS_22KeyValuePairHashTraitsINS_10HashTraitsIS4_EENSF_IS9_EEEESG_E5beginEv
__ZN3WTF9HashTableINS_6RefPtrIN7CyberCore14SecurityOriginEEENS_12KeyValuePairIS4_NS1_IN6CyberKit14StorageManager11StorageAreaEEEEENS_24KeyValuePairKeyExtractorISA_EENS2_18SecurityOriginHashENS_22KeyValuePairHashTraitsINS_10HashTraitsIS4_EENSF_IS9_EEEESG_E6expandEv
__ZN3WTF9HashTableINS_6RefPtrIN7CyberCore14SecurityOriginEEENS_12KeyValuePairIS4_NS1_IN6CyberKit14StorageManager11StorageAreaEEEEENS_24KeyValuePairKeyExtractorISA_EENS2_18SecurityOriginHashENS_22KeyValuePairHashTraitsINS_10HashTraitsIS4_EENSF_IS9_EEEESG_E6lookupINS_22IdentityHashTranslatorISD_EES4_EEPSA_RKT0_
__ZN3WTF9HashTableINS_6RefPtrIN7CyberCore14SecurityOriginEEENS_12KeyValuePairIS4_NS1_IN6CyberKit14StorageManager11StorageAreaEEEEENS_24KeyValuePairKeyExtractorISA_EENS2_18SecurityOriginHashENS_22KeyValuePairHashTraitsINS_10HashTraitsIS4_EENSF_IS9_EEEESG_E6rehashEi
__ZNK6CyberKit14StorageManager11StorageArea5cloneEv
__ZN3WTF6RefPtrIN7CyberCore10StorageMapEEaSERKS3_
__ZN3WTF17BoundFunctionImplINS_15FunctionWrapperIMN6CyberKit14StorageManagerEFvyyEEEFvPS3_yyEED0Ev
__ZN7CoreIPC10Arguments2IRyRN6CyberKit25WebPageCreationParametersEE6decodeERNS_15ArgumentDecoderERS5_
__ZN6CyberKit20StorageNamespaceImpl4copyEPN7CyberCore4PageE
__ZN6CyberKit15WebChromeClient18setToolbarsVisibleEb
__ZN7CoreIPC13MessageSender4sendIN8Messages12WebPageProxy21SetToolbarsAreVisibleEEEbRKT_y
__ZN6CyberKit15WebChromeClient19setStatusbarVisibleEb
__ZN7CoreIPC13MessageSender4sendIN8Messages12WebPageProxy21SetStatusBarIsVisibleEEEbRKT_y
__ZN6CyberKit15WebChromeClient20setScrollbarsVisibleEb
__ZN6CyberKit15WebChromeClient17setMenubarVisibleEb
__ZN7CoreIPC13MessageSender4sendIN8Messages12WebPageProxy19SetMenuBarIsVisibleEEEbRKT_y
__ZN6CyberKit15WebChromeClient12setResizableEb
__ZN7CoreIPC13MessageSender4sendIN8Messages12WebPageProxy14SetIsResizableEEEbRKT_y
__ZN7CoreIPC10Connection8sendSyncIN8Messages12WebPageProxy14GetWindowFrameEEEbRKT_RKNS5_5ReplyEydj
__ZN6CyberKit12WebPageProxy21setToolbarsAreVisibleEb
__ZN6CyberKit11WebUIClient21setToolbarsAreVisibleEPNS_12WebPageProxyEb
__ZN6CyberKit12WebPageProxy21setStatusBarIsVisibleEb
__ZN6CyberKit11WebUIClient21setStatusBarIsVisibleEPNS_12WebPageProxyEb
__ZN6CyberKit12WebPageProxy19setMenuBarIsVisibleEb
__ZN6CyberKit11WebUIClient19setMenuBarIsVisibleEPNS_12WebPageProxyEb
__ZN6CyberKit12WebPageProxy14setIsResizableEb
__ZN6CyberKit11WebUIClient14setIsResizableEPNS_12WebPageProxyEb
__ZN6CyberKit12WebPageProxy14getWindowFrameERN7CyberCore9FloatRectE
__ZN6CyberKit15WebChromeClient8pageRectEv
__ZNK7CyberCore12ChromeClient17minimumWindowSizeEv
__ZN6CyberKit15WebChromeClient13setWindowRectERKN7CyberCore9FloatRectE
__ZN6CyberKit7WebPage18sendSetWindowFrameERKN7CyberCore9FloatRectE
__ZN7CoreIPC13MessageSender4sendIN8Messages12WebPageProxy14SetWindowFrameEEEbRKT_y
__ZN6CyberKit15WebChromeClient4showEv
__ZN6CyberKit7WebPage4showEv
__ZN7CoreIPC13MessageSender4sendIN8Messages12WebPageProxy8ShowPageEEEbRKT_y
__ZN6CyberKit12WebPageProxy14setWindowFrameERKN7CyberCore9FloatRectE
__ZN6CyberKit14PageClientImpl20convertToDeviceSpaceERKN7CyberCore9FloatRectE
-[WKView(Internal) _convertToDeviceSpace:]
__ZN6CyberKit11WebUIClient14setWindowFrameEPNS_12WebPageProxyERKN7CyberCore9FloatRectE
__ZN6CyberKit12WebPageProxy8showPageEv
__ZN6CyberKit11WebUIClient8showPageEPNS_12WebPageProxyE
-[WKView keyDown:]
-[WKView _tryHandlePluginComplexTextInputKeyDown:]
__ZN6CyberKit22NativeWebKeyboardEventC1EP7NSEventP6NSView
__ZN6CyberKit22NativeWebKeyboardEventC2EP7NSEventP6NSView
__ZN6CyberKit15WebEventFactory22createWebKeyboardEventEP7NSEventP6NSView
_WKGetNSEventKeyChar
__ZN6CyberKit16WebKeyboardEventC1ENS_8WebEvent4TypeERKN3WTF6StringES6_S6_iiibbbNS1_9ModifiersEd
__ZN6CyberKit16WebKeyboardEventC2ENS_8WebEvent4TypeERKN3WTF6StringES6_S6_iiibbbNS1_9ModifiersEd
__ZN6CyberKit12WebPageProxy19handleKeyboardEventERKNS_22NativeWebKeyboardEventE
__ZN3WTF5DequeIN6CyberKit22NativeWebKeyboardEventELm0EE6appendIS2_EEvRKT_
__ZN3WTF5DequeIN6CyberKit22NativeWebKeyboardEventELm0EE22expandCapacityIfNeededEv
__ZN3WTF5DequeIN6CyberKit22NativeWebKeyboardEventELm0EE14expandCapacityEv
__ZN3WTF16VectorBufferBaseIN6CyberKit22NativeWebKeyboardEventEE14allocateBufferEm
__ZN3WTF11VectorMoverILb0EN6CyberKit22NativeWebKeyboardEventEE4moveEPKS2_S5_PS2_
__ZN6CyberKit17ChildProcessProxy4sendIN8Messages7WebPage8KeyEventEEEbRKT_yj
__ZNK6CyberKit16WebKeyboardEvent6encodeERN7CoreIPC15ArgumentEncoderE
__ZN7CoreIPC13handleMessageIN8Messages7WebPage8KeyEventEN6CyberKit7WebPageEMS5_FvRKNS4_16WebKeyboardEventEEEEvRNS_14MessageDecoderEPT0_T1_
__ZN6CyberKit16WebKeyboardEvent6decodeERN7CoreIPC15ArgumentDecoderERS0_
__ZN6CyberKit7WebPage8keyEventERKNS_16WebKeyboardEventE
__ZN6CyberKitL14handleKeyEventERKNS_16WebKeyboardEventEPN7CyberCore4PageE
__ZN6CyberKit8platformERKNS_16WebKeyboardEventE
__ZN6CyberKit28CyberKit2PlatformKeyboardEventC2ERKNS_16WebKeyboardEventE
__ZN6CyberKit15WebEditorClient24handleInputMethodKeydownEPN7CyberCore13KeyboardEventE
__ZN6CyberKit7WebPage26handleEditingKeyboardEventEPN7CyberCore13KeyboardEventEb
__ZN7CoreIPC10Connection8sendSyncIN8Messages12WebPageProxy23InterpretQueuedKeyEventEEEbRKT_RKNS5_5ReplyEydj
__ZN7CoreIPC13handleMessageIN8Messages12WebPageProxy23InterpretQueuedKeyEventEN6CyberKit12WebPageProxyEMS5_FvRKNS4_11EditorStateERbRN3WTF6VectorIN7CyberCore15KeypressCommandELm0ENSA_15CrashOnOverflowEEEEEEvRNS_14MessageDecoderERNS_14MessageEncoderEPT0_T1_
__ZN6CyberKit12WebPageProxy23interpretQueuedKeyEventERKNS_11EditorStateERbRN3WTF6VectorIN7CyberCore15KeypressCommandELm0ENS5_15CrashOnOverflowEEE
__ZN6CyberKit14PageClientImpl17interpretKeyEventERKNS_22NativeWebKeyboardEventERN3WTF6VectorIN7CyberCore15KeypressCommandELm0ENS4_15CrashOnOverflowEEE
-[WKView(Internal) _interpretKeyEvent:savingCommandsTo:]
-[WKView hasMarkedText]
-[WKView insertText:replacementRange:]
__ZN3WTF6VectorIN7CyberCore15KeypressCommandELm0ENS_15CrashOnOverflowEE14appendSlowCaseIS2_EEvRKT_
__ZN3WTF6VectorIN7CyberCore15KeypressCommandELm0ENS_15CrashOnOverflowEE14expandCapacityEmPKS2_
__ZN3WTF6VectorIN7CyberCore15KeypressCommandELm0ENS_15CrashOnOverflowEE15reserveCapacityEm
__ZN3WTF16VectorBufferBaseIN7CyberCore15KeypressCommandEE14allocateBufferEm
__ZN3WTF11VectorMoverILb0EN7CyberCore15KeypressCommandEE4moveEPKS2_S5_PS2_
__ZN3WTF6VectorIN7CyberCore24TextAlternativeWithRangeELm0ENS_15CrashOnOverflowEED2Ev
__ZN7CoreIPC19VectorArgumentCoderILb0EN7CyberCore15KeypressCommandEE6encodeERNS_15ArgumentEncoderERKN3WTF6VectorIS2_Lm0ENS6_15CrashOnOverflowEEE
__ZN7CoreIPC13ArgumentCoderIN7CyberCore15KeypressCommandEE6encodeERNS_15ArgumentEncoderERKS2_
__ZN3WTF6VectorIN7CyberCore15KeypressCommandELm0ENS_15CrashOnOverflowEED2Ev
__ZN3WTF6VectorIN7CyberCore15KeypressCommandELm0ENS_15CrashOnOverflowEE6shrinkEm
__ZN7CoreIPC10Arguments2IRbRN3WTF6VectorIN7CyberCore15KeypressCommandELm0ENS2_15CrashOnOverflowEEEE6decodeERNS_15ArgumentDecoderERS9_
__ZN7CoreIPC19VectorArgumentCoderILb0EN7CyberCore15KeypressCommandEE6decodeERNS_15ArgumentDecoderERN3WTF6VectorIS2_Lm0ENS6_15CrashOnOverflowEEE
__ZN7CoreIPC13ArgumentCoderIN7CyberCore15KeypressCommandEE6decodeERNS_15ArgumentDecoderERS2_
__ZN3WTF6VectorIN7CyberCore15KeypressCommandELm0ENS_15CrashOnOverflowEE14shrinkCapacityEm
__ZN6CyberKit15WebEditorClient27doTextFieldCommandFromEventEPN7CyberCore7ElementEPNS1_13KeyboardEventE
__ZN6CyberKit15WebEditorClient19handleKeyboardEventEPN7CyberCore13KeyboardEventE
__ZN6CyberKitL26commandNameForSelectorNameERKN3WTF6StringE
__ZNK3WTF6StringixEj
__ZN6CyberKit7WebPage31executeKeypressCommandsInternalERKN3WTF6VectorIN7CyberCore15KeypressCommandELm0ENS1_15CrashOnOverflowEEEPNS3_13KeyboardEventE
__ZN6CyberKit15WebEditorClient16shouldInsertTextERKN3WTF6StringEPN7CyberCore5RangeENS5_18EditorInsertActionE
__ZN6CyberKit30InjectedBundlePageEditorClient16shouldInsertTextEPNS_7WebPageEPN3WTF10StringImplEPN7CyberCore5RangeENS6_18EditorInsertActionE
__ZN6CyberKit15WebEditorClient25shouldChangeSelectedRangeEPN7CyberCore5RangeES3_NS1_9EAffinityEb
__ZN6CyberKit30InjectedBundlePageEditorClient25shouldChangeSelectedRangeEPNS_7WebPageEPN7CyberCore5RangeES5_NS3_9EAffinityEb
__ZN6CyberKit15WebEditorClient24textFieldDidBeginEditingEPN7CyberCore7ElementE
__ZN6CyberKit28InjectedBundlePageFormClient24textFieldDidBeginEditingEPNS_7WebPageEPN7CyberCore16HTMLInputElementEPNS_8WebFrameE
__ZN6CyberKit15WebEditorClient24textDidChangeInTextFieldEPN7CyberCore7ElementE
__ZN6CyberKit28InjectedBundlePageFormClient24textDidChangeInTextFieldEPNS_7WebPageEPN7CyberCore16HTMLInputElementEPNS_8WebFrameE
__ZN6CyberKit15WebEditorClient16registerUndoStepEN3WTF10PassRefPtrIN7CyberCore8UndoStepEEE
__ZN6CyberKit11WebUndoStep6createEN3WTF10PassRefPtrIN7CyberCore8UndoStepEEE
__ZN6CyberKit7WebPage14addWebUndoStepEyPNS_11WebUndoStepE
__ZN3WTF7HashMapIyNS_6RefPtrIN6CyberKit11WebUndoStepEEENS_7IntHashIyEENS_10HashTraitsIyEENS7_IS4_EEE3setERKyNS_10PassRefPtrIS3_EE
__ZN7CoreIPC13MessageSender4sendIN8Messages12WebPageProxy26RegisterEditCommandForUndoEEEbRKT_y
__ZN3WTF10RefCountedIN6CyberKit11WebUndoStepEE5derefEv
__ZN6CyberKit15WebEditorClient24respondToChangedContentsEv
__ZN6CyberKit30InjectedBundlePageEditorClient9didChangeEPNS_7WebPageEPN3WTF10StringImplE
__ZN6CyberKit15WebEditorClient36isAutomaticSpellingCorrectionEnabledEv
__ZN7CoreIPC13handleMessageIN8Messages12WebPageProxy26RegisterEditCommandForUndoEN6CyberKit12WebPageProxyEMS5_FvyjEEEvRNS_14MessageDecoderEPT0_T1_
__ZN6CyberKit12WebPageProxy26registerEditCommandForUndoEyj
__ZN6CyberKit19WebEditCommandProxyC1EyN7CyberCore10EditActionEPNS_12WebPageProxyE
__ZN6CyberKit12WebPageProxy14addEditCommandEPNS_19WebEditCommandProxyE
__ZN3WTF9HashTableIPN6CyberKit19WebEditCommandProxyES3_NS_17IdentityExtractorENS_7PtrHashIS3_EENS_10HashTraitsIS3_EES8_E3addINS_22IdentityHashTranslatorIS6_EES3_S3_EENS_18HashTableAddResultINS_17HashTableIteratorIS3_S3_S4_S6_S8_S8_EEEERKT0_RKT1_
__ZN3WTF9HashTableIPN6CyberKit19WebEditCommandProxyES3_NS_17IdentityExtractorENS_7PtrHashIS3_EENS_10HashTraitsIS3_EES8_E6expandEv
__ZN3WTF9HashTableIPN6CyberKit19WebEditCommandProxyES3_NS_17IdentityExtractorENS_7PtrHashIS3_EENS_10HashTraitsIS3_EES8_E6rehashEi
__ZN6CyberKit12WebPageProxy19registerEditCommandEN3WTF10PassRefPtrINS_19WebEditCommandProxyEEENS0_10UndoOrRedoE
__ZN6CyberKit14PageClientImpl19registerEditCommandEN3WTF10PassRefPtrINS_19WebEditCommandProxyEEENS_12WebPageProxy10UndoOrRedoE
-[WKEditCommandObjC .cxx_construct]
-[WKEditCommandObjC initWithWebEditCommandProxy:]
__ZN3WTF6RefPtrIN6CyberKit19WebEditCommandProxyEEaSERKNS_10PassRefPtrIS2_EE
__ZN3WTF9RetainPtrIP17WKEditCommandObjCEC2ENS_10AdoptNSTagES2_
__ZN3WTF9RetainPtrI17WKEditCommandObjCEC2IPS1_EERKNS0_IT_EE
__ZN6CyberKit19WebEditCommandProxy17nameForEditActionEN7CyberCore10EditActionE
__ZN3WTF5DequeIN6CyberKit22NativeWebKeyboardEventELm0EE11removeFirstEv
__ZN6CyberKit14PageClientImpl16doneWithKeyEventERKNS_22NativeWebKeyboardEventEb
-[WKView(Internal) _doneWithKeyEvent:eventWasHandled:]
-[WKView(Internal) _tryPostProcessPluginComplexTextInputKeyDown:]
_WKBundleNodeHandleSetHTMLInputElementAutofilled
__ZN6CyberKit24InjectedBundleNodeHandle29setHTMLInputElementAutofilledEb
-[WKView keyUp:]
__ZN6CyberKit7WebPage33performDefaultBehaviorForKeyEventERKNS_16WebKeyboardEventE
__ZNK6CyberKit11WebUIClient30implementsDidNotHandleKeyEventEv
-[WKView doCommandBySelector:]
__ZN6CyberKit15WebEditorClient24smartInsertDeleteEnabledEv
__ZN6CyberKit7WebPage26isSmartInsertDeleteEnabledEv
__ZN6CyberKit15WebEditorClient17shouldDeleteRangeEPN7CyberCore5RangeE
__ZN6CyberKit30InjectedBundlePageEditorClient17shouldDeleteRangeEPNS_7WebPageEPN7CyberCore5RangeE
__ZN6CyberKit15WebEditorClient28textWillBeDeletedInTextFieldEPN7CyberCore7ElementE
__ZN6CyberKit28InjectedBundlePageFormClient30shouldPerformActionInTextFieldEPNS_7WebPageEPN7CyberCore16HTMLInputElementEjPNS_8WebFrameE
-[WKView acceptsFirstMouse:]
__ZN6CyberKit12WebPageProxy17acceptsFirstMouseEiRKNS_13WebMouseEventE
__ZN7CoreIPC10Connection8sendSyncIN8Messages7WebPage17AcceptsFirstMouseEEEbRKT_RKNS5_5ReplyEydj
__ZN6CyberKit10WebProcess21didReceiveSyncMessageEPN7CoreIPC10ConnectionERNS1_14MessageDecoderERN3WTF6OwnPtrINS1_14MessageEncoderEEE
__ZThn16_N6CyberKit7WebPage21didReceiveSyncMessageEPN7CoreIPC10ConnectionERNS1_14MessageDecoderERN3WTF6OwnPtrINS1_14MessageEncoderEEE
__ZN6CyberKit7WebPage28didReceiveSyncWebPageMessageEPN7CoreIPC10ConnectionERNS1_14MessageDecoderERN3WTF6OwnPtrINS1_14MessageEncoderEEE
__ZN7CoreIPC13handleMessageIN8Messages7WebPage17AcceptsFirstMouseEN6CyberKit7WebPageEMS5_FviRKNS4_13WebMouseEventERbEEEvRNS_14MessageDecoderERNS_14MessageEncoderEPT0_T1_
__ZN7CoreIPC10Arguments2IiN6CyberKit13WebMouseEventEE6decodeERNS_15ArgumentDecoderERS3_
__ZN6CyberKit7WebPage17acceptsFirstMouseEiRKNS_13WebMouseEventERb
___29-[WKView viewDidMoveToWindow]_block_invoke
-[WKView _postFakeMouseMovedEventForFlagsChangedEvent:]
-[WKView flagsChanged:]
__ZN6CyberKit15WebEditorClient35isAutomaticQuoteSubstitutionEnabledEv
__ZN6CyberKit15WebEditorClient31isAutomaticLinkDetectionEnabledEv
__ZN6CyberKit15WebEditorClient34isAutomaticDashSubstitutionEnabledEv
__ZN6CyberKit15WebEditorClient33isAutomaticTextReplacementEnabledEv
__ZN7CoreIPC13MessageSender4sendIN8Messages12WebPageProxy10SetToolTipEEEbRKT_y
__ZN7CoreIPC13handleMessageIN8Messages12WebPageProxy10SetToolTipEN6CyberKit12WebPageProxyEMS5_FvRKN3WTF6StringEEEEvRNS_14MessageDecoderEPT0_T1_
__ZN6CyberKit12WebPageProxy10setToolTipERKN3WTF6StringE
__ZN6CyberKit14PageClientImpl14toolTipChangedERKN3WTF6StringES4_
-[WKView(Internal) _toolTipChangedFrom:to:]
-[WKView(Internal) _sendToolTipMouseExited]
-[WKView(Internal) addTrackingRect:owner:userData:assumeInside:]
-[WKView(Internal) _sendToolTipMouseEntered]
__ZN6CyberKit20WebFrameLoaderClient52dispatchWillDestroyGlobalObjectForDOMWindowExtensionEPN7CyberCore18DOMWindowExtensionE
__ZN6CyberKit30InjectedBundlePageLoaderClient44willDestroyGlobalObjectForDOMWindowExtensionEPNS_7WebPageEPN7CyberCore18DOMWindowExtensionE
__ZN6CyberKit32InjectedBundleDOMWindowExtension3getEPN7CyberCore18DOMWindowExtensionE
_WKBundleDOMWindowExtensionGetFrame
__ZNK6CyberKit32InjectedBundleDOMWindowExtension5frameEv
_WKBundleDOMWindowExtensionGetScriptWorld
__ZNK6CyberKit32InjectedBundleDOMWindowExtension5worldEv
__ZN6CyberKit32InjectedBundleDOMWindowExtensionD0Ev
__ZN6CyberKit32InjectedBundleDOMWindowExtensionD2Ev
__ZN3WTF7HashMapIPN7CyberCore18DOMWindowExtensionEPN6CyberKit32InjectedBundleDOMWindowExtensionENS_7PtrHashIS3_EENS_10HashTraitsIS3_EENS9_IS6_EEE6removeERKS3_
__ZThn8_N6CyberKit15WebEditorClient20checkTextOfParagraphEPKtijRN3WTF6VectorIN7CyberCore18TextCheckingResultELm0ENS3_15CrashOnOverflowEEE
__ZN6CyberKit15WebEditorClient20checkTextOfParagraphEPKtijRN3WTF6VectorIN7CyberCore18TextCheckingResultELm0ENS3_15CrashOnOverflowEEE
__ZN7CoreIPC10Connection8sendSyncIN8Messages12WebPageProxy20CheckTextOfParagraphEEEbRKT_RKNS5_5ReplyEydj
__ZN7CoreIPC13handleMessageIN8Messages12WebPageProxy20CheckTextOfParagraphEN6CyberKit12WebPageProxyEMS5_FvRKN3WTF6StringEyRNS6_6VectorIN7CyberCore18TextCheckingResultELm0ENS6_15CrashOnOverflowEEEEEEvRNS_14MessageDecoderERNS_14MessageEncoderEPT0_T1_
__ZN6CyberKit12WebPageProxy20checkTextOfParagraphERKN3WTF6StringEyRNS1_6VectorIN7CyberCore18TextCheckingResultELm0ENS1_15CrashOnOverflowEEE
__ZN6CyberKit11TextChecker22uniqueSpellDocumentTagEPNS_12WebPageProxyE
__ZN6CyberKit11TextChecker20checkTextOfParagraphExPKtiy
__ZN3WTF6VectorIN7CyberCore18TextCheckingResultELm0ENS_15CrashOnOverflowEED2Ev
__ZN7CoreIPC19VectorArgumentCoderILb0EN7CyberCore18TextCheckingResultEE6encodeERNS_15ArgumentEncoderERKN3WTF6VectorIS2_Lm0ENS6_15CrashOnOverflowEEE
__ZN7CoreIPC19VectorArgumentCoderILb0EN7CyberCore18TextCheckingResultEE6decodeERNS_15ArgumentDecoderERN3WTF6VectorIS2_Lm0ENS6_15CrashOnOverflowEEE
__ZN3WTF6VectorIN7CyberCore18TextCheckingResultELm0ENS_15CrashOnOverflowEE14shrinkCapacityEm
-[WKView beginGestureWithEvent:]
__ZN6CyberKit15WebEventFactory21createWebGestureEventEP7NSEventP6NSView
__ZN6CyberKit15WebGestureEventC1ENS_8WebEvent4TypeERKN7CyberCore8IntPointES6_NS1_9ModifiersEd
__ZN6CyberKit12WebPageProxy18handleGestureEventERKNS_15WebGestureEventE
__ZN3WTF5DequeIN6CyberKit15WebGestureEventELm0EE22expandCapacityIfNeededEv
__ZN3WTF5DequeIN6CyberKit15WebGestureEventELm0EE14expandCapacityEv
__ZN3WTF16VectorBufferBaseIN6CyberKit15WebGestureEventEE14allocateBufferEm
__ZN6CyberKit17ChildProcessProxy4sendIN8Messages15EventDispatcher12GestureEventEEEbRKT_yj
__ZNK6CyberKit15WebGestureEvent6encodeERN7CoreIPC15ArgumentEncoderE
___copy_helper_block_266
__ZN6CyberKit15EventDispatcher17didReceiveMessageEPN7CoreIPC10ConnectionERNS1_14MessageDecoderE
__ZN7CoreIPC13handleMessageIN8Messages15EventDispatcher12GestureEventEN6CyberKit15EventDispatcherEMS5_FvyRKNS4_15WebGestureEventEEEEvRNS_14MessageDecoderEPT0_T1_
__ZN7CoreIPC10Arguments2IyN6CyberKit15WebGestureEventEE6decodeERNS_15ArgumentDecoderERS3_
__ZN6CyberKit15WebGestureEvent6decodeERN7CoreIPC15ArgumentDecoderERS0_
__ZN6CyberKit15EventDispatcher12gestureEventEyRKNS_15WebGestureEventE
__ZN3WTF17BoundFunctionImplINS_15FunctionWrapperIMN6CyberKit15EventDispatcherEFvyRKNS2_15WebGestureEventEEEEFvPS3_yS4_EEclEv
__ZN6CyberKit15EventDispatcher20dispatchGestureEventEyRKNS_15WebGestureEventE
__ZN6CyberKit7WebPage12gestureEventERKNS_15WebGestureEventE
__ZN6CyberKit8platformERKNS_15WebGestureEventE
__ZN6CyberKit27CyberKit2PlatformGestureEventC2ERKNS_15WebGestureEventE
__ZN3WTF17BoundFunctionImplINS_15FunctionWrapperIMN6CyberKit15EventDispatcherEFvyRKNS2_15WebGestureEventEEEEFvPS3_yS4_EED0Ev
-[WKView scrollWheel:]
__ZN6CyberKit19NativeWebWheelEventC1EP7NSEventP6NSView
__ZN6CyberKit15WebEventFactory19createWebWheelEventEP7NSEventP6NSView
_WKGetWheelEventDeltas
__ZN6CyberKit13WebWheelEventC1ENS_8WebEvent4TypeERKN7CyberCore8IntPointES6_RKNS3_9FloatSizeES9_NS0_11GranularityEbNS0_5PhaseESB_bjS9_NS1_9ModifiersEd
__ZN6CyberKit12WebPageProxy16handleWheelEventERKNS_19NativeWebWheelEventE
__ZN3WTF10PassOwnPtrINS_6VectorIN6CyberKit19NativeWebWheelEventELm0ENS_15CrashOnOverflowEEEED2Ev
__ZN3WTF6VectorIN6CyberKit19NativeWebWheelEventELm0ENS_15CrashOnOverflowEE14appendSlowCaseIS2_EEvRKT_
__ZN3WTF6VectorIN6CyberKit19NativeWebWheelEventELm0ENS_15CrashOnOverflowEE14expandCapacityEmPKS2_
__ZN3WTF6VectorIN6CyberKit19NativeWebWheelEventELm0ENS_15CrashOnOverflowEE15reserveCapacityEm
__ZN3WTF16VectorBufferBaseIN6CyberKit19NativeWebWheelEventEE14allocateBufferEm
__ZN3WTF11VectorMoverILb0EN6CyberKit19NativeWebWheelEventEE4moveEPKS2_S5_PS2_
__ZN3WTF5DequeINS_6OwnPtrINS_6VectorIN6CyberKit19NativeWebWheelEventELm0ENS_15CrashOnOverflowEEEEELm0EE22expandCapacityIfNeededEv
__ZN3WTF5DequeINS_6OwnPtrINS_6VectorIN6CyberKit19NativeWebWheelEventELm0ENS_15CrashOnOverflowEEEEELm0EE14expandCapacityEv
__ZN3WTF16VectorBufferBaseINS_6OwnPtrINS_6VectorIN6CyberKit19NativeWebWheelEventELm0ENS_15CrashOnOverflowEEEEEE14allocateBufferEm
__ZN6CyberKit12WebPageProxy14sendWheelEventERKNS_13WebWheelEventE
__ZN6CyberKit17ChildProcessProxy4sendIN8Messages15EventDispatcher10WheelEventEEEbRKT_yj
__ZNK7CoreIPC10Arguments3IyRKN6CyberKit13WebWheelEventEbE6encodeERNS_15ArgumentEncoderE
__ZNK6CyberKit13WebWheelEvent6encodeERN7CoreIPC15ArgumentEncoderE
__ZN7CoreIPC13ArgumentCoderIN7CyberCore9FloatSizeEE6encodeERNS_15ArgumentEncoderERKS2_
__ZN3WTF6OwnPtrINS_6VectorIN6CyberKit19NativeWebWheelEventELm0ENS_15CrashOnOverflowEEEED2Ev
__ZN7CoreIPC13handleMessageIN8Messages15EventDispatcher10WheelEventEN6CyberKit15EventDispatcherEMS5_FvyRKNS4_13WebWheelEventEbbEEEvRNS_14MessageDecoderEPT0_T1_
__ZN7CoreIPC10Arguments4IyN6CyberKit13WebWheelEventEbbE6decodeERNS_15ArgumentDecoderERS3_
__ZN7CoreIPC10Arguments3IyN6CyberKit13WebWheelEventEbE6decodeERNS_15ArgumentDecoderERS3_
__ZN7CoreIPC10Arguments2IyN6CyberKit13WebWheelEventEE6decodeERNS_15ArgumentDecoderERS3_
__ZN6CyberKit14PageClientImpl20doneWithGestureEventERKNS_15WebGestureEventEb
__ZN6CyberKit13WebWheelEvent6decodeERN7CoreIPC15ArgumentDecoderERS0_
__ZN7CoreIPC13ArgumentCoderIN7CyberCore9FloatSizeEE6decodeERNS_15ArgumentDecoderERS2_
__ZN7CoreIPC18callMemberFunctionIN6CyberKit15EventDispatcherEMS2_FvyRKNS1_13WebWheelEventEbbEyS3_bbEEvRKNS_10Arguments4IT1_T2_T3_T4_EEPT_T0_
__ZN6CyberKit15EventDispatcher10wheelEventEyRKNS_13WebWheelEventEbb
__ZN6CyberKit8platformERKNS_13WebWheelEventE
__ZN6CyberKit25CyberKit2PlatformWheelEventC2ERKNS_13WebWheelEventE
__ZN7CoreIPC10Connection4sendIN8Messages12WebPageProxy15DidReceiveEventEEEbRKT_yj
__ZN3WTF17BoundFunctionImplINS_15FunctionWrapperIMN7CyberCore13ScrollingTreeEFvbbEEEFvPS3_bbEEclEv
_WKNSReboundDeltaForElasticDelta
__ZN3WTF5DequeINS_6OwnPtrINS_6VectorIN6CyberKit19NativeWebWheelEventELm0ENS_15CrashOnOverflowEEEEELm0EE9takeFirstEv
__ZN3WTF5DequeINS_6OwnPtrINS_6VectorIN6CyberKit19NativeWebWheelEventELm0ENS_15CrashOnOverflowEEEEELm0EE11removeFirstEv
__ZN3WTF17BoundFunctionImplINS_15FunctionWrapperIMN7CyberCore13ScrollingTreeEFvbbEEEFvPS3_bbEED0Ev
__ZN3WTF6VectorIN6CyberKit19NativeWebWheelEventELm0ENS_15CrashOnOverflowEED2Ev
__ZN3WTF6VectorIN6CyberKit19NativeWebWheelEventELm0ENS_15CrashOnOverflowEE6shrinkEm
___32-[WKView beginGestureWithEvent:]_block_invoke
-[WKView shortCircuitedEndGestureWithEvent:]
___destroy_helper_block_267
__ZN3WTF5DequeIN6CyberKit19NativeWebWheelEventELm0EE6appendIS2_EEvRKT_
__ZN3WTF5DequeIN6CyberKit19NativeWebWheelEventELm0EE22expandCapacityIfNeededEv
__ZN3WTF5DequeIN6CyberKit19NativeWebWheelEventELm0EE14expandCapacityEv
__ZN6CyberKit12WebPageProxy27processNextQueuedWheelEventEv
__ZN3WTF5DequeIN6CyberKit19NativeWebWheelEventELm0EE9takeFirstEv
__ZN3WTF5DequeIN6CyberKit19NativeWebWheelEventELm0EE11removeFirstEv
-[WKBrowsingContextGroup initWithIdentifier:]
-[WKBrowsingContextGroupData .cxx_construct]
-[WKBrowsingContextGroup setAllowsPlugIns:]
-[WKBrowsingContextGroup(Private) _pageGroupRef]
-[WKBrowsingContextGroup removeAllUserStyleSheets]
_WKPageGroupRemoveAllUserStyleSheets
__ZN6CyberKit12WebPageGroup24removeAllUserStyleSheetsEv
__ZN6CyberKit12WebPageGroup25sendToAllProcessesInGroupIN8Messages17WebPageGroupProxy24RemoveAllUserStyleSheetsEEEvRKT_y
-[WKBrowsingContextGroup addUserStyleSheet:baseURL:whitelistedURLPatterns:blacklistedURLPatterns:mainFrameOnly:]
__ZL13createWKArrayP7NSArray
_WKPageGroupAddUserStyleSheet
__ZN6CyberKit12WebPageGroup17addUserStyleSheetERKN3WTF6StringES4_PNS_14ImmutableArrayES6_N7CyberCore25UserContentInjectedFramesENS7_14UserStyleLevelE
__ZN7CyberCore14UserStyleSheetC2ERKN3WTF6StringERKNS_4KURLERKNS1_6VectorIS2_Lm0ENS1_15CrashOnOverflowEEESC_NS_25UserContentInjectedFramesENS_14UserStyleLevelE
__ZN3WTF6VectorIN7CyberCore14UserStyleSheetELm0ENS_15CrashOnOverflowEE14appendSlowCaseIS2_EEvRKT_
__ZN3WTF6VectorIN7CyberCore14UserStyleSheetELm0ENS_15CrashOnOverflowEE14expandCapacityEmPKS2_
__ZN3WTF6VectorIN7CyberCore14UserStyleSheetELm0ENS_15CrashOnOverflowEE15reserveCapacityEm
__ZN3WTF16VectorBufferBaseIN7CyberCore14UserStyleSheetEE14allocateBufferEm
__ZN3WTF11VectorMoverILb0EN7CyberCore14UserStyleSheetEE4moveEPKS2_S5_PS2_
__ZN6CyberKit12WebPageGroup25sendToAllProcessesInGroupIN8Messages17WebPageGroupProxy17AddUserStyleSheetEEEvRKT_y
-[WKBrowsingContextGroup removeAllUserScripts]
_WKPageGroupRemoveAllUserScripts
__ZN6CyberKit12WebPageGroup20removeAllUserScriptsEv
__ZN6CyberKit12WebPageGroup25sendToAllProcessesInGroupIN8Messages17WebPageGroupProxy20RemoveAllUserScriptsEEEvRKT_y
-[WKBrowsingContextGroup addUserScript:baseURL:whitelistedURLPatterns:blacklistedURLPatterns:injectionTime:mainFrameOnly:]
_WKPageGroupAddUserScript
__ZN6CyberKit12WebPageGroup13addUserScriptERKN3WTF6StringES4_PNS_14ImmutableArrayES6_N7CyberCore25UserContentInjectedFramesENS7_23UserScriptInjectionTimeE
__ZN7CyberCore10UserScriptC2ERKN3WTF6StringERKNS_4KURLERKNS1_6VectorIS2_Lm0ENS1_15CrashOnOverflowEEESC_NS_23UserScriptInjectionTimeENS_25UserContentInjectedFramesE
__ZN3WTF6VectorIN7CyberCore10UserScriptELm0ENS_15CrashOnOverflowEE14appendSlowCaseIS2_EEvRKT_
__ZN3WTF6VectorIN7CyberCore10UserScriptELm0ENS_15CrashOnOverflowEE14expandCapacityEmPKS2_
__ZN3WTF6VectorIN7CyberCore10UserScriptELm0ENS_15CrashOnOverflowEE15reserveCapacityEm
__ZN3WTF16VectorBufferBaseIN7CyberCore10UserScriptEE14allocateBufferEm
__ZN3WTF11VectorMoverILb0EN7CyberCore10UserScriptEE4moveEPKS2_S5_PS2_
__ZN6CyberKit12WebPageGroup25sendToAllProcessesInGroupIN8Messages17WebPageGroupProxy13AddUserScriptEEEvRKT_y
__ZN3WTF6VectorIN7CyberCore14UserStyleSheetELm0ENS_15CrashOnOverflowEE6shrinkEm
__ZN3WTF6VectorIN7CyberCore10UserScriptELm0ENS_15CrashOnOverflowEE6shrinkEm
-[WKProcessGroup initWithInjectedBundleURL:]
-[WKProcessGroupData .cxx_construct]
_WKContextSetConnectionClient
__ZN6CyberKit10WebContext26initializeConnectionClientEPK25WKContextConnectionClient
__ZN6CyberKit9APIClientI25WKContextConnectionClientLi0EE10initializeEPKS1_
-[WKProcessGroup setDelegate:]
-[WKView initWithFrame:processGroup:browsingContextGroup:]
-[WKProcessGroup(Private) _contextRef]
__ZL39getInjectedBundleInitializationUserDataPK15OpaqueWKContextPKv
-[WKProcessGroup delegate]
__ZN3WTF6RefPtrIN6CyberKit9APIObjectEEaSERKS3_
__ZN7CoreIPC13ArgumentCoderIN7CyberCore14UserStyleSheetEE6encodeERNS_15ArgumentEncoderERKS2_
__ZN7CoreIPC13ArgumentCoderIN7CyberCore10UserScriptEE6encodeERNS_15ArgumentEncoderERKS2_
-[WKView browsingContextController]
-[WKBrowsingContextController(Internal) _initWithPageRef:]
-[WKBrowsingContextControllerData .cxx_construct]
__ZN6CyberKit11WKRetainPtrIPK12OpaqueWKPageEaSES3_
__ZN3WTF9RetainPtrIP27WKBrowsingContextControllerEC2ENS_10AdoptNSTagES2_
__ZN3WTF9RetainPtrI27WKBrowsingContextControllerEaSIPS1_EERS2_ONS0_IT_EE
-[WKBrowsingContextController setLoadDelegate:]
_WKPageSetPageFindMatchesClient
__ZN6CyberKit12WebPageProxy27initializeFindMatchesClientEPK23WKPageFindMatchesClient
__ZN6CyberKit9APIClientI23WKPageFindMatchesClientLi0EE10initializeEPKS1_
_WKPageGetPageGroup
_WKPreferencesSetShouldRespectImageOrientation
__ZN6CyberKit14WebPreferences32setShouldRespectImageOrientationERKb
_WKPreferencesSetSuppressesIncrementalRendering
__ZN6CyberKit14WebPreferences33setSuppressesIncrementalRenderingERKb
_WKPreferencesSetIncrementalRenderingSuppressionTimeout
__ZN6CyberKit14WebPreferences41setIncrementalRenderingSuppressionTimeoutERKd
__ZN6CyberKit19WebPreferencesStore20setDoubleValueForKeyERKN3WTF6StringEd
__ZN6CyberKit14WebPreferences31platformUpdateDoubleValueForKeyERKN3WTF6StringEd
_WKPreferencesSetShowsURLsInToolTipsEnabled
__ZN6CyberKit14WebPreferences29setShowsURLsInToolTipsEnabledERKb
_WKPreferencesSetJavaScriptMarkupEnabled
__ZN6CyberKit14WebPreferences26setJavaScriptMarkupEnabledERKb
_WKPreferencesSetTiledScrollingIndicatorVisible
__ZN6CyberKit14WebPreferences33setTiledScrollingIndicatorVisibleERKb
-[WKView intrinsicContentSize]
-[WKView accessibilityIsIgnored]
-[WKView(Private) minimumSizeForAutoLayout]
-[WKView(Private) setMinimumSizeForAutoLayout:]
__ZN6CyberKit12WebPageProxy20setMinimumLayoutSizeERKN7CyberCore7IntSizeE
__ZN6CyberKit17ChildProcessProxy4sendIN8Messages7WebPage20SetMinimumLayoutSizeEEEbRKT_yj
__ZN6CyberKit34TiledCoreAnimationDrawingAreaProxy26minimumLayoutSizeDidChangeEv
__ZN6CyberKit12WebPageProxy24setMainFrameIsScrollableEb
__ZN6CyberKit17ChildProcessProxy4sendIN8Messages7WebPage24SetMainFrameIsScrollableEEEbRKT_yj
-[WKView(Private) setShouldClipToVisibleRect:]
-[WKView _updateViewExposedRect]
__ZN6CyberKit12WebPageProxy22viewExposedRectChangedERKN7CyberCore9FloatRectEb
-[WKView prepareContentInRect:]
-[WKBrowsingContextController loadData:MIMEType:textEncodingName:baseURL:userData:]
__ZN6CyberKit7WebData20createWithoutCopyingEPKhmPFvPhPKvES5_
__ZN6CyberKit15ObjCObjectGraph6createEP11objc_object
__ZN3WTF9RetainPtrIP11objc_objectEC2ES2_
-[WKBrowsingContextController _pageRef]
_WKPageLoadDataWithUserData
__ZN6CyberKit12WebPageProxy8loadDataEPNS_7WebDataERKN3WTF6StringES6_S6_PNS_9APIObjectE
__ZN6CyberKit17ChildProcessProxy4sendIN8Messages7WebPage8LoadDataEEEbRKT_yj
__ZNK7CoreIPC10Arguments4IRKNS_13DataReferenceERKN3WTF6StringES7_S7_E6encodeERNS_15ArgumentEncoderE
__ZNK6CyberKit14TypedAPIObjectILNS_9APIObject4TypeE86EE4typeEv
__ZNK6CyberKit36WebContextObjCObjectGraphEncoderImpl6encodeERN7CoreIPC15ArgumentEncoderE
__ZNK6CyberKit22ObjCObjectGraphEncoderINS_36WebContextObjCObjectGraphEncoderImplEE10baseEncodeERN7CoreIPC15ArgumentEncoderERNS_12CyberKitNSTypeE
__ZN6CyberKitL14typeFromObjectEP11objc_object
__ZN7CoreIPC6encodeERNS_15ArgumentEncoderEP6NSData
__ZN6CyberKit15ObjCObjectGraphD0Ev
__ZL13releaseNSDataPhPKv
__ZN7CyberCore5TimerIN6CyberKit12WebPageProxyEE5firedEv
__ZN6CyberKit12WebPageProxy28exposedRectChangedTimerFiredEPN7CyberCore5TimerIS0_EE
__ZN6CyberKit17ChildProcessProxy4sendIN8Messages7WebPage22ViewExposedRectChangedEEEbRKT_yj
__ZN6CyberKit20WebFrameLoaderClient27dispatchWillSendSubmitEventEN3WTF10PassRefPtrIN7CyberCore9FormStateEEE
__ZN6CyberKit28InjectedBundlePageFormClient19willSendSubmitEventEPNS_7WebPageEPN7CyberCore15HTMLFormElementEPNS_8WebFrameES7_RKN3WTF6VectorINSt3__14pairINS8_6StringESC_EELm0ENS8_15CrashOnOverflowEEE
_WKNSElasticDeltaForReboundDelta
__ZN3WTF6VectorINSt3__14pairINS_6StringES3_EELm0ENS_15CrashOnOverflowEE6shrinkEm
__ZN7CoreIPC13ArgumentCoderINSt3__14pairIN3WTF6StringES4_EEE6decodeERNS_15ArgumentDecoderERS5_
__ZN3WTF6VectorINSt3__14pairINS_6StringES3_EELm0ENS_15CrashOnOverflowEE14appendSlowCaseIS4_EEvRKT_
__ZN3WTF6VectorINSt3__14pairINS_6StringES3_EELm0ENS_15CrashOnOverflowEE14expandCapacityEmPKS4_
__ZN3WTF6VectorINSt3__14pairINS_6StringES3_EELm0ENS_15CrashOnOverflowEE15reserveCapacityEm
__ZN3WTF16VectorBufferBaseINSt3__14pairINS_6StringES3_EEE14allocateBufferEm
__ZN3WTF16VectorBufferBaseINSt3__14pairINS_6StringES3_EEE16reallocateBufferEm
_WKNSElasticDeltaForTimeDelta
__ZL19didCreateConnectionPK15OpaqueWKContextPK18OpaqueWKConnectionPKv
-[WKConnection(Internal) _initWithConnectionRef:]
-[WKConnectionData .cxx_construct]
__ZN6CyberKit11WKRetainPtrIPK18OpaqueWKConnectionEaSES3_
_WKConnectionSetConnectionClient
__ZN6CyberKit13WebConnection26initializeConnectionClientEPK18WKConnectionClient
__ZN6CyberKit9APIClientI18WKConnectionClientLi0EE10initializeEPKS1_
__ZN3WTF9RetainPtrIP12WKConnectionEC2ENS_10AdoptNSTagES2_
__ZN3WTF9RetainPtrI12WKConnectionEC2IPS1_EERKNS0_IT_EE
-[WKConnection setDelegate:]
-[WKView mouseDragged:]
-[WKView mouseDraggedInternal:]
__ZN6CyberKit13WebDragClient28dragSourceActionMaskForPointERKN7CyberCore8IntPointE
-[WKWebProcessPlugInController .cxx_construct]
-[WKWebProcessPlugInController(Internal) _initWithPrincipalClassInstance:bundleRef:]
__ZN6CyberKit11WKRetainPtrIPK14OpaqueWKBundleEaSES3_
_WKBundleGetApplicationConnection
__ZNK6CyberKit14InjectedBundle24webConnectionToUIProcessEv
__ZN3WTF9RetainPtrIP12WKConnectionEaSEOS3_
+[WKWebProcessPlugInController(Internal) _shared]
-[WKWebProcessPlugInController connection]
__ZN7CoreIPC13ArgumentCoderIN7CyberCore14UserStyleSheetEE6decodeERNS_15ArgumentDecoderERS2_
__ZN7CoreIPC13ArgumentCoderIN7CyberCore10UserScriptEE6decodeERNS_15ArgumentDecoderERS2_
__ZL13didCreatePagePK14OpaqueWKBundlePK18OpaqueWKBundlePagePKv
-[WKWebProcessPlugInBrowserContextController .cxx_construct]
-[WKWebProcessPlugInBrowserContextController(Internal) _initWithBundlePageRef:]
__ZN6CyberKit11WKRetainPtrIPK18OpaqueWKBundlePageEaSES3_
__ZN3WTF9RetainPtrIP42WKWebProcessPlugInBrowserContextControllerEC2ES2_
__ZN3WTF7HashMapIPK18OpaqueWKBundlePageNS_9RetainPtrIP42WKWebProcessPlugInBrowserContextControllerEENS_7PtrHashIS3_EENS_10HashTraitsIS3_EENSA_IS7_EEE3setERKS3_RKS7_
__ZN3WTF9RetainPtrIP42WKWebProcessPlugInBrowserContextControllerEaSERKS3_
-[WKWebProcessPlugInBrowserContextController(Private) _bundlePageRef]
_WKBundlePageSetEditorClient
__ZN6CyberKit7WebPage36initializeInjectedBundleEditorClientEP24WKBundlePageEditorClient
__ZN6CyberKit9APIClientI24WKBundlePageEditorClientLi1EE10initializeEPKS1_
__ZN6CyberKit7WebPage24setMainFrameIsScrollableEb
__ZN6CyberKit11DrawingArea29mainFrameScrollabilityChangedEb
__ZN7CoreIPC21handleMessageVariadicIN8Messages7WebPage8LoadDataEN6CyberKit7WebPageEMS5_FvRKNS_13DataReferenceERKN3WTF6StringESC_SC_RNS_14MessageDecoderEEEEvSE_PT0_T1_
__ZN7CoreIPC10Arguments4INS_13DataReferenceEN3WTF6StringES3_S3_E6decodeERNS_15ArgumentDecoderERS4_
__ZN7CoreIPC10Arguments3INS_13DataReferenceEN3WTF6StringES3_E6decodeERNS_15ArgumentDecoderERS4_
__ZN6CyberKit7WebPage8loadDataERKN7CoreIPC13DataReferenceERKN3WTF6StringES8_S8_RNS1_14MessageDecoderE
__ZN6CyberKit7WebPage12loadDataImplEN3WTF10PassRefPtrIN7CyberCore12SharedBufferEEERKNS1_6StringES8_RKNS3_4KURLESB_RN7CoreIPC14MessageDecoderE
__ZN6CyberKit36InjectedBundleObjCObjectGraphDecoderC1ERN3WTF6RefPtrINS_15ObjCObjectGraphEEEPNS_10WebProcessE
__ZN6CyberKit36InjectedBundleObjCObjectGraphDecoder6decodeERN7CoreIPC15ArgumentDecoderERS0_
__ZN6CyberKit40InjectedBundleObjCObjectGraphDecoderImpl6decodeERN7CoreIPC15ArgumentDecoderERS0_
__ZN6CyberKit22ObjCObjectGraphDecoderINS_40InjectedBundleObjCObjectGraphDecoderImplEE10baseDecodeERN7CoreIPC15ArgumentDecoderERS1_RNS_12CyberKitNSTypeE
__ZN7CoreIPC6decodeERNS_15ArgumentDecoderERN3WTF9RetainPtrI6NSDataEE
__ZN3WTF9RetainPtrI6NSDataEaSIPS1_EERS2_ONS0_IT_EE
__ZN3WTF9RetainPtrIP11objc_objectEaSI6NSDataEERS3_RKNS0_IT_EE
__ZN7CyberCore14SubstituteDataC2EN3WTF10PassRefPtrINS_12SharedBufferEEERKNS1_6StringES7_RKNS_4KURLESA_
__ZN6CyberKit30InjectedBundlePageLoaderClient19willLoadDataRequestEPNS_7WebPageERKN7CyberCore15ResourceRequestEPKNS3_12SharedBufferERKN3WTF6StringESD_RKNS3_4KURLEPNS_9APIObjectE
_WKObjCTypeWrapperGetObject
__ZN6CyberKitL19releaseSharedBufferEPhPKv
_WKURLCopyScheme
__ZNK6CyberKit6WebURL8protocolEv
__ZNK6CyberKit6WebURL19parseURLIfNecessaryEv
__ZL31didStartProvisionalLoadForFramePK12OpaqueWKPagePK13OpaqueWKFramePKvS6_
-[WKBrowsingContextController loadDelegate]
__ZN7CoreIPC13handleMessageIN8Messages7WebPage22ViewExposedRectChangedEN6CyberKit7WebPageEMS5_FvRKN7CyberCore9FloatRectEbEEEvRNS_14MessageDecoderEPT0_T1_
__ZN7CoreIPC10Arguments2IN7CyberCore9FloatRectEbE6decodeERNS_15ArgumentDecoderERS3_
__ZN6CyberKit7WebPage22viewExposedRectChangedERKN7CyberCore9FloatRectEb
__ZN6CyberKit29TiledCoreAnimationDrawingArea14setExposedRectERKN7CyberCore9FloatRectE
__ZN6CyberKit29TiledCoreAnimationDrawingArea21setClipsToExposedRectEb
__ZN6CyberKit20WebFrameLoaderClient27forcePageTransitionIfNeededEv
__ZN7CyberCore5TimerIN6CyberKit29TiledCoreAnimationDrawingAreaEE5firedEv
__ZN6CyberKit29TiledCoreAnimationDrawingArea36updateIntrinsicContentSizeTimerFiredEPN7CyberCore5TimerIS0_EE
__ZN7CoreIPC13MessageSender4sendIN8Messages16DrawingAreaProxy29IntrinsicContentSizeDidChangeEEEbRKT_y
__ZNK6CyberKit15WebChromeClient22layerTreeStateIsFrozenEv
__ZNK6CyberKit29TiledCoreAnimationDrawingArea22layerTreeStateIsFrozenEv
__ZN7CoreIPC13handleMessageIN8Messages16DrawingAreaProxy29IntrinsicContentSizeDidChangeEN6CyberKit16DrawingAreaProxyEMS5_FvRKN7CyberCore7IntSizeEEEEvRNS_14MessageDecoderEPT0_T1_
__ZN6CyberKit34TiledCoreAnimationDrawingAreaProxy29intrinsicContentSizeDidChangeERKN7CyberCore7IntSizeE
__ZN6CyberKit12WebPageProxy29intrinsicContentSizeDidChangeERKN7CyberCore7IntSizeE
__ZN6CyberKit14PageClientImpl29intrinsicContentSizeDidChangeERKN7CyberCore7IntSizeE
-[WKView(Internal) _setIntrinsicContentSize:]
__ZL21didCommitLoadForFramePK12OpaqueWKPagePK13OpaqueWKFramePKvS6_
_WKBundleFrameGetJavaScriptContext
__ZN6CyberKit8WebFrame9jsContextEv
__ZThn328_N6CyberKit21NetworkResourceLoader11didSendDataEPN7CyberCore14ResourceHandleEyy
__ZN7CoreIPC13MessageSender4sendIN8Messages17WebResourceLoader11DidSendDataEEEbRKT_y
__ZN7CoreIPC13handleMessageIN8Messages17WebResourceLoader11DidSendDataEN6CyberKit17WebResourceLoaderEMS5_FvyyEEEvRNS_14MessageDecoderEPT0_T1_
__ZN6CyberKit17WebResourceLoader11didSendDataEyy
-[WKConnection sendMessageWithName:body:]
_WKConnectionPostMessage
__ZN6CyberKit13WebConnection11postMessageERKN3WTF6StringEPNS_9APIObjectE
__ZNK6CyberKit24WebConnectionToUIProcess18hasValidConnectionEv
__ZN6CyberKit24WebConnectionToUIProcess17encodeMessageBodyERN7CoreIPC15ArgumentEncoderEPNS_9APIObjectE
__ZNK6CyberKit40InjectedBundleObjCObjectGraphEncoderImpl6encodeERN7CoreIPC15ArgumentEncoderE
__ZNK6CyberKit22ObjCObjectGraphEncoderINS_40InjectedBundleObjCObjectGraphEncoderImplEE10baseEncodeERN7CoreIPC15ArgumentEncoderERNS_12CyberKitNSTypeE
__ZN7CoreIPC6encodeERNS_15ArgumentEncoderEP8NSString
__ZThn24_N6CyberKit24WebConnectionToUIProcess23messageSenderConnectionEv
__ZThn16_N6CyberKit13WebConnection17didReceiveMessageEPN7CoreIPC10ConnectionERNS1_14MessageDecoderE
__ZN6CyberKit13WebConnection30didReceiveWebConnectionMessageEPN7CoreIPC10ConnectionERNS1_14MessageDecoderE
__ZN6CyberKit13WebConnection13handleMessageERN7CoreIPC14MessageDecoderE
__ZN6CyberKit25WebConnectionToWebProcess17decodeMessageBodyERN7CoreIPC15ArgumentDecoderERN3WTF6RefPtrINS_9APIObjectEEE
__ZN6CyberKit32WebContextObjCObjectGraphDecoderC1ERN3WTF6RefPtrINS_15ObjCObjectGraphEEEPNS_15WebProcessProxyE
__ZN6CyberKit32WebContextObjCObjectGraphDecoder6decodeERN7CoreIPC15ArgumentDecoderERS0_
__ZN6CyberKit36WebContextObjCObjectGraphDecoderImpl6decodeERN7CoreIPC15ArgumentDecoderERS0_
__ZN6CyberKit22ObjCObjectGraphDecoderINS_36WebContextObjCObjectGraphDecoderImplEE10baseDecodeERN7CoreIPC15ArgumentDecoderERS1_RNS_12CyberKitNSTypeE
__ZN3WTF9RetainPtrIP19NSMutableDictionaryEC2ENS_10AdoptNSTagES2_
__ZN3WTF9RetainPtrI19NSMutableDictionaryEC2IPS1_EERKNS0_IT_EE
__ZN7CoreIPC6decodeERNS_15ArgumentDecoderERN3WTF9RetainPtrI8NSStringEE
__ZN3WTF9RetainPtrI8NSStringEaSIPS1_EERS2_ONS0_IT_EE
__ZN3WTF9RetainPtrIP11objc_objectEaSI8NSStringEERS3_RKNS0_IT_EE
-[WKWebProcessPlugInBrowserContextController mainFrameDocument]
__ZN6CyberKit15toWKDOMDocumentEPN7CyberCore8DocumentE
__ZN6CyberKit11toWKDOMNodeEPN7CyberCore4NodeE
__ZN6CyberKit14WKDOMNodeCacheEv
+[WKBrowsingContextController(Internal) _browsingContextControllerForPageRef:]
__ZN3WTF9HashTableIPN7CyberCore4NodeENS_12KeyValuePairIS3_P9WKDOMNodeEENS_24KeyValuePairKeyExtractorIS7_EENS_7PtrHashIS3_EENS_18HashMapValueTraitsINS_10HashTraitsIS3_EENSD_IS6_EEEESE_E16lookupForWritingINS_22IdentityHashTranslatorISB_EES3_EENSt3__14pairIPS7_bEERKT0_
__ZN3WTF9HashTableIPN7CyberCore4NodeENS_12KeyValuePairIS3_P9WKDOMNodeEENS_24KeyValuePairKeyExtractorIS7_EENS_7PtrHashIS3_EENS_18HashMapValueTraitsINS_10HashTraitsIS3_EENSD_IS6_EEEESE_E3addINS_17HashMapTranslatorISG_SB_EES3_S6_EENS_18HashTableAddResultINS_17HashTableIteratorIS3_S7_S9_SB_SG_SE_EEEERKT0_RKT1_
__ZN3WTF9HashTableIPN7CyberCore4NodeENS_12KeyValuePairIS3_P9WKDOMNodeEENS_24KeyValuePairKeyExtractorIS7_EENS_7PtrHashIS3_EENS_18HashMapValueTraitsINS_10HashTraitsIS3_EENSD_IS6_EEEESE_E4findINS_22IdentityHashTranslatorISB_EES3_EENS_17HashTableIteratorIS3_S7_S9_SB_SG_SE_EERKT0_
__ZN3WTF9HashTableIPN7CyberCore4NodeENS_12KeyValuePairIS3_P9WKDOMNodeEENS_24KeyValuePairKeyExtractorIS7_EENS_7PtrHashIS3_EENS_18HashMapValueTraitsINS_10HashTraitsIS3_EENSD_IS6_EEEESE_E6expandEv
__ZN3WTF9HashTableIPN7CyberCore4NodeENS_12KeyValuePairIS3_P9WKDOMNodeEENS_24KeyValuePairKeyExtractorIS7_EENS_7PtrHashIS3_EENS_18HashMapValueTraitsINS_10HashTraitsIS3_EENSD_IS6_EEEESE_E6lookupINS_22IdentityHashTranslatorISB_EES3_EEPS7_RKT0_
__ZN3WTF9HashTableIPN7CyberCore4NodeENS_12KeyValuePairIS3_P9WKDOMNodeEENS_24KeyValuePairKeyExtractorIS7_EENS_7PtrHashIS3_EENS_18HashMapValueTraitsINS_10HashTraitsIS3_EENSD_IS6_EEEESE_E6rehashEi
__ZN3WTF9HashTableIPN7CyberCore4NodeENS_12KeyValuePairIS3_P9WKDOMNodeEENS_24KeyValuePairKeyExtractorIS7_EENS_7PtrHashIS3_EENS_18HashMapValueTraitsINS_10HashTraitsIS3_EENSD_IS6_EEEESE_E6removeEPS7_
__ZN3WTF9RetainPtrIP11objc_objectEaSI27WKBrowsingContextControllerEERS3_PT_
__ZN3WTF9RetainPtrIP11objc_objectEaSI19NSMutableDictionaryEERS3_RKNS0_IT_EE
-[WKDOMNode .cxx_construct]
-[WKDOMNode _initWithImpl:]
__ZN3WTF6RefPtrIN7CyberCore4NodeEEaSEPS2_
__ZN6CyberKit19WebConnectionClient17didReceiveMessageEPNS_13WebConnectionERKN3WTF6StringEPNS_9APIObjectE
__ZL17didReceiveMessagePK18OpaqueWKConnectionPK14OpaqueWKStringPKvS6_
-[WKDOMDocument body]
-[WKConnection delegate]
__ZN6CyberKit14toWKDOMElementEPN7CyberCore7ElementE
-[WKDOMRange .cxx_construct]
-[WKDOMRange initWithDocument:]
__ZN6CyberKit17toCyberCoreDocumentEP13WKDOMDocument
-[WKDOMRange _initWithImpl:]
__ZN3WTF6RefPtrIN7CyberCore5RangeEEaSEPS2_
__ZN6CyberKit15WKDOMRangeCacheEv
-[WKDOMRange selectNode:]
__ZN6CyberKit13toCyberCoreNodeEP9WKDOMNode
-[WKDOMRange isCollapsed]
-[WKDOMTextIterator .cxx_construct]
-[WKDOMTextIterator initWithRange:]
__ZN6CyberKit14toCyberCoreRangeEP10WKDOMRange
__ZN3WTF6OwnPtrIN7CyberCore12TextIteratorEEaSERKNS_10PassOwnPtrIS2_EE
__ZN3WTF10PassOwnPtrIN7CyberCore12TextIteratorEED2Ev
-[WKDOMRange dealloc]
__ZN3WTF7HashMapIPN7CyberCore5RangeEP10WKDOMRangeNS_7PtrHashIS3_EENS_10HashTraitsIS3_EENS8_IS5_EEE6removeERKS3_
__ZN3WTF9HashTableIPN7CyberCore5RangeENS_12KeyValuePairIS3_P10WKDOMRangeEENS_24KeyValuePairKeyExtractorIS7_EENS_7PtrHashIS3_EENS_18HashMapValueTraitsINS_10HashTraitsIS3_EENSD_IS6_EEEESE_E16lookupForWritingINS_22IdentityHashTranslatorISB_EES3_EENSt3__14pairIPS7_bEERKT0_
__ZN3WTF9HashTableIPN7CyberCore5RangeENS_12KeyValuePairIS3_P10WKDOMRangeEENS_24KeyValuePairKeyExtractorIS7_EENS_7PtrHashIS3_EENS_18HashMapValueTraitsINS_10HashTraitsIS3_EENSD_IS6_EEEESE_E3addINS_17HashMapTranslatorISG_SB_EES3_S6_EENS_18HashTableAddResultINS_17HashTableIteratorIS3_S7_S9_SB_SG_SE_EEEERKT0_RKT1_
__ZN3WTF9HashTableIPN7CyberCore5RangeENS_12KeyValuePairIS3_P10WKDOMRangeEENS_24KeyValuePairKeyExtractorIS7_EENS_7PtrHashIS3_EENS_18HashMapValueTraitsINS_10HashTraitsIS3_EENSD_IS6_EEEESE_E4findINS_22IdentityHashTranslatorISB_EES3_EENS_17HashTableIteratorIS3_S7_S9_SB_SG_SE_EERKT0_
__ZN3WTF9HashTableIPN7CyberCore5RangeENS_12KeyValuePairIS3_P10WKDOMRangeEENS_24KeyValuePairKeyExtractorIS7_EENS_7PtrHashIS3_EENS_18HashMapValueTraitsINS_10HashTraitsIS3_EENSD_IS6_EEEESE_E6expandEv
__ZN3WTF9HashTableIPN7CyberCore5RangeENS_12KeyValuePairIS3_P10WKDOMRangeEENS_24KeyValuePairKeyExtractorIS7_EENS_7PtrHashIS3_EENS_18HashMapValueTraitsINS_10HashTraitsIS3_EENSD_IS6_EEEESE_E6lookupINS_22IdentityHashTranslatorISB_EES3_EEPS7_RKT0_
__ZN3WTF9HashTableIPN7CyberCore5RangeENS_12KeyValuePairIS3_P10WKDOMRangeEENS_24KeyValuePairKeyExtractorIS7_EENS_7PtrHashIS3_EENS_18HashMapValueTraitsINS_10HashTraitsIS3_EENSD_IS6_EEEESE_E6rehashEi
__ZN3WTF9HashTableIPN7CyberCore5RangeENS_12KeyValuePairIS3_P10WKDOMRangeEENS_24KeyValuePairKeyExtractorIS7_EENS_7PtrHashIS3_EENS_18HashMapValueTraitsINS_10HashTraitsIS3_EENSD_IS6_EEEESE_E6removeEPS7_
-[WKDOMRange .cxx_destruct]
-[WKDOMTextIterator atEnd]
-[WKDOMTextIterator currentTextLength]
-[WKDOMTextIterator currentTextPointer]
-[WKDOMTextIterator advance]
-[WKDOMTextIterator .cxx_destruct]
__ZN3WTF6OwnPtrIN7CyberCore12TextIteratorEED2Ev
-[WKDOMNode dealloc]
__ZN3WTF7HashMapIPN7CyberCore4NodeEP9WKDOMNodeNS_7PtrHashIS3_EENS_10HashTraitsIS3_EENS8_IS5_EEE6removeERKS3_
-[WKDOMNode .cxx_destruct]
__ZL21didFinishLoadForFramePK12OpaqueWKPagePK13OpaqueWKFramePKvS6_
-[WKBrowsingContextController activeURL]
_WKPageCopyActiveURL
__ZNK6CyberKit12WebPageProxy9activeURLEv
-[WKDOMNode firstChild]
-[WKDOMElement tagName]
-[WKDOMNode nextSibling]
-[WKDOMNode parentNode]
-[WKDOMElement hasAttribute:]
-[WKDOMElement getAttribute:]
-[WKDOMRange selectNodeContents:]
-[WKDOMTextIterator currentRange]
__ZN6CyberKit12toWKDOMRangeEPN7CyberCore5RangeE
-[WKDOMRange endOffset]
-[WKDOMRange startOffset]
-[WKDOMRange startContainer]
__ZN6CyberKit30WebFormSubmissionListenerProxyD0Ev
