__ZN7CyberCore7RunLoop21initializeMainRunLoopEv
__ZN3WTF14ThreadSpecificIN7CyberCore7RunLoop6HolderEEcvPS3_Ev
__ZN7CyberCore7RunLoopC1Ev
__ZN7CyberCore7RunLoopC2Ev
__ZN7CyberCore19ResourceRequestBase25setDefaultTimeoutIntervalEd
__ZN3WTF6StringC1EPK10__CFString
__ZN3WTF6StringC2EPK10__CFString
__ZN7CyberCore22systemMarketingVersionEv
__ZN3WTF6StringC1EP8NSString
__ZN3WTF6StringC2EP8NSString
__ZN7CyberCore21memoryPressureHandlerEv
__ZN7CyberCore21MemoryPressureHandler7installEv
_stringIsCaseInsensitiveEqualToString
__ZN7CyberCore7RunLoop4mainEv
__ZN7CyberCore7RunLoop9TimerBaseC2EPS0_
__ZN7CyberCore14SQLiteDatabaseC1Ev
__ZN7CyberCore12UTF8EncodingEv
__ZN7CyberCore31atomicCanonicalTextEncodingNameEPKc
__ZN7CyberCore15TextCodecLatin121registerEncodingNamesEPFvPKcS2_E
__ZN7CyberCoreL24addToTextEncodingNameMapEPKcS1_
__ZN3WTF9HashTableIPKcNS_12KeyValuePairIS2_S2_EENS_24KeyValuePairKeyExtractorIS4_EEN7CyberCore20TextEncodingNameHashENS_18HashMapValueTraitsINS_10HashTraitsIS2_EESB_EESB_E16lookupForWritingINS_22IdentityHashTranslatorIS8_EES2_EENSt3__14pairIPS4_bEERKT0_
__ZN3WTF9HashTableIPKcNS_12KeyValuePairIS2_S2_EENS_24KeyValuePairKeyExtractorIS4_EEN7CyberCore20TextEncodingNameHashENS_18HashMapValueTraitsINS_10HashTraitsIS2_EESB_EESB_E3addINS_17HashMapTranslatorISC_S8_EES2_S2_EENS_18HashTableAddResultINS_17HashTableIteratorIS2_S4_S6_S8_SC_SB_EEEERKT0_RKT1_
__ZN3WTF9HashTableIPKcNS_12KeyValuePairIS2_S2_EENS_24KeyValuePairKeyExtractorIS4_EEN7CyberCore20TextEncodingNameHashENS_18HashMapValueTraitsINS_10HashTraitsIS2_EESB_EESB_E6lookupINS_22IdentityHashTranslatorIS8_EES2_EEPS4_RKT0_
__ZN3WTF9HashTableIPKcNS_12KeyValuePairIS2_S2_EENS_24KeyValuePairKeyExtractorIS4_EEN7CyberCore20TextEncodingNameHashENS_18HashMapValueTraitsINS_10HashTraitsIS2_EESB_EESB_E6shrinkEv
__ZN7CyberCore15TextCodecLatin114registerCodecsEPFvPKcPFN3WTF10PassOwnPtrINS_9TextCodecEEERKNS_12TextEncodingEPKvESB_E
__ZN7CyberCoreL17addToTextCodecMapEPKcPFN3WTF10PassOwnPtrINS_9TextCodecEEERKNS_12TextEncodingEPKvESA_
__ZN7CyberCore13TextCodecUTF821registerEncodingNamesEPFvPKcS2_E
__ZN7CyberCore13TextCodecUTF814registerCodecsEPFvPKcPFN3WTF10PassOwnPtrINS_9TextCodecEEERKNS_12TextEncodingEPKvESB_E
__ZN3WTF9HashTableIPKcNS_12KeyValuePairIS2_N7CyberCore16TextCodecFactoryEEENS_24KeyValuePairKeyExtractorIS6_EENS_7PtrHashIS2_EENS_18HashMapValueTraitsINS_10HashTraitsIS2_EENSC_IS5_EEEESD_E16lookupForWritingINS_22IdentityHashTranslatorISA_EES2_EENSt3__14pairIPS6_bEERKT0_
__ZN3WTF9HashTableIPKcNS_12KeyValuePairIS2_N7CyberCore16TextCodecFactoryEEENS_24KeyValuePairKeyExtractorIS6_EENS_7PtrHashIS2_EENS_18HashMapValueTraitsINS_10HashTraitsIS2_EENSC_IS5_EEEESD_E3addINS_17HashMapTranslatorISF_SA_EES2_S5_EENS_18HashTableAddResultINS_17HashTableIteratorIS2_S6_S8_SA_SF_SD_EEEERKT0_RKT1_
__ZN3WTF9HashTableIPKcNS_12KeyValuePairIS2_N7CyberCore16TextCodecFactoryEEENS_24KeyValuePairKeyExtractorIS6_EENS_7PtrHashIS2_EENS_18HashMapValueTraitsINS_10HashTraitsIS2_EENSC_IS5_EEEESD_E6lookupINS_22IdentityHashTranslatorISA_EES2_EEPS6_RKT0_
__ZN3WTF9HashTableIPKcNS_12KeyValuePairIS2_N7CyberCore16TextCodecFactoryEEENS_24KeyValuePairKeyExtractorIS6_EENS_7PtrHashIS2_EENS_18HashMapValueTraitsINS_10HashTraitsIS2_EENSC_IS5_EEEESD_E6rehashEi
__ZN7CyberCore14TextCodecUTF1621registerEncodingNamesEPFvPKcS2_E
__ZN7CyberCore14TextCodecUTF1614registerCodecsEPFvPKcPFN3WTF10PassOwnPtrINS_9TextCodecEEERKNS_12TextEncodingEPKvESB_E
__ZN7CyberCore20TextCodecUserDefined21registerEncodingNamesEPFvPKcS2_E
__ZN7CyberCore20TextCodecUserDefined14registerCodecsEPFvPKcPFN3WTF10PassOwnPtrINS_9TextCodecEEERKNS_12TextEncodingEPKvESB_E
__ZN7CyberCore37shouldShowBackslashAsCurrencySymbolInEPKc
__ZN7CyberCore25addLanguageChangeObserverEPvPFvS0_E
__ZN7CyberCore12IconDatabaseC1Ev
__ZN7CyberCore12IconDatabaseC2Ev
__ZN7CyberCore9TimerBaseC2Ev
__ZNK7CyberCore14SecurityOrigin23domainForCachePartitionEv
__ZN7CyberCore18makeAllDirectoriesERKN3WTF6StringE
__ZN7CyberCore24fileSystemRepresentationERKN3WTF6StringE
__ZNK3WTF6String14createCFStringEv
__ZN3WTF10StringImpl14createCFStringEv
__ZN7CyberCore12IconDatabase9setClientEPNS_18IconDatabaseClientE
__ZN7CyberCore12IconDatabase20delayDatabaseCleanupEv
__ZN7CyberCore12IconDatabase10setEnabledEb
__ZN7CyberCore13directoryNameERKN3WTF6StringE
__ZN7CyberCore24pathByAppendingComponentERKN3WTF6StringES3_
__ZN3WTF24StringWrapperCFAllocatorL6retainEPKv
__ZN3WTFplINS_6StringEPKcS1_EENS_12StringAppendINS4_IT_T0_EET1_EERKS7_S8_
__ZN3WTF24StringWrapperCFAllocatorL8allocateElmPv
__ZNK3WTF12StringAppendINS0_INS_6StringEPKcEES1_EcvS1_Ev
__ZN3WTF24StringWrapperCFAllocatorL10deallocateEPvS1_
__ZN3WTF13tryMakeStringINS_12StringAppendINS_6StringEPKcEES2_EENS_10PassRefPtrINS_10StringImplEEET_T0_
__ZN7CyberCore10fileExistsERKN3WTF6StringE
__ZN7CyberCore15pathGetFileNameERKN3WTF6StringE
__ZN7CyberCore12IconDatabase4openERKN3WTF6StringES4_
__ZNK7CyberCore12IconDatabase6isOpenEv
__ZN7CyberCore21setGlobalIconDatabaseEPNS_16IconDatabaseBaseE
__ZN7CyberCore14SQLiteDatabase4openERKN3WTF6StringEb
__ZN7CyberCore14SQLiteDatabase5closeEv
__ZN7CyberCore16SQLiteFileSystem12openDatabaseERKN3WTF6StringEPP7sqlite3b
__ZN7CyberCore12IconDatabase27iconDatabaseSyncThreadStartEPv
__ZN7CyberCore12IconDatabase22iconDatabaseSyncThreadEv
__ZNK3WTF12StringAppendINS_6StringEPKcEcvS1_Ev
__ZN3WTF13tryMakeStringINS_6StringEPKcEENS_10PassRefPtrINS_10StringImplEEET_T0_
__ZN7CyberCore15SQLiteStatementC1ERNS_14SQLiteDatabaseERKN3WTF6StringE
__ZN7CyberCore15SQLiteStatement14executeCommandEv
__ZN7CyberCore15SQLiteStatement7prepareEv
__ZN7CyberCore14SQLiteDatabase13isInterruptedEv
__ZN7CyberCore14SQLiteDatabase22updateLastChangesCountEv
__ZN7CyberCore15SQLiteStatementD1Ev
__ZNK7CyberCore12IconDatabase24shouldStopThreadActivityEv
__ZN7CyberCore14SQLiteDatabase11tableExistsERKN3WTF6StringE
__ZN7CyberCore12IconDatabase25performOpenInitializationEv
__ZNK3WTF12StringAppendINS0_IPKcNS_6StringEEES2_EcvS3_Ev
__ZN7CyberCoreL21databaseVersionNumberERNS_14SQLiteDatabaseE
__ZN3WTF13tryMakeStringINS_12StringAppendIPKcNS_6StringEEES3_EENS_10PassRefPtrINS_10StringImplEEET_T0_
__ZN7CyberCore15SQLiteStatement12getColumnIntEi
__ZN7CyberCore15SQLiteStatement14prepareAndStepEv
__ZN7CyberCore15SQLiteStatement4stepEv
__ZN7CyberCore15SQLiteStatement13getColumnTextEi
__ZN7CyberCore20canExcludeFromBackupEv
__ZN7CyberCore12IconDatabase21wasExcludedFromBackupEv
__ZN7CyberCore12IconDatabase16performURLImportEv
__ZN7CyberCore13listDirectoryERKN3WTF6StringES3_
__ZN3WTF6VectorINS_6StringELm0ENS_15CrashOnOverflowEE15reserveCapacityEm
__ZN3WTF9HashTableINS_6StringENS_12KeyValuePairIS1_PN7CyberCore13PageURLRecordEEENS_24KeyValuePairKeyExtractorIS6_EENS_10StringHashENS_18HashMapValueTraitsINS_10HashTraitsIS1_EENSB_IS5_EEEESC_E16lookupForWritingINS_22IdentityHashTranslatorIS9_EES1_EENSt3__14pairIPS6_bEERKT0_
__ZN3WTF9HashTableINS_6StringENS_12KeyValuePairIS1_PN7CyberCore13PageURLRecordEEENS_24KeyValuePairKeyExtractorIS6_EENS_10StringHashENS_18HashMapValueTraitsINS_10HashTraitsIS1_EENSB_IS5_EEEESC_E3addINS_17HashMapTranslatorISE_S9_EES1_S5_EENS_18HashTableAddResultINS_17HashTableIteratorIS1_S6_S8_S9_SE_SC_EEEERKT0_RKT1_
__ZN3WTF9HashTableINS_6StringENS_12KeyValuePairIS1_PN7CyberCore13PageURLRecordEEENS_24KeyValuePairKeyExtractorIS6_EENS_10StringHashENS_18HashMapValueTraitsINS_10HashTraitsIS1_EENSB_IS5_EEEESC_E6lookupINS_22IdentityHashTranslatorIS9_EES1_EEPS6_RKT0_
__ZN3WTF9HashTableINS_6StringENS_12KeyValuePairIS1_PN7CyberCore13PageURLRecordEEENS_24KeyValuePairKeyExtractorIS6_EENS_10StringHashENS_18HashMapValueTraitsINS_10HashTraitsIS1_EENSB_IS5_EEEESC_E6rehashEi
__ZN7CyberCore19documentCanHaveIconERKN3WTF6StringE
__ZN7CyberCore10protocolIsERKN3WTF6StringEPKc
__ZN7CyberCore13PageURLRecordC1ERKN3WTF6StringE
__ZN7CyberCore12IconDatabase21getOrCreateIconRecordERKN3WTF6StringE
__ZN7CyberCore10IconRecordC1ERKN3WTF6StringE
__ZN3WTF9HashTableINS_6StringENS_12KeyValuePairIS1_PN7CyberCore10IconRecordEEENS_24KeyValuePairKeyExtractorIS6_EENS_10StringHashENS_18HashMapValueTraitsINS_10HashTraitsIS1_EENSB_IS5_EEEESC_E16lookupForWritingINS_22IdentityHashTranslatorIS9_EES1_EENSt3__14pairIPS6_bEERKT0_
__ZN3WTF9HashTableINS_6StringENS_12KeyValuePairIS1_PN7CyberCore10IconRecordEEENS_24KeyValuePairKeyExtractorIS6_EENS_10StringHashENS_18HashMapValueTraitsINS_10HashTraitsIS1_EENSB_IS5_EEEESC_E3addINS_17HashMapTranslatorISE_S9_EES1_S5_EENS_18HashTableAddResultINS_17HashTableIteratorIS1_S6_S8_S9_SE_SC_EEEERKT0_RKT1_
__ZN3WTF9HashTableINS_6StringENS_12KeyValuePairIS1_PN7CyberCore10IconRecordEEENS_24KeyValuePairKeyExtractorIS6_EENS_10StringHashENS_18HashMapValueTraitsINS_10HashTraitsIS1_EENSB_IS5_EEEESC_E6lookupINS_22IdentityHashTranslatorIS9_EES1_EEPS6_RKT0_
__ZN3WTF9HashTableINS_6StringENS_12KeyValuePairIS1_PN7CyberCore10IconRecordEEENS_24KeyValuePairKeyExtractorIS6_EENS_10StringHashENS_18HashMapValueTraitsINS_10HashTraitsIS1_EENSB_IS5_EEEESC_E6rehashEi
__ZN7CyberCore13PageURLRecord13setIconRecordEN3WTF10PassRefPtrINS_10IconRecordEEE
__ZN3WTF9HashTableINS_6StringES1_NS_17IdentityExtractorENS_10StringHashENS_10HashTraitsIS1_EES5_E3addINS_22IdentityHashTranslatorIS3_EES1_S1_EENS_18HashTableAddResultINS_17HashTableIteratorIS1_S1_S2_S3_S5_S5_EEEERKT0_RKT1_
__ZN3WTF9HashTableINS_6StringES1_NS_17IdentityExtractorENS_10StringHashENS_10HashTraitsIS1_EES5_E6rehashEi
__ZN3WTF9HashTableINS_6StringES1_NS_17IdentityExtractorENS_10StringHashENS_10HashTraitsIS1_EES5_E16lookupForWritingINS_22IdentityHashTranslatorIS3_EES1_EENSt3__14pairIPS1_bEERKT0_
__ZN3WTF9HashTableINS_6StringES1_NS_17IdentityExtractorENS_10StringHashENS_10HashTraitsIS1_EES5_E6lookupINS_22IdentityHashTranslatorIS3_EES1_EEPS1_RKT0_
__ZN3WTF6VectorINS_6StringELm0ENS_15CrashOnOverflowEE11appendRangeINS_29HashTableConstIteratorAdapterINS_9HashTableIS1_S1_NS_17IdentityExtractorENS_10StringHashENS_10HashTraitsIS1_EESA_EES1_EEEEvT_SD_
__ZN7CyberCore12IconDatabase40performPendingRetainAndReleaseOperationsEv
__ZN7CyberCore12IconDatabase18syncThreadMainLoopEv
__ZN7CyberCore12IconDatabase15writeToDatabaseEv
__ZN3WTF6VectorIN7CyberCore12IconSnapshotELm0ENS_15CrashOnOverflowEE11appendRangeINS_23HashTableValuesIteratorINS_9HashTableINS_6StringENS_12KeyValuePairIS8_S2_EENS_24KeyValuePairKeyExtractorISA_EENS_10StringHashENS_18HashMapValueTraitsINS_10HashTraitsIS8_EENSF_IS2_EEEESG_EES8_S2_EEEEvT_SL_
__ZN3WTF6VectorIN7CyberCore15PageURLSnapshotELm0ENS_15CrashOnOverflowEE11appendRangeINS_23HashTableValuesIteratorINS_9HashTableINS_6StringENS_12KeyValuePairIS8_S2_EENS_24KeyValuePairKeyExtractorISA_EENS_10StringHashENS_18HashMapValueTraitsINS_10HashTraitsIS8_EENSF_IS2_EEEESG_EES8_S2_EEEEvT_SL_
__ZN7CyberCore17SQLiteTransactionC1ERNS_14SQLiteDatabaseEb
__ZN7CyberCore17SQLiteTransaction5beginEv
__ZN7CyberCore14SQLiteDatabase14executeCommandERKN3WTF6StringE
__ZN7CyberCore17SQLiteTransaction6commitEv
__ZN7CyberCore17SQLiteTransactionD1Ev
__ZN7CyberCore12IconDatabase16readFromDatabaseEv
__ZN7CyberCore4Font29setDefaultTypesettingFeaturesEj
__ZN3WTF10StringImplcvP8NSStringEv
__ZN7CyberCore22userPreferredLanguagesEv
__ZN7CyberCore30platformUserPreferredLanguagesEv
__ZN3WTF6VectorINS_6StringELm0ENS_15CrashOnOverflowEE14shrinkCapacityEm
__ZN3WTF6VectorINS_6StringELm0ENS_15CrashOnOverflowEE14expandCapacityEmPKS1_
__ZN3WTF6VectorINS_6StringELm0ENS_15CrashOnOverflowEEC2ERKS3_
__ZN7CyberCore19ResourceRequestBase22defaultTimeoutIntervalEv
__ZN7CyberCore14SchemeRegistry40setDomainRelaxationForbiddenForURLSchemeEbRKN3WTF6StringE
__ZN7CyberCore14SchemeRegistry62registerURLSchemeAsAllowingLocalStorageAccessInPrivateBrowsingERKN3WTF6StringE
__ZN3WTF9HashTableINS_6StringES1_NS_17IdentityExtractorENS_15CaseFoldingHashENS_10HashTraitsIS1_EES5_E3addINS_22IdentityHashTranslatorIS3_EES1_S1_EENS_18HashTableAddResultINS_17HashTableIteratorIS1_S1_S2_S3_S5_S5_EEEERKT0_RKT1_
__ZN3WTF9HashTableINS_6StringES1_NS_17IdentityExtractorENS_15CaseFoldingHashENS_10HashTraitsIS1_EES5_E6rehashEi
__ZN3WTF15CaseFoldingHash4hashEPNS_10StringImplE
__ZN3WTF12StringHasher28addCharactersAssumingAlignedIhXadL_ZNS_15CaseFoldingHash8foldCaseIhEEtT_EEEEvPKS4_j
__ZN7CyberCore14SchemeRegistry58registerURLSchemeAsAllowingDatabaseAccessInPrivateBrowsingERKN3WTF6StringE
__ZN7CyberCore7IntSizeC1ERK6CGSize
__ZN7CyberCore11URLWithDataEP6NSDataP5NSURL
__ZN7CyberCore42URLByTruncatingOneCharacterBeforeComponentEP5NSURLl
__ZN7CyberCore16isUserVisibleURLEP8NSString
__ZN7CyberCore12IconDatabase20retainIconForPageURLERKN3WTF6StringE
__ZNK7CyberCore12IconDatabase9isEnabledEv
__ZN3WTF9HashTableINS_6StringENS_12KeyValuePairIS1_jEENS_24KeyValuePairKeyExtractorIS3_EENS_10StringHashENS_18HashMapValueTraitsINS_10HashTraitsIS1_EENS8_IjEEEES9_E16lookupForWritingINS_22IdentityHashTranslatorIS6_EES1_EENSt3__14pairIPS3_bEERKT0_
__ZN3WTF9HashTableINS_6StringENS_12KeyValuePairIS1_jEENS_24KeyValuePairKeyExtractorIS3_EENS_10StringHashENS_18HashMapValueTraitsINS_10HashTraitsIS1_EENS8_IjEEEES9_E3addINS_17HashMapTranslatorISB_S6_EES1_jEENS_18HashTableAddResultINS_17HashTableIteratorIS1_S3_S5_S6_SB_S9_EEEERKT0_RKT1_
__ZN3WTF9HashTableINS_6StringENS_12KeyValuePairIS1_jEENS_24KeyValuePairKeyExtractorIS3_EENS_10StringHashENS_18HashMapValueTraitsINS_10HashTraitsIS1_EENS8_IjEEEES9_E6lookupINS_22IdentityHashTranslatorIS6_EES1_EEPS3_RKT0_
__ZN3WTF9HashTableINS_6StringENS_12KeyValuePairIS1_jEENS_24KeyValuePairKeyExtractorIS3_EENS_10StringHashENS_18HashMapValueTraitsINS_10HashTraitsIS1_EENS8_IjEEEES9_E6rehashEi
__ZN7CyberCore24disableSuddenTerminationEv
__ZN7CyberCore17userVisibleStringEP5NSURL
__ZN7CyberCore15originalURLDataEP5NSURL
__ZN7CyberCoreL12mapHostNamesEP8NSStringa
_hasCaseInsensitivePrefix
__ZN7CyberCoreL29collectRangesThatNeedEncodingEP8NSString8_NSRangePv
__ZN7CyberCoreL20mapHostNameWithRangeEP8NSString8_NSRangeaa
__ZN7CyberCore12IconDatabase25synchronousIconForPageURLERKN3WTF6StringERKNS_7IntSizeE
__ZN7CyberCore12IconDatabase27performRetainIconForPageURLERKN3WTF6StringEi
__ZN7CyberCore10IconRecord15imageDataStatusEv
__ZN3WTF9HashTableIPN7CyberCore10IconRecordES3_NS_17IdentityExtractorENS_7PtrHashIS3_EENS_10HashTraitsIS3_EES8_E3addINS_22IdentityHashTranslatorIS6_EES3_S3_EENS_18HashTableAddResultINS_17HashTableIteratorIS3_S3_S4_S6_S8_S8_EEEERKT0_RKT1_
__ZN3WTF9HashTableIPN7CyberCore10IconRecordES3_NS_17IdentityExtractorENS_7PtrHashIS3_EENS_10HashTraitsIS3_EES8_E6rehashEi
__ZN3WTF6VectorIPN7CyberCore10IconRecordELm0ENS_15CrashOnOverflowEE14expandCapacityEmPKS3_
__ZN3WTF6VectorIPN7CyberCore10IconRecordELm0ENS_15CrashOnOverflowEE15reserveCapacityEm
__ZN7CyberCore12IconDatabase37getImageDataForIconURLFromSQLDatabaseERKN3WTF6StringE
__ZN7CyberCore20readySQLiteStatementERN3WTF6OwnPtrINS_15SQLiteStatementEEERNS_14SQLiteDatabaseERKNS0_6StringE
__ZN3WTF9HashTableIPN7CyberCore10IconRecordES3_NS_17IdentityExtractorENS_7PtrHashIS3_EENS_10HashTraitsIS3_EES8_E16lookupForWritingINS_22IdentityHashTranslatorIS6_EES3_EENSt3__14pairIPS3_bEERKT0_
__ZN3WTF9HashTableIPN7CyberCore10IconRecordES3_NS_17IdentityExtractorENS_7PtrHashIS3_EENS_10HashTraitsIS3_EES8_E6lookupINS_22IdentityHashTranslatorIS6_EES3_EEPS3_RKT0_
__ZN7CyberCore15SQLiteStatement8bindTextEiRKN3WTF6StringE
__ZN7CyberCore15SQLiteStatement21getColumnBlobAsVectorEiRN3WTF6VectorIcLm0ENS1_15CrashOnOverflowEEE
__ZN3WTF6VectorIcLm0ENS_15CrashOnOverflowEE15reserveCapacityEm
__ZN7CyberCore12SharedBufferC1EPKci
__ZN7CyberCore12SharedBuffer6appendEPKcj
__ZN7CyberCore12SharedBuffer25maybeTransferPlatformDataEv
__ZN7CyberCore15SQLiteStatement5resetEv
__ZN7CyberCore10IconRecord12setImageDataEN3WTF10PassRefPtrINS_12SharedBufferEEE
__ZN7CyberCore11BitmapImageC1EPNS_13ImageObserverE
__ZN7CyberCore5ImageC2EPNS_13ImageObserverE
__ZN7CyberCore11ImageSourceC1ENS0_11AlphaOptionENS0_26GammaAndColorProfileOptionE
__ZN7CyberCore5Image7setDataEN3WTF10PassRefPtrINS_12SharedBufferEEEb
__ZNK7CyberCore12SharedBuffer4sizeEv
__ZNK7CyberCore12SharedBuffer15hasPlatformDataEv
__ZN7CyberCore11BitmapImage11dataChangedEb
__ZN7CyberCore11BitmapImage22invalidatePlatformDataEv
__ZN7CyberCore11ImageSource7setDataEPNS_12SharedBufferEb
__ZN7CyberCore12SharedBuffer12createCFDataEv
+[CyberCoreSharedBufferData initialize]
_CyberCoreObjCFinalizeOnMainThread
-[CyberCoreSharedBufferData .cxx_construct]
-[CyberCoreSharedBufferData initWithSharedBuffer:]
-[CyberCoreSharedBufferData length]
__ZN7CyberCore11BitmapImage15isSizeAvailableEv
__ZN7CyberCore11ImageSource15isSizeAvailableEv
-[CyberCoreSharedBufferData bytes]
__ZNK7CyberCore12SharedBuffer4dataEv
__ZNK7CyberCore12SharedBuffer6bufferEv
__ZNK7CyberCore11ImageSource33bytesDecodedToDeterminePropertiesEv
__ZN3WTF7HashSetIPN7CyberCore10IconRecordENS_7PtrHashIS3_EENS_10HashTraitsIS3_EEE6removeERKS3_
__ZN3WTF7HashSetINS_6StringENS_10StringHashENS_10HashTraitsIS1_EEE6removeERKS1_
__ZN7CyberCore15SQLiteStatement9isExpiredEv
__ZN3WTF6VectorIPcLm0ENS_15CrashOnOverflowEE14expandCapacityEmPKS1_
__ZN3WTF6VectorIPcLm0ENS_15CrashOnOverflowEE15reserveCapacityEm
__ZN7CyberCore9fontCacheEv
__ZN7CyberCore16FontPlatformDataC1EP6NSFontfbbbNS_15FontOrientationENS_16FontWidthVariantE
__ZN7CyberCore16FontPlatformDataC2EP6NSFontfbbbNS_15FontOrientationENS_16FontWidthVariantE
__ZN7CyberCore23enableSuddenTerminationEv
__ZN7CyberCore4FontC1ERKNS_16FontPlatformDataEbNS_17FontSmoothingModeE
__ZN7CyberCore4FontC2ERKNS_16FontPlatformDataEbNS_17FontSmoothingModeE
__ZN7CyberCore10FontGlyphsC1ERKNS_16FontPlatformDataE
__ZN7CyberCore10FontGlyphsC2ERKNS_16FontPlatformDataE
__ZN7CyberCore9FontCache10generationEv
__ZN7CyberCore9FontCache17getCachedFontDataEPKNS_16FontPlatformDataENS0_12ShouldRetainE
__ZN7CyberCore14SimpleFontDataC1ERKNS_16FontPlatformDataEbbb
__ZN7CyberCore16FontPlatformDataC1ERKS0_
__ZN7CyberCore16FontPlatformData16platformDataInitERKS0_
__ZN7CyberCore14SimpleFontData12platformInitEv
__ZN7CyberCore17GlyphPageTreeNode7getRootEj
__ZN7CyberCore17GlyphPageTreeNode8getChildEPKNS_8FontDataEj
__ZNK7CyberCore14SimpleFontData12isCustomFontEv
__ZN3WTF9HashTableIPKN7CyberCore8FontDataENS_12KeyValuePairIS4_NS_6OwnPtrINS1_17GlyphPageTreeNodeEEEEENS_24KeyValuePairKeyExtractorIS9_EENS_7PtrHashIS4_EENS_18HashMapValueTraitsINS_10HashTraitsIS4_EENSF_IS8_EEEESG_E16lookupForWritingINS_22IdentityHashTranslatorISD_EES4_EENSt3__14pairIPS9_bEERKT0_
__ZN3WTF9HashTableIPKN7CyberCore8FontDataENS_12KeyValuePairIS4_NS_6OwnPtrINS1_17GlyphPageTreeNodeEEEEENS_24KeyValuePairKeyExtractorIS9_EENS_7PtrHashIS4_EENS_18HashMapValueTraitsINS_10HashTraitsIS4_EENSF_IS8_EEEESG_E3addINS_17HashMapTranslatorISI_SD_EES4_NS_10PassOwnPtrIS7_EEEENS_18HashTableAddResultINS_17HashTableIteratorIS4_S9_SB_SD_SI_SG_EEEERKT0_RKT1_
__ZN3WTF9HashTableIPKN7CyberCore8FontDataENS_12KeyValuePairIS4_NS_6OwnPtrINS1_17GlyphPageTreeNodeEEEEENS_24KeyValuePairKeyExtractorIS9_EENS_7PtrHashIS4_EENS_18HashMapValueTraitsINS_10HashTraitsIS4_EENSF_IS8_EEEESG_E6lookupINS_22IdentityHashTranslatorISD_EES4_EEPS9_RKT0_
__ZN3WTF9HashTableIPKN7CyberCore8FontDataENS_12KeyValuePairIS4_NS_6OwnPtrINS1_17GlyphPageTreeNodeEEEEENS_24KeyValuePairKeyExtractorIS9_EENS_7PtrHashIS4_EENS_18HashMapValueTraitsINS_10HashTraitsIS4_EENSF_IS8_EEEESG_E6rehashEi
__ZN3WTF6OwnPtrIN7CyberCore17GlyphPageTreeNodeEEaSERKNS_10PassOwnPtrIS2_EE
__ZN3WTF10PassOwnPtrIN7CyberCore17GlyphPageTreeNodeEED2Ev
__ZN7CyberCore17GlyphPageTreeNode14initializePageEPKNS_8FontDataEj
__ZNK7CyberCore14SimpleFontData11isSegmentedEv
__ZN7CyberCore9GlyphPage30mayUseMixedFontDataWhenFillingEPKtjPKNS_14SimpleFontDataE
__ZN7CyberCore9GlyphPage4fillEjjPtjPKNS_14SimpleFontDataE
__ZNK7CyberCore16FontPlatformData6ctFontEv
__ZN7CyberCoreL33cascadeToLastResortFontDescriptorEv
__ZN7CyberCore9FloatRectC1ERK6CGRect
__ZN7CyberCore10FloatPointC1ERK7CGPoint
__ZN7CyberCore9FloatSizeC1ERK6CGSize
__ZNK7CyberCore9FloatRectcv6CGRectEv
__ZN7CyberCore14SimpleFontData17platformGlyphInitEv
__ZN7CyberCore15GlyphMetricsMapIfE18locatePageSlowCaseEj
__ZNK7CyberCore14SimpleFontData21platformWidthForGlyphEt
__ZN7CyberCore14SimpleFontData14determinePitchEv
__ZN7CyberCore14SimpleFontData21platformCharWidthInitEv
__ZN7CyberCore14SimpleFontData14initCharWidthsEv
__ZN7CyberCore16FontPlatformDataC1EfbbNS_15FontOrientationENS_16FontWidthVariantE
__ZNK7CyberCore16FontPlatformData15platformIsEqualERKS0_
__ZN7CyberCore16FontPlatformDataaSERKS0_
__ZN7CyberCore16FontPlatformData18platformDataAssignERKS0_
__ZN7CyberCore14fontTranscoderEv
__ZN7CyberCore14FontTranscoderC2Ev
__ZN3WTF9HashTableINS_12AtomicStringENS_12KeyValuePairIS1_N7CyberCore14FontTranscoder13ConverterTypeEEENS_24KeyValuePairKeyExtractorIS6_EENS_16AtomicStringHashENS_18HashMapValueTraitsINS_10HashTraitsIS1_EENSB_IS5_EEEESC_E3addINS_17HashMapTranslatorISE_S9_EES1_S5_EENS_18HashTableAddResultINS_17HashTableIteratorIS1_S6_S8_S9_SE_SC_EEEERKT0_RKT1_
__ZN3WTF9HashTableINS_12AtomicStringENS_12KeyValuePairIS1_N7CyberCore14FontTranscoder13ConverterTypeEEENS_24KeyValuePairKeyExtractorIS6_EENS_16AtomicStringHashENS_18HashMapValueTraitsINS_10HashTraitsIS1_EENSB_IS5_EEEESC_E4findINS_22IdentityHashTranslatorIS9_EES1_EENS_17HashTableIteratorIS1_S6_S8_S9_SE_SC_EERKT0_
__ZN3WTF9HashTableINS_12AtomicStringENS_12KeyValuePairIS1_N7CyberCore14FontTranscoder13ConverterTypeEEENS_24KeyValuePairKeyExtractorIS6_EENS_16AtomicStringHashENS_18HashMapValueTraitsINS_10HashTraitsIS1_EENSB_IS5_EEEESC_E6rehashEi
__ZN3WTF9HashTableINS_12AtomicStringENS_12KeyValuePairIS1_N7CyberCore14FontTranscoder13ConverterTypeEEENS_24KeyValuePairKeyExtractorIS6_EENS_16AtomicStringHashENS_18HashMapValueTraitsINS_10HashTraitsIS1_EENSB_IS5_EEEESC_E8reinsertERS6_
__ZNK7CyberCore14FontTranscoder16needsTranscodingERKNS_15FontDescriptionEPKNS_12TextEncodingE
__ZN7CyberCore16FontPlatformDataD1Ev
__ZN7CyberCore16FontPlatformDataD2Ev
__ZNK7CyberCore4Font5widthERKNS_7TextRunEPN3WTF7HashSetIPKNS_14SimpleFontDataENS4_7PtrHashIS8_EENS4_10HashTraitsIS8_EEEEPNS_13GlyphOverflowE
__ZN7CyberCore4Font22characterRangeCodePathEPKtj
__ZN7CyberCore4Font36canReturnFallbackFontsForComplexTextEv
__ZNK7CyberCore4Font23floatWidthForSimpleTextERKNS_7TextRunEPN3WTF7HashSetIPKNS_14SimpleFontDataENS4_7PtrHashIS8_EENS4_10HashTraitsIS8_EEEEPNS_13GlyphOverflowE
__ZN7CyberCore13WidthIteratorC1EPKNS_4FontERKNS_7TextRunEPN3WTF7HashSetIPKNS_14SimpleFontDataENS7_7PtrHashISB_EENS7_10HashTraitsISB_EEEEbb
__ZN7CyberCore13WidthIteratorC2EPKNS_4FontERKNS_7TextRunEPN3WTF7HashSetIPKNS_14SimpleFontDataENS7_7PtrHashISB_EENS7_10HashTraitsISB_EEEEbb
__ZN7CyberCore13WidthIterator7advanceEiPNS_11GlyphBufferE
__ZN7CyberCore30SurrogatePairAwareTextIteratorC1EPKtiii
__ZN7CyberCore13WidthIterator15advanceInternalINS_30SurrogatePairAwareTextIteratorEEEjRT_PNS_11GlyphBufferE
__ZNK7CyberCore10FontGlyphs17realizeFontDataAtERKNS_15FontDescriptionEj
__ZNK7CyberCore14SimpleFontData20fontDataForCharacterEi
__ZNK7CyberCore10FontGlyphs28glyphDataAndPageForCharacterERKNS_15FontDescriptionEibNS_15FontDataVariantE
__ZN7CyberCore11GlyphBuffer3addEtPKNS_14SimpleFontDataEfPKNS_9FloatSizeE
__ZN7CyberCoreL19applyFontTransformsEPNS_11GlyphBufferEbRiPKNS_14SimpleFontDataEjRN3WTF6VectorINSt3__14pairIiNS_42OriginalAdvancesForCharacterTreatedAsSpaceEEELm64ENS6_15CrashOnOverflowEEE
__ZN7CyberCore10FontGlyphs15releaseFontDataEv
__ZN7CyberCore9FontCache15releaseFontDataEPKNS_14SimpleFontDataE
__ZN3WTF9HashTableIN7CyberCore16FontPlatformDataENS_12KeyValuePairIS2_NSt3__14pairINS_6RefPtrINS1_14SimpleFontDataEEEjEEEENS_24KeyValuePairKeyExtractorISA_EENS1_20FontDataCacheKeyHashENS_18HashMapValueTraitsINS1_22FontDataCacheKeyTraitsENS_10HashTraitsIS9_EEEESF_E13isEmptyBucketERKSA_
__ZN3WTF9HashTableIN7CyberCore16FontPlatformDataENS_12KeyValuePairIS2_NSt3__14pairINS_6RefPtrINS1_14SimpleFontDataEEEjEEEENS_24KeyValuePairKeyExtractorISA_EENS1_20FontDataCacheKeyHashENS_18HashMapValueTraitsINS1_22FontDataCacheKeyTraitsENS_10HashTraitsIS9_EEEESF_E16lookupForWritingINS_22IdentityHashTranslatorISD_EES2_EENS5_IPSA_bEERKT0_
__ZN3WTF9HashTableIN7CyberCore16FontPlatformDataENS_12KeyValuePairIS2_NSt3__14pairINS_6RefPtrINS1_14SimpleFontDataEEEjEEEENS_24KeyValuePairKeyExtractorISA_EENS1_20FontDataCacheKeyHashENS_18HashMapValueTraitsINS1_22FontDataCacheKeyTraitsENS_10HashTraitsIS9_EEEESF_E3addINS_17HashMapTranslatorISI_SD_EES2_S9_EENS_18HashTableAddResultINS_17HashTableIteratorIS2_SA_SC_SD_SI_SF_EEEERKT0_RKT1_
__ZN3WTF9HashTableIN7CyberCore16FontPlatformDataENS_12KeyValuePairIS2_NSt3__14pairINS_6RefPtrINS1_14SimpleFontDataEEEjEEEENS_24KeyValuePairKeyExtractorISA_EENS1_20FontDataCacheKeyHashENS_18HashMapValueTraitsINS1_22FontDataCacheKeyTraitsENS_10HashTraitsIS9_EEEESF_E6lookupINS_22IdentityHashTranslatorISD_EES2_EEPSA_RKT0_
__ZN3WTF9HashTableIN7CyberCore16FontPlatformDataENS_12KeyValuePairIS2_NSt3__14pairINS_6RefPtrINS1_14SimpleFontDataEEEjEEEENS_24KeyValuePairKeyExtractorISA_EENS1_20FontDataCacheKeyHashENS_18HashMapValueTraitsINS1_22FontDataCacheKeyTraitsENS_10HashTraitsIS9_EEEESF_E6rehashEi
__ZN3WTF9HashTableIN7CyberCore16FontPlatformDataENS_12KeyValuePairIS2_NSt3__14pairINS_6RefPtrINS1_14SimpleFontDataEEEjEEEENS_24KeyValuePairKeyExtractorISA_EENS1_20FontDataCacheKeyHashENS_18HashMapValueTraitsINS1_22FontDataCacheKeyTraitsENS_10HashTraitsIS9_EEEESF_E6removeEPSA_
__ZN3WTF21ListHashSetTranslatorINS_7PtrHashINS_6RefPtrIN7CyberCore14SimpleFontDataEEEEEE9translateINS_15ListHashSetNodeIS5_Lm256EEES5_PNS_24ListHashSetNodeAllocatorIS5_Lm256EEEEEvRPT_RKT0_RKT1_
__ZN7CyberCore9FontCache29purgeInactiveFontDataIfNeededEv
__ZN3WTF11ListHashSetINS_6RefPtrIN7CyberCore14SimpleFontDataEEELm256ENS_7PtrHashIS4_EEE6removeENS_19ListHashSetIteratorIS4_Lm256ES6_EE
__ZN3WTF9HashTableIPNS_15ListHashSetNodeINS_6RefPtrIN7CyberCore14SimpleFontDataEEELm256EEES7_NS_17IdentityExtractorENS_28ListHashSetNodeHashFunctionsINS_7PtrHashIS5_EEEENS_10HashTraitsIS7_EESE_E16lookupForWritingINS_22IdentityHashTranslatorISC_EES7_EENSt3__14pairIPS7_bEERKT0_
__ZN3WTF9HashTableIPNS_15ListHashSetNodeINS_6RefPtrIN7CyberCore14SimpleFontDataEEELm256EEES7_NS_17IdentityExtractorENS_28ListHashSetNodeHashFunctionsINS_7PtrHashIS5_EEEENS_10HashTraitsIS7_EESE_E3addINS_21ListHashSetTranslatorISB_EES5_PNS_24ListHashSetNodeAllocatorIS5_Lm256EEEEENS_18HashTableAddResultINS_17HashTableIteratorIS7_S7_S8_SC_SE_SE_EEEERKT0_RKT1_
__ZN3WTF9HashTableIPNS_15ListHashSetNodeINS_6RefPtrIN7CyberCore14SimpleFontDataEEELm256EEES7_NS_17IdentityExtractorENS_28ListHashSetNodeHashFunctionsINS_7PtrHashIS5_EEEENS_10HashTraitsIS7_EESE_E6lookupINS_21ListHashSetTranslatorISB_EES5_EEPS7_RKT0_
__ZN3WTF9HashTableIPNS_15ListHashSetNodeINS_6RefPtrIN7CyberCore14SimpleFontDataEEELm256EEES7_NS_17IdentityExtractorENS_28ListHashSetNodeHashFunctionsINS_7PtrHashIS5_EEEENS_10HashTraitsIS7_EESE_E6lookupINS_22IdentityHashTranslatorISC_EES7_EEPS7_RKT0_
__ZN3WTF9HashTableIPNS_15ListHashSetNodeINS_6RefPtrIN7CyberCore14SimpleFontDataEEELm256EEES7_NS_17IdentityExtractorENS_28ListHashSetNodeHashFunctionsINS_7PtrHashIS5_EEEENS_10HashTraitsIS7_EESE_E6rehashEi
__ZN3WTF9HashTableIPNS_15ListHashSetNodeINS_6RefPtrIN7CyberCore14SimpleFontDataEEELm256EEES7_NS_17IdentityExtractorENS_28ListHashSetNodeHashFunctionsINS_7PtrHashIS5_EEEENS_10HashTraitsIS7_EESE_E6removeERKS7_
__ZN7CyberCore4FontC1Ev
__ZN7CyberCore4FontaSERKS0_
__ZN3WTF6VectorINS_12AtomicStringELm1ENS_15CrashOnOverflowEEaSERKS3_
__ZN3WTF6RefPtrIN7CyberCore19FontFeatureSettingsEEaSERKS3_
__ZN7CyberCore15StringTruncator14centerTruncateERKN3WTF6StringEfRKNS_4FontENS0_24EnableRoundingHacksOrNotE
__ZN7CyberCoreL14truncateStringERKN3WTF6StringEfRKNS_4FontEPFjS3_jjPtEb
__ZN7CyberCore22URLWithUserTypedStringEP8NSStringP5NSURL
__ZN3WTF9HashTableIiNS_12KeyValuePairIiPN7CyberCore17GlyphPageTreeNodeEEENS_24KeyValuePairKeyExtractorIS5_EENS_7IntHashIjEENS_18HashMapValueTraitsINS_10HashTraitsIiEENSB_IS4_EEEESC_E16lookupForWritingINS_22IdentityHashTranslatorIS9_EEiEENSt3__14pairIPS5_bEERKT0_
__ZN3WTF9HashTableIiNS_12KeyValuePairIiPN7CyberCore17GlyphPageTreeNodeEEENS_24KeyValuePairKeyExtractorIS5_EENS_7IntHashIjEENS_18HashMapValueTraitsINS_10HashTraitsIiEENSB_IS4_EEEESC_E3addINS_17HashMapTranslatorISE_S9_EEiS4_EENS_18HashTableAddResultINS_17HashTableIteratorIiS5_S7_S9_SE_SC_EEEERKT0_RKT1_
__ZN3WTF9HashTableIiNS_12KeyValuePairIiPN7CyberCore17GlyphPageTreeNodeEEENS_24KeyValuePairKeyExtractorIS5_EENS_7IntHashIjEENS_18HashMapValueTraitsINS_10HashTraitsIiEENSB_IS4_EEEESC_E3addINS_22IdentityHashTranslatorIS9_EEiS5_EENS_18HashTableAddResultINS_17HashTableIteratorIiS5_S7_S9_SE_SC_EEEERKT0_RKT1_
__ZN3WTF9HashTableIiNS_12KeyValuePairIiPN7CyberCore17GlyphPageTreeNodeEEENS_24KeyValuePairKeyExtractorIS5_EENS_7IntHashIjEENS_18HashMapValueTraitsINS_10HashTraitsIiEENSB_IS4_EEEESC_E6lookupINS_22IdentityHashTranslatorIS9_EEiEEPS5_RKT0_
__ZN3WTF9HashTableIiNS_12KeyValuePairIiPN7CyberCore17GlyphPageTreeNodeEEENS_24KeyValuePairKeyExtractorIS5_EENS_7IntHashIjEENS_18HashMapValueTraitsINS_10HashTraitsIiEENSB_IS4_EEEESC_EaSERKSF_
__ZN7CyberCore15defaultLanguageEv
__ZN7CyberCore10FontGlyphsD2Ev
__ZN3WTF6OwnPtrIN7CyberCore17GlyphPageTreeNodeEED2Ev
__ZN7CyberCoreL22centerTruncateToBufferERKN3WTF6StringEjjPt
__ZN7CyberCore31NonSharedCharacterBreakIteratorC1EPKti
__ZN7CyberCore31NonSharedCharacterBreakIteratorC2EPKti
__ZN7CyberCore24currentTextBreakLocaleIDEv
__ZN7CyberCoreL21topLanguagePreferenceEv
__ZN7CyberCore18textBreakFollowingEPNS_17TextBreakIteratorEi
__ZN7CyberCore11isTextBreakEPNS_17TextBreakIteratorEi
__ZN7CyberCore31NonSharedCharacterBreakIteratorD1Ev
__ZN7CyberCore11getURLBytesEPK7__CFURLRN3WTF7CStringE
__ZN7CyberCore4KURL10invalidateEv
__ZN7CyberCore4KURLC1ERKS0_RKN3WTF6StringE
__ZN7CyberCore4KURL4initERKS0_RKN3WTF6StringERKNS_12TextEncodingE
__ZNK3WTF6String17containsOnlyASCIIEv
__ZN7CyberCore4KURL5parseEPKcPKN3WTF6StringE
__ZN7CyberCore13HTTPHeaderMapC1Ev
__ZN7CyberCore13HTTPHeaderMapD1Ev
__ZNK7CyberCore15ResourceRequest12nsURLRequestENS_20HTTPBodyUpdatePolicyE
__ZNK7CyberCore19ResourceRequestBase21updatePlatformRequestENS_20HTTPBodyUpdatePolicyE
__ZN7CyberCore15ResourceRequest23doUpdatePlatformRequestEv
__ZNK7CyberCore19ResourceRequestBase6isNullEv
__ZNK7CyberCore19ResourceRequestBase3urlEv
__ZNK7CyberCore4KURLcvP5NSURLEv
__ZNK7CyberCore4KURL11createCFURLEv
__ZNK7CyberCore4KURL12copyToBufferERN3WTF6VectorIcLm512ENS1_15CrashOnOverflowEEE
__ZN7CyberCore21createCFURLFromBufferEPKcmPK7__CFURL
__ZN7CyberCore15ResourceRequest21httpPipeliningEnabledEv
__ZNK7CyberCore19ResourceRequestBase11cachePolicyEv
__ZNK7CyberCore19ResourceRequestBase15timeoutIntervalEv
__ZNK7CyberCore19ResourceRequestBase20firstPartyForCookiesEv
__ZNK7CyberCore19ResourceRequestBase10httpMethodEv
__ZNK7CyberCore19ResourceRequestBase12allowCookiesEv
__ZNK7CyberCore19ResourceRequestBase16httpHeaderFieldsEv
__ZNK7CyberCore4KURL11isLocalFileEv
__ZN7CyberCore11getURLBytesEPK7__CFURLRN3WTF6VectorIcLm512ENS3_15CrashOnOverflowEEE
__ZNK7CyberCore7RunLoop9TimerBase8isActiveEv
__ZN7CyberCore7RunLoop9TimerBase5startEdb
__ZN7CyberCore12IconDatabase20allowDatabaseCleanupEv
__ZN7CyberCore9PageGroup26setShouldTrackVisitedLinksEb
__ZN7CyberCore9PageGroup21removeAllVisitedLinksEv
__ZN7CyberCore4Page21removeAllVisitedLinksEv
__ZN7CyberCore9pageCacheEv
__ZN7CyberCore9PageCache33markPagesForVistedLinkStyleRecalcEv
__ZNK7CyberCore4Font24floatWidthForComplexTextERKNS_7TextRunEPN3WTF7HashSetIPKNS_14SimpleFontDataENS4_7PtrHashIS8_EENS4_10HashTraitsIS8_EEEEPNS_13GlyphOverflowE
__ZN7CyberCore21ComplexTextControllerC1EPKNS_4FontERKNS_7TextRunEbPN3WTF7HashSetIPKNS_14SimpleFontDataENS7_7PtrHashISB_EENS7_10HashTraitsISB_EEEEb
__ZN7CyberCore21ComplexTextControllerC2EPKNS_4FontERKNS_7TextRunEbPN3WTF7HashSetIPKNS_14SimpleFontDataENS7_7PtrHashISB_EENS7_10HashTraitsISB_EEEEb
__ZN7CyberCore21ComplexTextController22collectComplexTextRunsEv
__ZN7CyberCoreL35advanceByCombiningCharacterSequenceERPKtS1_RiRj
__ZNK7CyberCore4Font37fontDataForCombiningCharacterSequenceEPKtmNS_15FontDataVariantE
__ZN7CyberCore21ComplexTextController35collectComplexTextRunsForCharactersEPKtjjPKNS_14SimpleFontDataE
__ZNK7CyberCore14SimpleFontData21getCFStringAttributesEjNS_15FontOrientationE
__ZN3WTF9HashTableIjNS_12KeyValuePairIjNS_9RetainPtrIPK14__CFDictionaryEEEENS_24KeyValuePairKeyExtractorIS7_EENS_7IntHashIjEENS_18HashMapValueTraitsINS_10HashTraitsIjEENSD_IS6_EEEESE_E16lookupForWritingINS_22IdentityHashTranslatorISB_EEjEENSt3__14pairIPS7_bEERKT0_
__ZN3WTF9HashTableIjNS_12KeyValuePairIjNS_9RetainPtrIPK14__CFDictionaryEEEENS_24KeyValuePairKeyExtractorIS7_EENS_7IntHashIjEENS_18HashMapValueTraitsINS_10HashTraitsIjEENSD_IS6_EEEESE_E3addINS_17HashMapTranslatorISG_SB_EEjS6_EENS_18HashTableAddResultINS_17HashTableIteratorIjS7_S9_SB_SG_SE_EEEERKT0_RKT1_
__ZN3WTF9HashTableIjNS_12KeyValuePairIjNS_9RetainPtrIPK14__CFDictionaryEEEENS_24KeyValuePairKeyExtractorIS7_EENS_7IntHashIjEENS_18HashMapValueTraitsINS_10HashTraitsIjEENSD_IS6_EEEESE_E6lookupINS_22IdentityHashTranslatorISB_EEjEEPS7_RKT0_
__ZN3WTF9HashTableIjNS_12KeyValuePairIjNS_9RetainPtrIPK14__CFDictionaryEEEENS_24KeyValuePairKeyExtractorIS7_EENS_7IntHashIjEENS_18HashMapValueTraitsINS_10HashTraitsIjEENSD_IS6_EEEESE_E6rehashEi
__ZNK7CyberCore16FontPlatformData15allowsLigaturesEv
__ZN7CyberCoreL26provideStringAndAttributesElPlPPK14__CFDictionaryPv
__ZN3WTF6VectorINS_9RetainPtrIPK8__CTLineEELm0ENS_15CrashOnOverflowEE15reserveCapacityEm
__ZN7CyberCore21ComplexTextController14ComplexTextRunC2EPK7__CTRunPKNS_14SimpleFontDataEPKtjm7CFRange
__ZN7CyberCore21ComplexTextController23adjustGlyphsAndAdvancesEv
__ZNK7CyberCore14SimpleFontData22platformBoundsForGlyphEt
__ZN3WTF6OwnPtrIN7CyberCore15GlyphMetricsMapINS1_9FloatRectEEEEaSERKNS_10PassOwnPtrIS4_EE
__ZN3WTF10PassOwnPtrIN7CyberCore15GlyphMetricsMapINS1_9FloatRectEEEED2Ev
__ZN7CyberCore15GlyphMetricsMapINS_9FloatRectEE18locatePageSlowCaseEj
__ZN7CyberCore21ComplexTextControllerD2Ev
__ZN3WTF6VectorINS_6RefPtrIN7CyberCore21ComplexTextController14ComplexTextRunEEELm16ENS_15CrashOnOverflowEED2Ev
__ZN7CyberCore21ComplexTextController14ComplexTextRunD2Ev
__ZN7CyberCore15GraphicsContextC1EP9CGContext
__ZN7CyberCore15GraphicsContext12platformInitEP9CGContext
__ZN7CyberCore15GraphicsContext19setPaintingDisabledEb
__ZNK7CyberCore15GraphicsContext9fillColorEv
__ZNK7CyberCore15GraphicsContext14fillColorSpaceEv
__ZNK7CyberCore15GraphicsContext16paintingDisabledEv
__ZN7CyberCore13cachedCGColorERKNS_5ColorENS_10ColorSpaceE
__ZNK7CyberCore5Color7getRGBAERdS1_S1_S1_
__ZN7CyberCore22deviceRGBColorSpaceRefEv
__ZNK7CyberCore15GraphicsContext11strokeColorEv
__ZNK7CyberCore15GraphicsContext16strokeColorSpaceEv
__ZN7CyberCore8makeRGBAEiiii
__ZN7CyberCore15GraphicsContext12setFillColorERKNS_5ColorENS_10ColorSpaceE
__ZN7CyberCore15GraphicsContext20setPlatformFillColorERKNS_5ColorENS_10ColorSpaceE
__ZNK7CyberCore4Font8drawTextEPNS_15GraphicsContextERKNS_7TextRunERKNS_10FloatPointEiiNS0_24CustomFontNotReadyActionE
__ZNK7CyberCore4Font15drawComplexTextEPNS_15GraphicsContextERKNS_7TextRunERKNS_10FloatPointEii
__ZNK7CyberCore4Font34getGlyphsAndAdvancesForComplexTextERKNS_7TextRunEiiRNS_11GlyphBufferENS0_20ForTextEmphasisOrNotE
__ZN7CyberCore21ComplexTextController7advanceEjPNS_11GlyphBufferENS_19GlyphIterationStyleEPN3WTF7HashSetIPKNS_14SimpleFontDataENS4_7PtrHashIS8_EENS4_10HashTraitsIS8_EEEE
__ZN7CyberCore21ComplexTextController17indexOfCurrentRunERj
__ZN7CyberCore11GlyphBuffer3addEtPKNS_14SimpleFontDataENS_18GlyphBufferAdvanceE
__ZNK7CyberCore4Font15drawGlyphBufferEPNS_15GraphicsContextERKNS_7TextRunERKNS_11GlyphBufferERKNS_10FloatPointE
__ZNK7CyberCore4Font10drawGlyphsEPNS_15GraphicsContextEPKNS_14SimpleFontDataERKNS_11GlyphBufferEiiRKNS_10FloatPointE
__ZNK7CyberCore15GraphicsContext15platformContextEv
__ZN7CyberCore4Font18shouldUseSmoothingEv
__ZNK7CyberCore15GraphicsContext27shouldSubpixelQuantizeFontsEv
__ZNK7CyberCore15GraphicsContext9getShadowERNS_9FloatSizeERfRNS_5ColorERNS_10ColorSpaceE
__ZNK7CyberCore15GraphicsContext6getCTMENS0_18IncludeDeviceScaleE
__ZN7CyberCore15AffineTransformC1ERK17CGAffineTransform
__ZN7CyberCore15AffineTransform9setMatrixEdddddd
__ZNK7CyberCore15GraphicsContext15textDrawingModeEv
__ZN7CyberCoreL22showGlyphsWithAdvancesERKNS_10FloatPointEPKNS_14SimpleFontDataEP9CGContextPKtPK6CGSizem
__ZN7CyberCore15GraphicsContextD1Ev
__ZN7CyberCore15GraphicsContext15platformDestroyEv
__ZN7CyberCore20GraphicsContextStateD2Ev
__ZN7CyberCore23dataForURLComponentTypeEP5NSURLl
__ZN7CyberCore14decodeHostNameEP8NSString
__ZN7CyberCore10IconRecord5imageERKNS_7IntSizeE
__ZN7CyberCore11BitmapImage15getCGImageArrayEv
__ZN7CyberCore11BitmapImage10frameCountEv
__ZNK7CyberCore11ImageSource10frameCountEv
__ZN7CyberCore11BitmapImage12frameAtIndexEm
__ZN7CyberCore11BitmapImage10cacheFrameEm
__ZN7CyberCore11ImageSource18createFrameAtIndexEm
__ZN7CyberCore11BitmapImage18checkForSolidColorEv
__ZNK7CyberCore11ImageSource18orientationAtIndexEm
__ZN7CyberCore11ImageSource22frameIsCompleteAtIndexEm
__ZN7CyberCore11ImageSource15repetitionCountEv
__ZN7CyberCore11ImageSource20frameHasAlphaAtIndexEm
__ZNK7CyberCore11ImageSource17frameBytesAtIndexEm
__ZNK7CyberCore11ImageSource16frameSizeAtIndexEmNS_27RespectImageOrientationEnumE
__ZN7CyberCore12IconDatabase24getOrCreatePageURLRecordERKN3WTF6StringE
__ZN3WTF6VectorIN7CyberCore9FrameDataELm1ENS_15CrashOnOverflowEE15reserveCapacityEm
__ZN7CyberCore4Font21setShouldUseSmoothingEb
__ZN7CyberCore15StringTruncator13rightTruncateERKN3WTF6StringEfRKNS_4FontENS0_24EnableRoundingHacksOrNotE
__ZN7CyberCoreL21rightTruncateToBufferERKN3WTF6StringEjjPt
__ZN3WTF9HashTableIiNS_12KeyValuePairIiNS_6OwnPtrIN7CyberCore15GlyphMetricsMapINS3_9FloatRectEE16GlyphMetricsPageEEEEENS_24KeyValuePairKeyExtractorIS9_EENS_7IntHashIjEENS_18HashMapValueTraitsINS_10HashTraitsIiEENSF_IS8_EEEESG_E16lookupForWritingINS_22IdentityHashTranslatorISD_EEiEENSt3__14pairIPS9_bEERKT0_
__ZN3WTF9HashTableIiNS_12KeyValuePairIiNS_6OwnPtrIN7CyberCore15GlyphMetricsMapINS3_9FloatRectEE16GlyphMetricsPageEEEEENS_24KeyValuePairKeyExtractorIS9_EENS_7IntHashIjEENS_18HashMapValueTraitsINS_10HashTraitsIiEENSF_IS8_EEEESG_E3addINS_17HashMapTranslatorISI_SD_EEiNS_10PassOwnPtrIS7_EEEENS_18HashTableAddResultINS_17HashTableIteratorIiS9_SB_SD_SI_SG_EEEERKT0_RKT1_
__ZN3WTF9HashTableIiNS_12KeyValuePairIiNS_6OwnPtrIN7CyberCore15GlyphMetricsMapINS3_9FloatRectEE16GlyphMetricsPageEEEEENS_24KeyValuePairKeyExtractorIS9_EENS_7IntHashIjEENS_18HashMapValueTraitsINS_10HashTraitsIiEENSF_IS8_EEEESG_E6lookupINS_22IdentityHashTranslatorISD_EEiEEPS9_RKT0_
__ZN3WTF9HashTableIiNS_12KeyValuePairIiNS_6OwnPtrIN7CyberCore15GlyphMetricsMapINS3_9FloatRectEE16GlyphMetricsPageEEEEENS_24KeyValuePairKeyExtractorIS9_EENS_7IntHashIjEENS_18HashMapValueTraitsINS_10HashTraitsIiEENSF_IS8_EEEESG_E6rehashEi
__ZN7CyberCore10WidthCache11addSlowCaseERKNS_7TextRunEf
__ZN3WTF9HashTableIjNS_12KeyValuePairIjfEENS_24KeyValuePairKeyExtractorIS2_EENS_7IntHashIjEENS_18HashMapValueTraitsINS_29UnsignedWithZeroKeyHashTraitsIjEENS_10HashTraitsIfEEEES9_E16lookupForWritingINS_22IdentityHashTranslatorIS6_EEjEENSt3__14pairIPS2_bEERKT0_
__ZN3WTF9HashTableIjNS_12KeyValuePairIjfEENS_24KeyValuePairKeyExtractorIS2_EENS_7IntHashIjEENS_18HashMapValueTraitsINS_29UnsignedWithZeroKeyHashTraitsIjEENS_10HashTraitsIfEEEES9_E3addINS_17HashMapTranslatorISC_S6_EEjfEENS_18HashTableAddResultINS_17HashTableIteratorIjS2_S4_S6_SC_S9_EEEERKT0_RKT1_
__ZN3WTF9HashTableIjNS_12KeyValuePairIjfEENS_24KeyValuePairKeyExtractorIS2_EENS_7IntHashIjEENS_18HashMapValueTraitsINS_29UnsignedWithZeroKeyHashTraitsIjEENS_10HashTraitsIfEEEES9_E6lookupINS_22IdentityHashTranslatorIS6_EEjEEPS2_RKT0_
__ZN3WTF9HashTableIjNS_12KeyValuePairIjfEENS_24KeyValuePairKeyExtractorIS2_EENS_7IntHashIjEENS_18HashMapValueTraitsINS_29UnsignedWithZeroKeyHashTraitsIjEENS_10HashTraitsIfEEEES9_E6rehashEi
__ZN7CyberCore11memoryCacheEv
__ZN7CyberCore11MemoryCache13setCapacitiesEjjj
__ZN7CyberCore11MemoryCache5pruneEv
__ZN7CyberCore9PageCache11setCapacityEi
__ZN7CyberCoreL15performWorkItemEPv
__ZN7CyberCore17FinishedURLImport11performWorkEv
__ZN7CyberCore17FinishedURLImportD0Ev
__ZN7CyberCore12IconDatabase38notifyPendingLoadDecisionsOnMainThreadEPv
__ZN7CyberCore12IconDatabase26notifyPendingLoadDecisionsEv
__ZN7CyberCore12IconDatabase43performScheduleOrDeferSyncTimerOnMainThreadEPv
__ZN7CyberCore9TimerBase5startEdd
__ZN7CyberCore9TimerBase15setNextFireTimeEd
__ZN3WTF14ThreadSpecificIN7CyberCore16ThreadGlobalDataEEcvPS2_Ev
__ZN7CyberCore16ThreadGlobalDataC1Ev
__ZN7CyberCore16ThreadGlobalDataC2Ev
__ZN7CyberCore31CachedResourceRequestInitiatorsC1Ev
__ZN3WTF10PassOwnPtrIN7CyberCore31CachedResourceRequestInitiatorsEED2Ev
__ZN7CyberCore10EventNamesC1Ev
__ZN7CyberCore10EventNamesC2Ev
__ZN7CyberCore12ThreadTimersC1Ev
__ZN7CyberCore12ThreadTimers14setSharedTimerEPNS_11SharedTimerE
__ZN7CyberCore21MainThreadSharedTimer16setFiredFunctionEPFvvE
__ZN7CyberCore27setSharedTimerFiredFunctionEPFvvE
__ZN7CyberCore21MainThreadSharedTimer4stopEv
__ZN7CyberCore15stopSharedTimerEv
__ZN7CyberCore28ThreadLocalInspectorCountersC1Ev
__ZN3WTF14ThreadSpecificINS_13WTFThreadDataEEcvPS1_Ev
__ZNK7CyberCore9TimerBase15alignedFireTimeEd
__ZN7CyberCore9TimerBase18updateHeapIfNeededEd
__ZNK7CyberCore9TimerBase20hasValidHeapPositionEv
__ZN3WTF6VectorIPN7CyberCore9TimerBaseELm0ENS_15CrashOnOverflowEE14expandCapacityEmPKS3_
__ZN3WTF6VectorIPN7CyberCore9TimerBaseELm0ENS_15CrashOnOverflowEE15reserveCapacityEm
__ZNSt3__116__push_heap_backIRN7CyberCore25TimerHeapLessThanFunctionENS1_17TimerHeapIteratorEEEvT0_S5_T_NS_15iterator_traitsIS5_E15difference_typeE
__ZN7CyberCore12ThreadTimers17updateSharedTimerEv
__ZN7CyberCore21MainThreadSharedTimer15setFireIntervalEd
__ZN7CyberCore26setSharedTimerFireIntervalEd
__ZN7CyberCore34ImportedIconDataForPageURLWorkItem11performWorkEv
__ZN7CyberCore34ImportedIconDataForPageURLWorkItemD0Ev
__ZN7CyberCore7RunLoop7currentEv
____ZN7CyberCore21MemoryPressureHandler7installEv_block_invoke
__ZN7CyberCore11toUserSpaceERK6CGRectP8NSWindow
__ZN7CyberCore7RunLoop9TimerBase10timerFiredEP16__CFRunLoopTimerPv
__ZN7CyberCore7RunLoop9TimerBase4stopEv
__ZN7CyberCore11BitmapImage24getFirstCGImageRefOfSizeERKNS_7IntSizeE
__ZN7CyberCore11ImageSource20frameDurationAtIndexEm
__ZN7CyberCore11BitmapImage13getCGImageRefEv
__ZN7CyberCoreL10timerFiredEP16__CFRunLoopTimerPv
__ZN7CyberCore12ThreadTimers16sharedTimerFiredEv
__ZN7CyberCore12ThreadTimers24sharedTimerFiredInternalEv
__ZN7CyberCore9TimerBase13heapDeleteMinEv
__ZN7CyberCore9TimerBase10heapPopMinEv
__ZN7CyberCore5TimerINS_12IconDatabaseEE5firedEv
__ZN7CyberCore12IconDatabase14syncTimerFiredEPNS_5TimerIS0_EE
__ZN7CyberCore8IntPointC1ERK7CGPoint
__ZN7CyberCore14SQLiteDatabase14clearAllTablesEv
__ZN7CyberCore15SQLiteStatement17returnTextResultsEiRN3WTF6VectorINS1_6StringELm0ENS1_15CrashOnOverflowEEE
__ZN7CyberCore14SQLiteDatabase9lastErrorEv
__ZN7CyberCoreL20createDatabaseTablesERNS_14SQLiteDatabaseE
__ZN3WTFplINS_6StringEEENS_12StringAppendIS1_T_EERKS1_S3_
__ZN3WTFplINS_6StringES1_PKcEENS_12StringAppendINS4_IT_T0_EET1_EERKS7_S8_
__ZNK3WTF12StringAppendINS0_INS_6StringES1_EEPKcEcvS1_Ev
__ZN3WTF13tryMakeStringINS_12StringAppendINS_6StringES2_EEPKcEENS_10PassRefPtrINS_10StringImplEEET_T0_
__ZN7CyberCore17excludeFromBackupERKN3WTF6StringE
__ZN7CyberCore9pathAsURLERKN3WTF6StringE
__ZN7CyberCore12IconDatabase24setWasExcludedFromBackupEv
__ZN7CyberCore7RunLoop8dispatchERKN3WTF8FunctionIFvvEEE
__ZN3WTF5DequeINS_8FunctionIFvvEEELm0EE14expandCapacityEv
__ZN7CyberCore7RunLoop6wakeUpEv
__ZN7CyberCore15ResourceRequest23doUpdateResourceRequestEv
__ZN7CyberCore4KURLC1EP5NSURL
__ZN7CyberCore4KURLC2EP5NSURL
__ZN7CyberCore7RunLoop11performWorkEPv
__ZN7CyberCore7RunLoop11performWorkEv
__ZN7CyberCore15ResourceRequest13partitionNameERKN3WTF6StringE
__ZN7CyberCore28topPrivatelyControlledDomainERKN3WTF6StringE
__ZN7CyberCore19ResourceRequestBase50setResponseContentDispositionEncodingFallbackArrayERKN3WTF6StringES4_S4_
__ZN3WTF12AtomicString3addEPK10__CFString
__ZN3WTF17HashMapTranslatorINS_18HashMapValueTraitsINS_10HashTraitsINS_12AtomicStringEEENS2_INS_6StringEEEEENS_15CaseFoldingHashEE9translateINS_12KeyValuePairIS3_S5_EES3_S5_EEvRT_RKT0_RKT1_
__ZN7CyberCore12IconDatabase21releaseIconForPageURLERKN3WTF6StringE
__ZN7CyberCore5Image12supportsTypeERKN3WTF6StringE
__ZN7CyberCore16MIMETypeRegistry32isSupportedImageResourceMIMETypeERKN3WTF6StringE
__ZN7CyberCoreL26initializeMIMETypeRegistryEv
__ZN7CyberCore14ArchiveFactory29registerKnownArchiveMIMETypesEv
__ZN7CyberCore16MIMETypeRegistry29getSupportedNonImageMIMETypesEv
__ZN7CyberCoreL16archiveMIMETypesEv
__ZN3WTF9HashTableINS_6StringENS_12KeyValuePairIS1_PFNS_10PassRefPtrIN7CyberCore7ArchiveEEERKNS4_4KURLEPNS4_12SharedBufferEEEENS_24KeyValuePairKeyExtractorISE_EENS_15CaseFoldingHashENS_18HashMapValueTraitsINS_10HashTraitsIS1_EENSJ_ISD_EEEESK_E16lookupForWritingINS_22IdentityHashTranslatorISH_EES1_EENSt3__14pairIPSE_bEERKT0_
__ZN3WTF9HashTableINS_6StringENS_12KeyValuePairIS1_PFNS_10PassRefPtrIN7CyberCore7ArchiveEEERKNS4_4KURLEPNS4_12SharedBufferEEEENS_24KeyValuePairKeyExtractorISE_EENS_15CaseFoldingHashENS_18HashMapValueTraitsINS_10HashTraitsIS1_EENSJ_ISD_EEEESK_E3addINS_17HashMapTranslatorISM_SH_EES1_SD_EENS_18HashTableAddResultINS_17HashTableIteratorIS1_SE_SG_SH_SM_SK_EEEERKT0_RKT1_
__ZN3WTF9HashTableINS_6StringENS_12KeyValuePairIS1_PFNS_10PassRefPtrIN7CyberCore7ArchiveEEERKNS4_4KURLEPNS4_12SharedBufferEEEENS_24KeyValuePairKeyExtractorISE_EENS_15CaseFoldingHashENS_18HashMapValueTraitsINS_10HashTraitsIS1_EENSJ_ISD_EEEESK_E6rehashEi
__ZN7CyberCore26MIMETypeForImageSourceTypeERKN3WTF6StringE
__ZN7CyberCore15visitedLinkHashERKN3WTF6StringE
__ZN7CyberCore6Cursor8fromTypeENS0_4TypeE
__ZNK7CyberCore6Cursor14platformCursorEv
__ZNK7CyberCore6Cursor20ensurePlatformCursorEv
__ZN7CyberCore6CursoraSERKS0_
__ZN7CyberCore6CursorD1Ev
__ZN7CyberCore12IconDatabase33synchronousLoadDecisionForIconURLERKN3WTF6StringEPNS_14DocumentLoaderE
__ZN7CyberCore12IconDatabase20setIconURLForPageURLERKN3WTF6StringES4_
__ZNK7CyberCore13PageURLRecord8snapshotEb
__ZN3WTF9HashTableINS_6StringENS_12KeyValuePairIS1_N7CyberCore15PageURLSnapshotEEENS_24KeyValuePairKeyExtractorIS5_EENS_10StringHashENS_18HashMapValueTraitsINS_10HashTraitsIS1_EENSA_IS4_EEEESB_E15deallocateTableEPS5_i
__ZN3WTF9HashTableINS_6StringENS_12KeyValuePairIS1_N7CyberCore15PageURLSnapshotEEENS_24KeyValuePairKeyExtractorIS5_EENS_10StringHashENS_18HashMapValueTraitsINS_10HashTraitsIS1_EENSA_IS4_EEEESB_E16lookupForWritingINS_22IdentityHashTranslatorIS8_EES1_EENSt3__14pairIPS5_bEERKT0_
__ZN3WTF9HashTableINS_6StringENS_12KeyValuePairIS1_N7CyberCore15PageURLSnapshotEEENS_24KeyValuePairKeyExtractorIS5_EENS_10StringHashENS_18HashMapValueTraitsINS_10HashTraitsIS1_EENSA_IS4_EEEESB_E3addINS_17HashMapTranslatorISD_S8_EES1_S4_EENS_18HashTableAddResultINS_17HashTableIteratorIS1_S5_S7_S8_SD_SB_EEEERKT0_RKT1_
__ZN3WTF9HashTableINS_6StringENS_12KeyValuePairIS1_N7CyberCore15PageURLSnapshotEEENS_24KeyValuePairKeyExtractorIS5_EENS_10StringHashENS_18HashMapValueTraitsINS_10HashTraitsIS1_EENSA_IS4_EEEESB_E6lookupINS_22IdentityHashTranslatorIS8_EES1_EEPS5_RKT0_
__ZN3WTF9HashTableINS_6StringENS_12KeyValuePairIS1_N7CyberCore15PageURLSnapshotEEENS_24KeyValuePairKeyExtractorIS5_EENS_10StringHashENS_18HashMapValueTraitsINS_10HashTraitsIS1_EENSA_IS4_EEEESB_E6rehashEi
__ZN3WTF17GenericHashTraitsIN7CyberCore15PageURLSnapshotEE5storeERKS2_RS2_
__ZN3WTF6VectorIN7CyberCore15PageURLSnapshotELm0ENS_15CrashOnOverflowEE14expandCapacityEmPKS2_
__ZN3WTF6VectorIN7CyberCore15PageURLSnapshotELm0ENS_15CrashOnOverflowEE15reserveCapacityEm
__ZN3WTF11VectorMoverILb0EN7CyberCore15PageURLSnapshotEE4moveEPKS2_S5_PS2_
__ZN7CyberCore12IconDatabase34getIconIDForIconURLFromSQLDatabaseERKN3WTF6StringE
__ZN7CyberCore12IconDatabase23addIconURLToSQLDatabaseERKN3WTF6StringE
__ZN7CyberCore14SQLiteDatabase15lastInsertRowIDEv
__ZN7CyberCore15SQLiteStatement9bindInt64Eix
__ZN7CyberCore12IconDatabase32setIconIDForPageURLInSQLDatabaseExRKN3WTF6StringE
__ZN7CyberCore12IconDatabase24checkForDanglingPageURLsEb
__ZN7CyberCore15SQLiteStatement23returnsAtLeastOneResultEv
__ZN7CyberCore12SharedBufferC1EPKhi
__ZN7CyberCore12IconDatabase21setIconDataForIconURLEN3WTF10PassRefPtrINS_12SharedBufferEEERKNS1_6StringE
__ZNK7CyberCore12SharedBuffer4copyEv
__ZN7CyberCore11BitmapImageD0Ev
__ZN7CyberCore11BitmapImageD2Ev
__ZN7CyberCore11BitmapImage13stopAnimationEv
__ZN7CyberCore11ImageSourceD1Ev
__ZN7CyberCore5ImageD2Ev
__ZN7CyberCore12SharedBufferD1Ev
__ZN7CyberCore12SharedBufferD2Ev
__ZN7CyberCore12SharedBuffer5clearEv
__ZN7CyberCore12SharedBuffer17clearPlatformDataEv
__ZNK7CyberCore10IconRecord8snapshotEb
__ZN3WTF9HashTableINS_6StringENS_12KeyValuePairIS1_N7CyberCore12IconSnapshotEEENS_24KeyValuePairKeyExtractorIS5_EENS_10StringHashENS_18HashMapValueTraitsINS_10HashTraitsIS1_EENSA_IS4_EEEESB_E15deallocateTableEPS5_i
__ZN3WTF9HashTableINS_6StringENS_12KeyValuePairIS1_N7CyberCore12IconSnapshotEEENS_24KeyValuePairKeyExtractorIS5_EENS_10StringHashENS_18HashMapValueTraitsINS_10HashTraitsIS1_EENSA_IS4_EEEESB_E16lookupForWritingINS_22IdentityHashTranslatorIS8_EES1_EENSt3__14pairIPS5_bEERKT0_
__ZN3WTF9HashTableINS_6StringENS_12KeyValuePairIS1_N7CyberCore12IconSnapshotEEENS_24KeyValuePairKeyExtractorIS5_EENS_10StringHashENS_18HashMapValueTraitsINS_10HashTraitsIS1_EENSA_IS4_EEEESB_E3addINS_17HashMapTranslatorISD_S8_EES1_S4_EENS_18HashTableAddResultINS_17HashTableIteratorIS1_S5_S7_S8_SD_SB_EEEERKT0_RKT1_
__ZN3WTF9HashTableINS_6StringENS_12KeyValuePairIS1_N7CyberCore12IconSnapshotEEENS_24KeyValuePairKeyExtractorIS5_EENS_10StringHashENS_18HashMapValueTraitsINS_10HashTraitsIS1_EENSA_IS4_EEEESB_E6lookupINS_22IdentityHashTranslatorIS8_EES1_EEPS5_RKT0_
__ZN3WTF9HashTableINS_6StringENS_12KeyValuePairIS1_N7CyberCore12IconSnapshotEEENS_24KeyValuePairKeyExtractorIS5_EENS_10StringHashENS_18HashMapValueTraitsINS_10HashTraitsIS1_EENSA_IS4_EEEESB_E6rehashEi
__ZN3WTF17GenericHashTraitsIN7CyberCore12IconSnapshotEE5storeERKS2_RS2_
__ZN7CyberCore20builtInPDFPluginNameEv
__ZN7CyberCore15localizedStringEPKc
__ZN7CyberCore26pdfDocumentTypeDescriptionEv
__ZN7CyberCore33postScriptDocumentTypeDescriptionEv
__ZN7CyberCore19applicationIsSafariEv
__ZN7CyberCore14SecurityOrigin6createERKN3WTF6StringES4_i
__ZN7CyberCore24decodeURLEscapeSequencesERKN3WTF6StringE
__ZN7CyberCore21decodeEscapeSequencesINS_17URLEscapeSequenceEEEN3WTF6StringERKS3_RKNS_12TextEncodingE
__ZN3WTFplINS_12StringAppendINS_6StringEPKcEES2_S4_EENS1_INS1_IT_T0_EET1_EERKS8_S9_
__ZN3WTFplINS_12StringAppendINS1_INS_6StringEPKcEES2_EES4_S2_EENS1_INS1_IT_T0_EET1_EERKS9_SA_
__ZN3WTFplINS_12StringAppendINS1_INS1_INS_6StringEPKcEES2_EES4_EES2_S4_EENS1_INS1_IT_T0_EET1_EERKSA_SB_
__ZNK3WTF12StringAppendINS0_INS0_INS0_INS0_INS_6StringEPKcEES1_EES3_EES1_EES3_EcvS1_Ev
__ZN3WTF13tryMakeStringINS_12StringAppendINS1_INS1_INS1_INS_6StringEPKcEES2_EES4_EES2_EES4_EENS_10PassRefPtrINS_10StringImplEEET_T0_
__ZN3WTF12StringAppendINS0_INS0_INS0_INS_6StringEPKcEES1_EES3_EES1_E7writeToEPh
__ZN3WTF12StringAppendINS0_INS_6StringEPKcEES1_E7writeToEPh
__ZN7CyberCore14SecurityOrigin6createERKNS_4KURLE
__ZNK7CyberCore4KURL10protocolIsEPKc
__ZNK7CyberCore4KURL4hostEv
__ZNK7CyberCore4KURL8protocolEv
__ZN7CyberCore14SchemeRegistry30shouldTreatURLSchemeAsNoAccessERKN3WTF6StringE
__ZN7CyberCoreL24schemesWithUniqueOriginsEv
__ZNK3WTF7HashSetINS_6StringENS_15CaseFoldingHashENS_10HashTraitsIS1_EEE8containsERKS1_
__ZN7CyberCore14SecurityOriginC2ERKNS_4KURLE
__ZNK7CyberCore4KURL4portEv
__ZN7CyberCore24isDefaultPortForProtocolEtRKN3WTF6StringE
__ZN3WTF9HashTableINS_6StringENS_12KeyValuePairIS1_jEENS_24KeyValuePairKeyExtractorIS3_EENS_15CaseFoldingHashENS_18HashMapValueTraitsINS_10HashTraitsIS1_EENS8_IjEEEES9_E16lookupForWritingINS_22IdentityHashTranslatorIS6_EES1_EENSt3__14pairIPS3_bEERKT0_
__ZN3WTF9HashTableINS_6StringENS_12KeyValuePairIS1_jEENS_24KeyValuePairKeyExtractorIS3_EENS_15CaseFoldingHashENS_18HashMapValueTraitsINS_10HashTraitsIS1_EENS8_IjEEEES9_E3addINS_17HashMapTranslatorISB_S6_EES1_jEENS_18HashTableAddResultINS_17HashTableIteratorIS1_S3_S5_S6_SB_S9_EEEERKT0_RKT1_
__ZN3WTF9HashTableINS_6StringENS_12KeyValuePairIS1_jEENS_24KeyValuePairKeyExtractorIS3_EENS_15CaseFoldingHashENS_18HashMapValueTraitsINS_10HashTraitsIS1_EENS8_IjEEEES9_E6rehashEi
__ZN7CyberCore14SchemeRegistry27shouldTreatURLSchemeAsLocalERKN3WTF6StringE
__ZN7CyberCoreL15localURLSchemesEv
__ZN7CyberCore10StorageMap6createEj
__ZNK7CyberCore14SecurityOrigin18databaseIdentifierEv
__ZN3WTF13StringBuilder6appendERKNS_6StringE
__ZN7CyberCore17encodeForFileNameERKN3WTF6StringE
__ZN7CyberCore15SQLiteStatement22isColumnDeclaredAsBlobEi
__ZN7CyberCore15SQLiteStatement21getColumnBlobAsStringEi
__ZN7CyberCore10StorageMap11importItemsERKN3WTF7HashMapINS1_6StringES3_NS1_10StringHashENS1_10HashTraitsIS3_EES6_EE
__ZN3WTF9HashTableINS_6StringENS_12KeyValuePairIS1_S1_EENS_24KeyValuePairKeyExtractorIS3_EENS_10StringHashENS_18HashMapValueTraitsINS_10HashTraitsIS1_EES9_EES9_E15deallocateTableEPS3_i
__ZN3WTF9HashTableINS_6StringENS_12KeyValuePairIS1_S1_EENS_24KeyValuePairKeyExtractorIS3_EENS_10StringHashENS_18HashMapValueTraitsINS_10HashTraitsIS1_EES9_EES9_E16lookupForWritingINS_22IdentityHashTranslatorIS6_EES1_EENSt3__14pairIPS3_bEERKT0_
__ZN3WTF9HashTableINS_6StringENS_12KeyValuePairIS1_S1_EENS_24KeyValuePairKeyExtractorIS3_EENS_10StringHashENS_18HashMapValueTraitsINS_10HashTraitsIS1_EES9_EES9_E34removeWithoutEntryConsistencyCheckENS_17HashTableIteratorIS1_S3_S5_S6_SA_S9_EE
__ZN3WTF9HashTableINS_6StringENS_12KeyValuePairIS1_S1_EENS_24KeyValuePairKeyExtractorIS3_EENS_10StringHashENS_18HashMapValueTraitsINS_10HashTraitsIS1_EES9_EES9_E3addINS_17HashMapTranslatorISA_S6_EES1_S1_EENS_18HashTableAddResultINS_17HashTableIteratorIS1_S3_S5_S6_SA_S9_EEEERKT0_RKT1_
__ZN3WTF9HashTableINS_6StringENS_12KeyValuePairIS1_S1_EENS_24KeyValuePairKeyExtractorIS3_EENS_10StringHashENS_18HashMapValueTraitsINS_10HashTraitsIS1_EES9_EES9_E3addINS_22IdentityHashTranslatorIS6_EES1_S3_EENS_18HashTableAddResultINS_17HashTableIteratorIS1_S3_S5_S6_SA_S9_EEEERKT0_RKT1_
__ZN3WTF9HashTableINS_6StringENS_12KeyValuePairIS1_S1_EENS_24KeyValuePairKeyExtractorIS3_EENS_10StringHashENS_18HashMapValueTraitsINS_10HashTraitsIS1_EES9_EES9_E6lookupINS_22IdentityHashTranslatorIS6_EES1_EEPS3_RKT0_
__ZN3WTF9HashTableINS_6StringENS_12KeyValuePairIS1_S1_EENS_24KeyValuePairKeyExtractorIS3_EENS_10StringHashENS_18HashMapValueTraitsINS_10HashTraitsIS1_EES9_EES9_E6rehashEi
__ZN3WTF9HashTableINS_6StringENS_12KeyValuePairIS1_S1_EENS_24KeyValuePairKeyExtractorIS3_EENS_10StringHashENS_18HashMapValueTraitsINS_10HashTraitsIS1_EES9_EES9_EaSERKSB_
__ZN3WTF17HashMapTranslatorINS_18HashMapValueTraitsINS_10HashTraitsINS_6StringEEES4_EENS_10StringHashEE9translateINS_12KeyValuePairIS3_S3_EES3_S3_EEvRT_RKT0_RKT1_
__ZN7CyberCore10StorageMap7setItemERKN3WTF6StringES4_RS2_Rb
__ZN3WTF6VectorIN7CyberCore12IconSnapshotELm0ENS_15CrashOnOverflowEE14expandCapacityEmPKS2_
__ZN3WTF6VectorIN7CyberCore12IconSnapshotELm0ENS_15CrashOnOverflowEE15reserveCapacityEm
__ZN7CyberCore12IconDatabase30writeIconSnapshotToSQLDatabaseERKNS_12IconSnapshotE
__ZN7CyberCore15SQLiteStatement14getColumnInt64Ei
__ZN7CyberCore15SQLiteStatement8bindBlobEiPKvi
__ZN3WTF6VectorIN7CyberCore12IconSnapshotELm0ENS_15CrashOnOverflowEE6shrinkEm
__ZN7CyberCore15SQLiteStatement8bindBlobEiRKN3WTF6StringE
__ZNK7CyberCore4KURL17lastPathComponentEv
__ZN7CyberCore13ResourceErrorC1EP7NSError
__ZN7CyberCore13ResourceErrorC2EP7NSError
__ZNK7CyberCore17ResourceErrorBase8lazyInitEv
__ZN7CyberCore13ResourceError16platformLazyInitEv
__ZNK7CyberCore4KURL12baseAsStringEv
__ZNK7CyberCore4KURL14fileSystemPathEv
__ZN7CyberCore21setPlatformStrategiesEPNS_18PlatformStrategiesE
__ZN3WTF6VectorIcLm0ENS_15CrashOnOverflowEE14expandCapacityEmPKc
__ZN7CyberCore10StorageMap10removeItemERKN3WTF6StringERS2_
__ZN3WTF7HashMapINS_6StringES1_NS_10StringHashENS_10HashTraitsIS1_EES4_E4takeERKS1_
__ZN3WTF13hashTableSwapINS_6StringEN7CyberCore15PageURLSnapshotEEEvRNS_12KeyValuePairIT_T0_EES8_
__ZNK7CyberCore14SecurityOrigin5equalEPKS0_
__ZN7CyberCore30SurrogatePairAwareTextIterator15consumeSlowCaseERiRj
__ZN7CyberCore9FontCache27systemFallbackForCharactersERKNS_15FontDescriptionEPKNS_14SimpleFontDataEbPKti
__ZN7CyberCore4Font22isCJKIdeographOrSymbolEi
__ZN3WTF9HashTableIiNS_12KeyValuePairIiNS_6OwnPtrIN7CyberCore15GlyphMetricsMapIfE16GlyphMetricsPageEEEEENS_24KeyValuePairKeyExtractorIS8_EENS_7IntHashIjEENS_18HashMapValueTraitsINS_10HashTraitsIiEENSE_IS7_EEEESF_E16lookupForWritingINS_22IdentityHashTranslatorISC_EEiEENSt3__14pairIPS8_bEERKT0_
__ZN3WTF9HashTableIiNS_12KeyValuePairIiNS_6OwnPtrIN7CyberCore15GlyphMetricsMapIfE16GlyphMetricsPageEEEEENS_24KeyValuePairKeyExtractorIS8_EENS_7IntHashIjEENS_18HashMapValueTraitsINS_10HashTraitsIiEENSE_IS7_EEEESF_E3addINS_17HashMapTranslatorISH_SC_EEiNS_10PassOwnPtrIS6_EEEENS_18HashTableAddResultINS_17HashTableIteratorIiS8_SA_SC_SH_SF_EEEERKT0_RKT1_
__ZN3WTF9HashTableIiNS_12KeyValuePairIiNS_6OwnPtrIN7CyberCore15GlyphMetricsMapIfE16GlyphMetricsPageEEEEENS_24KeyValuePairKeyExtractorIS8_EENS_7IntHashIjEENS_18HashMapValueTraitsINS_10HashTraitsIiEENSE_IS7_EEEESF_E6lookupINS_22IdentityHashTranslatorISC_EEiEEPS8_RKT0_
__ZN3WTF9HashTableIiNS_12KeyValuePairIiNS_6OwnPtrIN7CyberCore15GlyphMetricsMapIfE16GlyphMetricsPageEEEEENS_24KeyValuePairKeyExtractorIS8_EENS_7IntHashIjEENS_18HashMapValueTraitsINS_10HashTraitsIiEENSE_IS7_EEEESF_E6rehashEi
__ZN3WTF9HashTableIPKN7CyberCore14SimpleFontDataES4_NS_17IdentityExtractorENS_7PtrHashIS4_EENS_10HashTraitsIS4_EES9_E3addINS_22IdentityHashTranslatorIS7_EES4_S4_EENS_18HashTableAddResultINS_17HashTableIteratorIS4_S4_S5_S7_S9_S9_EEEERKT0_RKT1_
__ZN3WTF9HashTableIPKN7CyberCore14SimpleFontDataES4_NS_17IdentityExtractorENS_7PtrHashIS4_EENS_10HashTraitsIS4_EES9_E6rehashEi
__ZN7CyberCore21ComplexTextController14ComplexTextRun17setIsNonMonotonicEv
__ZN7CyberCore7RunLoop37setUseApplicationRunLoopOnMainRunLoopEv
__ZN7CyberCore21ResourceLoadSchedulerC2Ev
__ZN7CyberCore43initializeMaximumHTTPConnectionCountPerHostEv
__ZN7CyberCore9PageGroup9pageGroupERKN3WTF6StringE
__ZN3WTF9HashTableINS_6StringENS_12KeyValuePairIS1_PN7CyberCore9PageGroupEEENS_24KeyValuePairKeyExtractorIS6_EENS_10StringHashENS_18HashMapValueTraitsINS_10HashTraitsIS1_EENSB_IS5_EEEESC_E16lookupForWritingINS_22IdentityHashTranslatorIS9_EES1_EENSt3__14pairIPS6_bEERKT0_
__ZN3WTF9HashTableINS_6StringENS_12KeyValuePairIS1_PN7CyberCore9PageGroupEEENS_24KeyValuePairKeyExtractorIS6_EENS_10StringHashENS_18HashMapValueTraitsINS_10HashTraitsIS1_EENSB_IS5_EEEESC_E3addINS_17HashMapTranslatorISE_S9_EES1_S5_EENS_18HashTableAddResultINS_17HashTableIteratorIS1_S6_S8_S9_SE_SC_EEEERKT0_RKT1_
__ZN3WTF9HashTableINS_6StringENS_12KeyValuePairIS1_PN7CyberCore9PageGroupEEENS_24KeyValuePairKeyExtractorIS6_EENS_10StringHashENS_18HashMapValueTraitsINS_10HashTraitsIS1_EENSB_IS5_EEEESC_E6lookupINS_22IdentityHashTranslatorIS9_EES1_EEPS6_RKT0_
__ZN3WTF9HashTableINS_6StringENS_12KeyValuePairIS1_PN7CyberCore9PageGroupEEENS_24KeyValuePairKeyExtractorIS6_EENS_10StringHashENS_18HashMapValueTraitsINS_10HashTraitsIS1_EENSB_IS5_EEEESC_E6rehashEi
__ZN7CyberCore13GroupSettingsC1Ev
__ZN7CyberCore10WidthCache14SmallStringKeyC2IKtEEPT_t
__ZN3WTF9HashTableIN7CyberCore10WidthCache14SmallStringKeyENS_12KeyValuePairIS3_fEENS_24KeyValuePairKeyExtractorIS5_EENS2_18SmallStringKeyHashENS_18HashMapValueTraitsINS2_24SmallStringKeyHashTraitsENS_10HashTraitsIfEEEESA_E16lookupForWritingINS_22IdentityHashTranslatorIS8_EES3_EENSt3__14pairIPS5_bEERKT0_
__ZN3WTF9HashTableIN7CyberCore10WidthCache14SmallStringKeyENS_12KeyValuePairIS3_fEENS_24KeyValuePairKeyExtractorIS5_EENS2_18SmallStringKeyHashENS_18HashMapValueTraitsINS2_24SmallStringKeyHashTraitsENS_10HashTraitsIfEEEESA_E3addINS_17HashMapTranslatorISD_S8_EES3_fEENS_18HashTableAddResultINS_17HashTableIteratorIS3_S5_S7_S8_SD_SA_EEEERKT0_RKT1_
__ZN3WTF9HashTableIN7CyberCore10WidthCache14SmallStringKeyENS_12KeyValuePairIS3_fEENS_24KeyValuePairKeyExtractorIS5_EENS2_18SmallStringKeyHashENS_18HashMapValueTraitsINS2_24SmallStringKeyHashTraitsENS_10HashTraitsIfEEEESA_E6lookupINS_22IdentityHashTranslatorIS8_EES3_EEPS5_RKT0_
__ZN3WTF9HashTableIN7CyberCore10WidthCache14SmallStringKeyENS_12KeyValuePairIS3_fEENS_24KeyValuePairKeyExtractorIS5_EENS2_18SmallStringKeyHashENS_18HashMapValueTraitsINS2_24SmallStringKeyHashTraitsENS_10HashTraitsIfEEEESA_E6rehashEi
__ZN7CyberCore20ResourceResponseBaseC2Ev
__ZNK7CyberCore20ResourceResponseBase3urlEv
__ZN7CyberCore16ResourceResponse16platformLazyInitENS_20ResourceResponseBase9InitLevelE
__ZNK7CyberCore16ResourceResponse13nsURLResponseEv
__ZNK7CyberCore14SecurityOrigin20isSameSchemeHostPortEPKS0_
__ZNK7CyberCore10StorageMap6lengthEv
__ZN7CyberCore12IconDatabase28performReleaseIconForPageURLERKN3WTF6StringEi
__ZN3WTF6VectorIcLm512ENS_15CrashOnOverflowEE15reserveCapacityEm
__ZN7CyberCore15DatabaseManager7managerEv
__ZN7CyberCore18platformStrategiesEv
__ZN7CyberCore16DatabaseStrategy17getDatabaseServerEv
__ZN7CyberCore15DatabaseManager10initializeERKN3WTF6StringE
__ZN7CyberCore14DatabaseServer10initializeERKN3WTF6StringE
__ZN7CyberCore15DatabaseTracker17initializeTrackerERKN3WTF6StringE
__ZN7CyberCore15DatabaseTracker24setDatabaseDirectoryPathERKN3WTF6StringE
__ZN7CyberCore15DatabaseManager9setClientEPNS_21DatabaseManagerClientE
__ZN7CyberCore14DatabaseServer9setClientEPNS_21DatabaseManagerClientE
__ZN7CyberCore15DatabaseTracker7trackerEv
__ZN7CyberCore15DatabaseTracker9setClientEPNS_21DatabaseManagerClientE
__ZN7CyberCore12cacheStorageEv
__ZN7CyberCore23ApplicationCacheStorage17setCacheDirectoryERKN3WTF6StringE
__ZN7CyberCore11MemoryCache24pruneDeadResourcesToSizeEj
__ZN7CyberCore11MemoryCache18pruneLiveResourcesEv
__ZN7CyberCore30overrideUserPreferredLanguagesERKN3WTF6VectorINS0_6StringELm0ENS0_15CrashOnOverflowEEE
__ZN3WTF6VectorINS_6StringELm0ENS_15CrashOnOverflowEEaSERKS3_
__ZN7CyberCore8Settings29setDefaultMinDOMTimerIntervalEd
__ZN7CyberCore4Page11PageClientsC1Ev
__ZN7CyberCore4PageC1ERNS0_11PageClientsE
__ZN7CyberCore4PageC2ERNS0_11PageClientsE
__ZN7CyberCore6Chrome6createEPNS_4PageEPNS_12ChromeClientE
__ZN7CyberCore19DragCaretController6createEv
__ZN7CyberCore14DragController6createEPNS_4PageEPNS_10DragClientE
__ZN7CyberCore15FocusController6createEPNS_4PageE
__ZN7CyberCore21ContextMenuController6createEPNS_4PageEPNS_17ContextMenuClientE
__ZN7CyberCore13HitTestResultC1Ev
__ZN7CyberCore15HitTestLocationC1Ev
__ZN7CyberCore19InspectorController6createEPNS_4PageEPNS_15InspectorClientE
__ZN7CyberCore19InspectorControllerC2EPNS_4PageEPNS_15InspectorClientE
__ZN7CyberCore19InstrumentingAgentsC1Ev
__ZN7CyberCore21InjectedScriptManager13createForPageEv
__ZN7CyberCore18InjectedScriptHost6createEv
__ZN7CyberCore19InspectorObjectBaseC2Ev
__ZN7CyberCore16InspectorOverlayC1EPNS_4PageEPNS_15InspectorClientE
__ZN7CyberCore14InspectorAgentC1EPNS_4PageEPNS_21InjectedScriptManagerEPNS_19InstrumentingAgentsEPNS_23InspectorCompositeStateE
__ZN7CyberCore27InspectorBaseAgentInterfaceC2ERKN3WTF6StringEPNS_19InstrumentingAgentsEPNS_23InspectorCompositeStateE
__ZN7CyberCore23InspectorCompositeState16createAgentStateERKN3WTF6StringE
__ZN7CyberCore19InspectorObjectBase9setObjectERKN3WTF6StringENS1_10PassRefPtrINS_15InspectorObjectEEE
__ZN3WTF9HashTableINS_6StringENS_12KeyValuePairIS1_NS_6RefPtrIN7CyberCore14InspectorValueEEEEENS_24KeyValuePairKeyExtractorIS7_EENS_10StringHashENS_18HashMapValueTraitsINS_10HashTraitsIS1_EENSC_IS6_EEEESD_E15deallocateTableEPS7_i
__ZN3WTF9HashTableINS_6StringENS_12KeyValuePairIS1_NS_6RefPtrIN7CyberCore14InspectorValueEEEEENS_24KeyValuePairKeyExtractorIS7_EENS_10StringHashENS_18HashMapValueTraitsINS_10HashTraitsIS1_EENSC_IS6_EEEESD_E16lookupForWritingINS_22IdentityHashTranslatorISA_EES1_EENSt3__14pairIPS7_bEERKT0_
__ZN3WTF9HashTableINS_6StringENS_12KeyValuePairIS1_NS_6RefPtrIN7CyberCore14InspectorValueEEEEENS_24KeyValuePairKeyExtractorIS7_EENS_10StringHashENS_18HashMapValueTraitsINS_10HashTraitsIS1_EENSC_IS6_EEEESD_E3addINS_17HashMapTranslatorISF_SA_EES1_NS_10PassRefPtrIS5_EEEENS_18HashTableAddResultINS_17HashTableIteratorIS1_S7_S9_SA_SF_SD_EEEERKT0_RKT1_
__ZN3WTF9HashTableINS_6StringENS_12KeyValuePairIS1_NS_6RefPtrIN7CyberCore14InspectorValueEEEEENS_24KeyValuePairKeyExtractorIS7_EENS_10StringHashENS_18HashMapValueTraitsINS_10HashTraitsIS1_EENSC_IS6_EEEESD_E6lookupINS_22IdentityHashTranslatorISA_EES1_EEPS7_RKT0_
__ZN3WTF9HashTableINS_6StringENS_12KeyValuePairIS1_NS_6RefPtrIN7CyberCore14InspectorValueEEEEENS_24KeyValuePairKeyExtractorIS7_EENS_10StringHashENS_18HashMapValueTraitsINS_10HashTraitsIS1_EENSC_IS6_EEEESD_E6rehashEi
__ZN3WTF9HashTableINS_6StringENS_12KeyValuePairIS1_NS_6RefPtrIN7CyberCore14InspectorValueEEEEENS_24KeyValuePairKeyExtractorIS7_EENS_10StringHashENS_18HashMapValueTraitsINS_10HashTraitsIS1_EENSC_IS6_EEEESD_E6removeEPS7_
__ZN3WTF9HashTableINS_6StringENS_12KeyValuePairIS1_NS_6OwnPtrIN7CyberCore14InspectorStateEEEEENS_24KeyValuePairKeyExtractorIS7_EENS_10StringHashENS_18HashMapValueTraitsINS_10HashTraitsIS1_EENSC_IS6_EEEESD_E16lookupForWritingINS_22IdentityHashTranslatorISA_EES1_EENSt3__14pairIPS7_bEERKT0_
__ZN3WTF9HashTableINS_6StringENS_12KeyValuePairIS1_NS_6OwnPtrIN7CyberCore14InspectorStateEEEEENS_24KeyValuePairKeyExtractorIS7_EENS_10StringHashENS_18HashMapValueTraitsINS_10HashTraitsIS1_EENSC_IS6_EEEESD_E3addINS_17HashMapTranslatorISF_SA_EES1_NS_10PassOwnPtrIS5_EEEENS_18HashTableAddResultINS_17HashTableIteratorIS1_S7_S9_SA_SF_SD_EEEERKT0_RKT1_
__ZN3WTF9HashTableINS_6StringENS_12KeyValuePairIS1_NS_6OwnPtrIN7CyberCore14InspectorStateEEEEENS_24KeyValuePairKeyExtractorIS7_EENS_10StringHashENS_18HashMapValueTraitsINS_10HashTraitsIS1_EENSC_IS6_EEEESD_E6lookupINS_22IdentityHashTranslatorISA_EES1_EEPS7_RKT0_
__ZN3WTF9HashTableINS_6StringENS_12KeyValuePairIS1_NS_6OwnPtrIN7CyberCore14InspectorStateEEEEENS_24KeyValuePairKeyExtractorIS7_EENS_10StringHashENS_18HashMapValueTraitsINS_10HashTraitsIS1_EENSC_IS6_EEEESD_E6rehashEi
__ZN7CyberCore22InspectorAgentRegistry6appendEN3WTF10PassOwnPtrINS_27InspectorBaseAgentInterfaceEEE
__ZN3WTF6VectorINS_6OwnPtrIN7CyberCore27InspectorBaseAgentInterfaceEEELm0ENS_15CrashOnOverflowEE15reserveCapacityEm
__ZN7CyberCore18InspectorPageAgent6createEPNS_19InstrumentingAgentsEPNS_4PageEPNS_14InspectorAgentEPNS_23InspectorCompositeStateEPNS_21InjectedScriptManagerEPNS_15InspectorClientEPNS_16InspectorOverlayE
__ZN7CyberCore17InspectorDOMAgentC1EPNS_19InstrumentingAgentsEPNS_18InspectorPageAgentEPNS_23InspectorCompositeStateEPNS_21InjectedScriptManagerEPNS_16InspectorOverlayEPNS_15InspectorClientE
__ZN7CyberCore17InspectorCSSAgentC1EPNS_19InstrumentingAgentsEPNS_23InspectorCompositeStateEPNS_17InspectorDOMAgentE
__ZN7CyberCore17InspectorCSSAgentC2EPNS_19InstrumentingAgentsEPNS_23InspectorCompositeStateEPNS_17InspectorDOMAgentE
__ZN7CyberCore17InspectorDOMAgent14setDOMListenerEPNS0_11DOMListenerE
__ZN7CyberCore22InspectorDatabaseAgentC1EPNS_19InstrumentingAgentsEPNS_23InspectorCompositeStateE
__ZN7CyberCore24InspectorDOMStorageAgentC1EPNS_19InstrumentingAgentsEPNS_18InspectorPageAgentEPNS_23InspectorCompositeStateE
__ZN7CyberCore20InspectorMemoryAgent6createEPNS_19InstrumentingAgentsEPNS_23InspectorCompositeStateE
__ZN7CyberCore22InspectorTimelineAgentC1EPNS_19InstrumentingAgentsEPNS_18InspectorPageAgentEPNS_20InspectorMemoryAgentEPNS_23InspectorCompositeStateENS0_13InspectorTypeEPNS_15InspectorClientE
__ZN7CyberCore22InspectorTimelineAgentC2EPNS_19InstrumentingAgentsEPNS_18InspectorPageAgentEPNS_20InspectorMemoryAgentEPNS_23InspectorCompositeStateENS0_13InspectorTypeEPNS_15InspectorClientE
__ZN7CyberCore30InspectorApplicationCacheAgentC1EPNS_19InstrumentingAgentsEPNS_23InspectorCompositeStateEPNS_18InspectorPageAgentE
__ZN7CyberCore22InspectorResourceAgentC1EPNS_19InstrumentingAgentsEPNS_18InspectorPageAgentEPNS_15InspectorClientEPNS_23InspectorCompositeStateE
__ZN7CyberCore22InspectorResourceAgentC2EPNS_19InstrumentingAgentsEPNS_18InspectorPageAgentEPNS_15InspectorClientEPNS_23InspectorCompositeStateE
__ZN7CyberCore20NetworkResourcesDataC1Ev
__ZN7CyberCore16PageRuntimeAgentC1EPNS_19InstrumentingAgentsEPNS_23InspectorCompositeStateEPNS_21InjectedScriptManagerEPNS_4PageEPNS_18InspectorPageAgentE
__ZN7CyberCore21InspectorRuntimeAgentC2EPNS_19InstrumentingAgentsEPNS_23InspectorCompositeStateEPNS_21InjectedScriptManagerE
__ZN7CyberCore16PageConsoleAgentC1EPNS_19InstrumentingAgentsEPNS_14InspectorAgentEPNS_23InspectorCompositeStateEPNS_21InjectedScriptManagerEPNS_17InspectorDOMAgentE
__ZN7CyberCore21InspectorConsoleAgentC2EPNS_19InstrumentingAgentsEPNS_23InspectorCompositeStateEPNS_21InjectedScriptManagerE
__ZN7CyberCore17PageDebuggerAgent6createEPNS_19InstrumentingAgentsEPNS_23InspectorCompositeStateEPNS_18InspectorPageAgentEPNS_21InjectedScriptManagerEPNS_16InspectorOverlayE
__ZN7CyberCore22InspectorDebuggerAgentC2EPNS_19InstrumentingAgentsEPNS_23InspectorCompositeStateEPNS_21InjectedScriptManagerE
__ZN7CyberCore14InspectorState8setValueERKN3WTF6StringENS1_10PassRefPtrINS_14InspectorValueEEE
__ZN7CyberCore19InspectorObjectBase8setValueERKN3WTF6StringENS1_10PassRefPtrINS_14InspectorValueEEE
__ZN7CyberCore23InspectorCompositeState21inspectorStateUpdatedEv
__ZN7CyberCore25InspectorDOMDebuggerAgent6createEPNS_19InstrumentingAgentsEPNS_23InspectorCompositeStateEPNS_17InspectorDOMAgentEPNS_22InspectorDebuggerAgentEPNS_14InspectorAgentE
__ZN7CyberCore20InspectorWorkerAgent6createEPNS_19InstrumentingAgentsEPNS_23InspectorCompositeStateE
__ZN7CyberCore20InspectorCanvasAgentC1EPNS_19InstrumentingAgentsEPNS_23InspectorCompositeStateEPNS_18InspectorPageAgentEPNS_21InjectedScriptManagerE
__ZN7CyberCore19InspectorInputAgentC1EPNS_19InstrumentingAgentsEPNS_23InspectorCompositeStateEPNS_4PageE
__ZN7CyberCore23InspectorLayerTreeAgentC1EPNS_19InstrumentingAgentsEPNS_23InspectorCompositeStateE
__ZN7CyberCore21InjectedScriptManager18injectedScriptHostEv
__ZN7CyberCore17PageDebuggerAgent17scriptDebugServerEv
__ZN7CyberCore21PageScriptDebugServer6sharedEv
__ZN7CyberCore17ScriptDebugServerC2Ev
__ZN7CyberCore21InspectorRuntimeAgent20setScriptDebugServerEPNS_17ScriptDebugServerE
__ZN7CyberCore8Settings6createEPNS_4PageE
__ZN7CyberCore8SettingsC2EPNS_4PageE
__ZN7CyberCore19FontGenericFamiliesC1Ev
__ZN7CyberCore8Settings29initializeDefaultFontFamiliesEv
__ZN7CyberCore8Settings21setStandardFontFamilyERKN3WTF12AtomicStringE11UScriptCode
__ZN7CyberCore19FontGenericFamilies21setStandardFontFamilyERKN3WTF12AtomicStringE11UScriptCode
__ZN7CyberCoreL29setGenericFontFamilyForScriptERN3WTF7HashMapIiNS0_12AtomicStringENS0_7IntHashIjEENS_21UScriptCodeHashTraitsENS0_10HashTraitsIS2_EEEERKS2_11UScriptCode
__ZN3WTF9HashTableIiNS_12KeyValuePairIiNS_12AtomicStringEEENS_24KeyValuePairKeyExtractorIS3_EENS_7IntHashIjEENS_18HashMapValueTraitsIN7CyberCore21UScriptCodeHashTraitsENS_10HashTraitsIS2_EEEESA_E16lookupForWritingINS_22IdentityHashTranslatorIS7_EEiEENSt3__14pairIPS3_bEERKT0_
__ZN3WTF9HashTableIiNS_12KeyValuePairIiNS_12AtomicStringEEENS_24KeyValuePairKeyExtractorIS3_EENS_7IntHashIjEENS_18HashMapValueTraitsIN7CyberCore21UScriptCodeHashTraitsENS_10HashTraitsIS2_EEEESA_E3addINS_17HashMapTranslatorISD_S7_EEiS2_EENS_18HashTableAddResultINS_17HashTableIteratorIiS3_S5_S7_SD_SA_EEEERKT0_RKT1_
__ZN3WTF9HashTableIiNS_12KeyValuePairIiNS_12AtomicStringEEENS_24KeyValuePairKeyExtractorIS3_EENS_7IntHashIjEENS_18HashMapValueTraitsIN7CyberCore21UScriptCodeHashTraitsENS_10HashTraitsIS2_EEEESA_E6lookupINS_22IdentityHashTranslatorIS7_EEiEEPS3_RKT0_
__ZN3WTF9HashTableIiNS_12KeyValuePairIiNS_12AtomicStringEEENS_24KeyValuePairKeyExtractorIS3_EENS_7IntHashIjEENS_18HashMapValueTraitsIN7CyberCore21UScriptCodeHashTraitsENS_10HashTraitsIS2_EEEESA_E6rehashEi
__ZN3WTF9HashTableIiNS_12KeyValuePairIiNS_12AtomicStringEEENS_24KeyValuePairKeyExtractorIS3_EENS_7IntHashIjEENS_18HashMapValueTraitsIN7CyberCore21UScriptCodeHashTraitsENS_10HashTraitsIS2_EEEESA_E8reinsertERS3_
__ZN7CyberCore25invalidateFontGlyphsCacheEv
__ZN7CyberCore8Settings18setSerifFontFamilyERKN3WTF12AtomicStringE11UScriptCode
__ZN7CyberCore19FontGenericFamilies18setSerifFontFamilyERKN3WTF12AtomicStringE11UScriptCode
__ZN7CyberCore8Settings18setFixedFontFamilyERKN3WTF12AtomicStringE11UScriptCode
__ZN7CyberCore19FontGenericFamilies18setFixedFontFamilyERKN3WTF12AtomicStringE11UScriptCode
__ZN7CyberCore8Settings22setSansSerifFontFamilyERKN3WTF12AtomicStringE11UScriptCode
__ZN7CyberCore19FontGenericFamilies22setSansSerifFontFamilyERKN3WTF12AtomicStringE11UScriptCode
__ZN7CyberCore15ProgressTracker6createEv
__ZN7CyberCore21BackForwardController6createEPNS_4PageEN3WTF10PassRefPtrINS_15BackForwardListEEE
__ZN7CyberCore11RenderTheme12themeForPageEPNS_4PageE
__ZN7CyberCore14RenderThemeMacC2Ev
__ZN7CyberCore11RenderThemeC2Ev
__ZN7CyberCore13platformThemeEv
-[CyberCoreRenderThemeNotificationObserver initWithTheme:]
__ZN7CyberCore15FeatureObserverC1Ev
__ZN7CyberCore8Settings26defaultMinDOMTimerIntervalEv
__ZN7CyberCore8Settings32defaultDOMTimerAlignmentIntervalEv
__ZN7CyberCore6RegionC1Ev
__ZN7CyberCore13PageThrottlerC1EPNS_4PageE
__ZN7CyberCore17PageConsoleClientC1EPNS_4PageE
__ZN7CyberCore20networkStateNotifierEv
__ZN7CyberCore20NetworkStateNotifierC1Ev
__ZN7CyberCore20NetworkStateNotifierC2Ev
__ZN7CyberCore20NetworkStateNotifier11updateStateEv
__ZN7CyberCore20NetworkStateNotifier30setNetworkStateChangedFunctionEPFvvE
__ZN3WTF9HashTableIPN7CyberCore4PageES3_NS_17IdentityExtractorENS_7PtrHashIS3_EENS_10HashTraitsIS3_EES8_E3addINS_22IdentityHashTranslatorIS6_EES3_S3_EENS_18HashTableAddResultINS_17HashTableIteratorIS3_S3_S4_S6_S8_S8_EEEERKT0_RKT1_
__ZN3WTF9HashTableIPN7CyberCore4PageES3_NS_17IdentityExtractorENS_7PtrHashIS3_EENS_10HashTraitsIS3_EES8_E6rehashEi
__ZN7CyberCore20provideGeolocationToEPNS_4PageEPNS_17GeolocationClientE
__ZN7CyberCore19provideNotificationEPNS_4PageEPNS_18NotificationClientE
__ZN7CyberCore4Page16setCanStartMediaEb
__ZN7CyberCore4Page12setGroupNameERKN3WTF6StringE
__ZN7CyberCore9PageGroup7addPageEPNS_4PageE
__ZN7CyberCore4Page20setDeviceScaleFactorEf
__ZN7CyberCore9PageCache30markPagesForDeviceScaleChangedEPNS_4PageE
__ZN7CyberCore9PageCache27markPagesForFullStyleRecalcEPNS_4PageE
__ZN7CyberCore8Settings20setCursiveFontFamilyERKN3WTF12AtomicStringE11UScriptCode
__ZN7CyberCore19FontGenericFamilies20setCursiveFontFamilyERKN3WTF12AtomicStringE11UScriptCode
__ZN7CyberCore4Page30setNeedsRecalcStyleInAllFramesEv
__ZN7CyberCore8Settings20setFantasyFontFamilyERKN3WTF12AtomicStringE11UScriptCode
__ZN7CyberCore19FontGenericFamilies20setFantasyFontFamilyERKN3WTF12AtomicStringE11UScriptCode
__ZN7CyberCore8Settings23setPictographFontFamilyERKN3WTF12AtomicStringE11UScriptCode
__ZN7CyberCore19FontGenericFamilies23setPictographFontFamilyERKN3WTF12AtomicStringE11UScriptCode
__ZN7CyberCore8Settings16setScriptEnabledEb
__ZN7CyberCore8Settings27setLoadsImagesAutomaticallyEb
__ZN7CyberCore8Settings17setPluginsEnabledEb
__ZN7CyberCore8Settings14setJavaEnabledEb
__ZN7CyberCore8Settings27setJavaEnabledForLocalFilesEb
__ZN7CyberCore8Settings25setPrivateBrowsingEnabledEb
__ZN7CyberCore8Settings24setTextAreasAreResizableEb
__ZN7CyberCore8Settings24setDNSPrefetchingEnabledEb
__ZN7CyberCore8Settings16setUsesPageCacheEb
__ZN7CyberCore8Settings29setAuthorAndUserStylesEnabledEb
__ZN7CyberCore8Settings18setMinimumFontSizeEi
__ZN7CyberCore8Settings25setMinimumLogicalFontSizeEi
__ZN7CyberCore8Settings18setDefaultFontSizeEi
__ZN7CyberCore8Settings23setDefaultFixedFontSizeEi
__ZN7CyberCore8Settings32setScreenFontSubstitutionEnabledEb
__ZN7CyberCore8Settings32setAcceleratedCompositingEnabledEb
__ZN7CyberCore8Settings19setShowDebugBordersEb
__ZN7CyberCore8Settings21setShowRepaintCounterEb
__ZN7CyberCore8Settings30setShowTiledScrollingIndicatorEb
__ZN7CyberCore8Settings33setAggressiveTileRetentionEnabledEb
__ZN7CyberCore8Settings24setMockScrollbarsEnabledEb
__ZN7CyberCore15DatabaseManager14setIsAvailableEb
__ZN7CyberCore8Settings22setAVFoundationEnabledEb
__ZN7CyberCore16HTMLMediaElement17resetMediaEnginesEv
__ZN7CyberCore11MediaPlayer17resetMediaEnginesEv
__ZN7CyberCore8Settings15setQTKitEnabledEb
__ZN7CyberCore8Settings24setStorageBlockingPolicyENS_14SecurityOrigin21StorageBlockingPolicyE
__ZN7CyberCore8Settings37setScrollingPerformanceLoggingEnabledEb
__ZN7CyberCore8Settings38setHiddenPageDOMTimerThrottlingEnabledEb
__ZN7CyberCore4Page40hiddenPageDOMTimerThrottlingStateChangedEv
__ZN7CyberCore8Settings42setHiddenPageCSSAnimationSuspensionEnabledEb
__ZN7CyberCore4Page44hiddenPageCSSAnimationSuspensionStateChangedEv
__ZN7CyberCore8Settings38setLowPowerVideoAudioBufferSizeEnabledEb
__ZN7CyberCore16MIMETypeRegistry28getPDFAndPostScriptMIMETypesEv
__ZN7CyberCore14SchemeRegistry32registerURLSchemeAsEmptyDocumentERKN3WTF6StringE
__ZN7CyberCoreL20emptyDocumentSchemesEv
__ZN3WTF9HashTableINS_6StringES1_NS_17IdentityExtractorENS_15CaseFoldingHashENS_10HashTraitsIS1_EES5_E16lookupForWritingINS_22IdentityHashTranslatorIS3_EES1_EENSt3__14pairIPS1_bEERKT0_
__ZN7CyberCore19LayerFlushSchedulerC1EPNS_25LayerFlushSchedulerClientE
__ZN7CyberCore4Page20scrollingCoordinatorEv
__ZN7CyberCore20ScrollingCoordinator6createEPNS_4PageE
__ZN7CyberCore23ScrollingCoordinatorMacC1EPNS_4PageE
__ZN7CyberCore23ScrollingCoordinatorMacC2EPNS_4PageE
__ZN7CyberCore20ScrollingCoordinatorC2EPNS_4PageE
__ZN7CyberCore18ScrollingStateTree6createEv
__ZN7CyberCore13ScrollingTree6createEPNS_20ScrollingCoordinatorE
__ZNK7CyberCore23ScrollingCoordinatorMac13scrollingTreeEv
__ZNK7CyberCore7IntRectcv6CGRectEv
__ZN7CyberCore4Page26dnsPrefetchingStateChangedEv
__ZN7CyberCore4Page27storageBlockingStateChangedEv
__ZN7CyberCore4Page18collectPluginViewsERN3WTF6VectorINS1_6RefPtrINS_14PluginViewBaseEEELm32ENS1_15CrashOnOverflowEEE
__ZN7CyberCore4Page15addSchedulePairEN3WTF10PassRefPtrINS1_12SchedulePairEEE
__ZN3WTF9HashTableINS_6RefPtrINS_12SchedulePairEEES3_NS_17IdentityExtractorENS_16SchedulePairHashENS_10HashTraitsIS3_EES7_E3addINS_22IdentityHashTranslatorIS5_EES3_S3_EENS_18HashTableAddResultINS_17HashTableIteratorIS3_S3_S4_S5_S7_S7_EEEERKT0_RKT1_
__ZN3WTF9HashTableINS_6RefPtrINS_12SchedulePairEEES3_NS_17IdentityExtractorENS_16SchedulePairHashENS_10HashTraitsIS3_EES7_E6rehashEi
__ZN3WTF9HashTableINS_6RefPtrINS_12SchedulePairEEES3_NS_17IdentityExtractorENS_16SchedulePairHashENS_10HashTraitsIS3_EES7_E15deallocateTableEPS3_i
__ZN3WTF16SchedulePairHash4hashERKNS_6RefPtrINS_12SchedulePairEEE
__ZN3WTF6RefPtrINS_12SchedulePairEEaSERKS2_
__ZN7CyberCore5Frame6createEPNS_4PageEPNS_21HTMLFrameOwnerElementEPNS_17FrameLoaderClientE
__ZN7CyberCore5FrameC2EPNS_4PageEPNS_21HTMLFrameOwnerElementEPNS_17FrameLoaderClientE
__ZN7CyberCore11FrameLoaderC1EPNS_5FrameEPNS_17FrameLoaderClientE
__ZN7CyberCore11FrameLoaderC2EPNS_5FrameEPNS_17FrameLoaderClientE
__ZN7CyberCore13PolicyCheckerC1EPNS_5FrameE
__ZN7CyberCore14PolicyCallbackC1Ev
__ZN7CyberCore15ResourceRequestC2Ev
__ZN7CyberCore16NavigationActionC1Ev
__ZN7CyberCore17HistoryControllerC1EPNS_5FrameE
__ZN7CyberCore20ResourceLoadNotifierC1EPNS_5FrameE
__ZN7CyberCore14SubframeLoaderC1EPNS_5FrameE
__ZN7CyberCore23FrameLoaderStateMachineC1Ev
__ZN7CyberCore14IconControllerC1EPNS_5FrameE
__ZN7CyberCore19MixedContentCheckerC1EPNS_5FrameE
__ZN7CyberCore19NavigationSchedulerC1EPNS_5FrameE
__ZN7CyberCore16ScriptControllerC1EPNS_5FrameE
__ZN7CyberCore6EditorC1EPNS_5FrameE
__ZN7CyberCore6EditorC2EPNS_5FrameE
__ZN7CyberCore24FrameDestructionObserverC2EPNS_5FrameE
__ZN7CyberCore5Frame22addDestructionObserverEPNS_24FrameDestructionObserverE
__ZN3WTF9HashTableIPN7CyberCore24FrameDestructionObserverES3_NS_17IdentityExtractorENS_7PtrHashIS3_EENS_10HashTraitsIS3_EES8_E3addINS_22IdentityHashTranslatorIS6_EES3_S3_EENS_18HashTableAddResultINS_17HashTableIteratorIS3_S3_S4_S6_S8_S8_EEEERKT0_RKT1_
__ZN3WTF9HashTableIPN7CyberCore24FrameDestructionObserverES3_NS_17IdentityExtractorENS_7PtrHashIS3_EENS_10HashTraitsIS3_EES8_E6rehashEi
__ZN7CyberCore12SpellCheckerC1EPNS_5FrameE
__ZN7CyberCore25AlternativeTextControllerC1EPNS_5FrameE
__ZN7CyberCore16VisibleSelectionC1Ev
__ZN7CyberCore22DeleteButtonControllerC1EPNS_5FrameE
__ZN7CyberCore14FrameSelectionC1EPNS_5FrameE
__ZN7CyberCore14FrameSelectionC2EPNS_5FrameE
__ZNK7CyberCore6Editor8behaviorEv
__ZNK7CyberCore5Frame8settingsEv
__ZN7CyberCore12EventHandlerC1EPNS_5FrameE
__ZN7CyberCore12EventHandlerC2EPNS_5FrameE
__ZN7CyberCore20AutoscrollControllerC1Ev
__ZN7CyberCore19AnimationControllerC1EPNS_5FrameE
__ZNK7CyberCore9FrameTree6parentEv
__ZN7CyberCore9HTMLNames4initEv
__ZN3WTF9HashTableIPN7CyberCore13QualifiedName17QualifiedNameImplES4_NS_17IdentityExtractorENS1_17QualifiedNameHashENS1_23QualifiedNameHashTraitsES7_E16lookupForWritingINS_22IdentityHashTranslatorIS6_EES4_EENSt3__14pairIPS4_bEERKT0_
__ZN3WTF9HashTableIPN7CyberCore13QualifiedName17QualifiedNameImplES4_NS_17IdentityExtractorENS1_17QualifiedNameHashENS1_23QualifiedNameHashTraitsES7_E18addPassingHashCodeINS_24HashSetTranslatorAdapterINS1_25QNameComponentsTranslatorEEENS1_23QualifiedNameComponentsESD_EENS_18HashTableAddResultINS_17HashTableIteratorIS4_S4_S5_S6_S7_S7_EEEERKT0_RKT1_
__ZN3WTF9HashTableIPN7CyberCore13QualifiedName17QualifiedNameImplES4_NS_17IdentityExtractorENS1_17QualifiedNameHashENS1_23QualifiedNameHashTraitsES7_E20fullLookupForWritingINS_24HashSetTranslatorAdapterINS1_25QNameComponentsTranslatorEEENS1_23QualifiedNameComponentsEEENSt3__14pairINSF_IPS4_bEEjEERKT0_
__ZN3WTF9HashTableIPN7CyberCore13QualifiedName17QualifiedNameImplES4_NS_17IdentityExtractorENS1_17QualifiedNameHashENS1_23QualifiedNameHashTraitsES7_E4findINS_22IdentityHashTranslatorIS6_EES4_EENS_17HashTableIteratorIS4_S4_S5_S6_S7_S7_EERKT0_
__ZN3WTF9HashTableIPN7CyberCore13QualifiedName17QualifiedNameImplES4_NS_17IdentityExtractorENS1_17QualifiedNameHashENS1_23QualifiedNameHashTraitsES7_E6rehashEi
__ZN3WTF12StringHasher10hashMemoryILm24EEEjPKv
__ZN7CyberCore25QNameComponentsTranslator9translateERPNS_13QualifiedName17QualifiedNameImplERKNS_23QualifiedNameComponentsEj
__ZN7CyberCore13QualifiedName4initEv
__ZN7CyberCore17MediaFeatureNames4initEv
__ZN7CyberCore8SVGNames4initEv
__ZN7CyberCore10XLinkNames4initEv
__ZN7CyberCore11MathMLNames4initEv
__ZN7CyberCore10XMLNSNames4initEv
__ZN7CyberCore8XMLNames4initEv
__ZN7CyberCore21CyberKitFontFamilyNames4initEv
__ZN7CyberCore4Page12setMainFrameEN3WTF10PassRefPtrINS_5FrameEEE
__ZN7CyberCore9FrameTree7setNameERKN3WTF12AtomicStringE
__ZN7CyberCore11FrameLoader4initEv
__ZN7CyberCore4KURLC1ENS_18ParsedURLStringTagERKN3WTF6StringE
__ZN7CyberCore4KURL5parseERKN3WTF6StringE
__ZN7CyberCore14DocumentLoaderC1ERKNS_15ResourceRequestERKNS_14SubstituteDataE
__ZN7CyberCore14DocumentLoaderC2ERKNS_15ResourceRequestERKNS_14SubstituteDataE
__ZN7CyberCore20CachedResourceLoaderC1EPNS_14DocumentLoaderE
__ZN7CyberCore24CachedResourceHandleBaseC2Ev
__ZN7CyberCore14DocumentWriterC1EPNS_5FrameE
__ZN7CyberCore19ResourceRequestBaseC2ERKS0_
__ZN7CyberCore18DocumentLoadTimingC1Ev
__ZN7CyberCore20ApplicationCacheHostC1EPNS_14DocumentLoaderE
__ZN7CyberCore11FrameLoader23setPolicyDocumentLoaderEPNS_14DocumentLoaderE
__ZN7CyberCore14DocumentLoader8setFrameEPNS_5FrameE
__ZN7CyberCore14DocumentLoader13attachToFrameEv
__ZN7CyberCore14SubstituteDataD2Ev
__ZN7CyberCore19ResourceRequestBaseD2Ev
__ZN7CyberCore14DocumentLoader24startLoadingMainResourceEv
__ZN7CyberCore18DocumentLoadTiming19markNavigationStartEv
__ZN7CyberCore14DocumentLoader14maybeLoadEmptyEv
__ZNK7CyberCore23FrameLoaderStateMachine28creatingInitialEmptyDocumentEv
__ZN7CyberCore20ResourceResponseBaseC2ERKNS_4KURLERKN3WTF6StringExS7_S7_
__ZN7CyberCore20ResourceResponseBaseaSERKS0_
__ZN3WTF9HashTableINS_12AtomicStringENS_12KeyValuePairIS1_NS_6StringEEENS_24KeyValuePairKeyExtractorIS4_EENS_15CaseFoldingHashENS_18HashMapValueTraitsINS_10HashTraitsIS1_EENS9_IS3_EEEESA_E15deallocateTableEPS4_i
__ZN3WTF9HashTableINS_12AtomicStringENS_12KeyValuePairIS1_NS_6StringEEENS_24KeyValuePairKeyExtractorIS4_EENS_15CaseFoldingHashENS_18HashMapValueTraitsINS_10HashTraitsIS1_EENS9_IS3_EEEESA_E16lookupForWritingINS_22IdentityHashTranslatorIS7_EES1_EENSt3__14pairIPS4_bEERKT0_
__ZN3WTF9HashTableINS_12AtomicStringENS_12KeyValuePairIS1_NS_6StringEEENS_24KeyValuePairKeyExtractorIS4_EENS_15CaseFoldingHashENS_18HashMapValueTraitsINS_10HashTraitsIS1_EENS9_IS3_EEEESA_E34removeWithoutEntryConsistencyCheckENS_17HashTableIteratorIS1_S4_S6_S7_SC_SA_EE
__ZN3WTF9HashTableINS_12AtomicStringENS_12KeyValuePairIS1_NS_6StringEEENS_24KeyValuePairKeyExtractorIS4_EENS_15CaseFoldingHashENS_18HashMapValueTraitsINS_10HashTraitsIS1_EENS9_IS3_EEEESA_E3addINS_17HashMapTranslatorISC_S7_EES1_S3_EENS_18HashTableAddResultINS_17HashTableIteratorIS1_S4_S6_S7_SC_SA_EEEERKT0_RKT1_
__ZN3WTF9HashTableINS_12AtomicStringENS_12KeyValuePairIS1_NS_6StringEEENS_24KeyValuePairKeyExtractorIS4_EENS_15CaseFoldingHashENS_18HashMapValueTraitsINS_10HashTraitsIS1_EENS9_IS3_EEEESA_E3addINS_22IdentityHashTranslatorIS7_EES1_S4_EENS_18HashTableAddResultINS_17HashTableIteratorIS1_S4_S6_S7_SC_SA_EEEERKT0_RKT1_
__ZN3WTF9HashTableINS_12AtomicStringENS_12KeyValuePairIS1_NS_6StringEEENS_24KeyValuePairKeyExtractorIS4_EENS_15CaseFoldingHashENS_18HashMapValueTraitsINS_10HashTraitsIS1_EENS9_IS3_EEEESA_E6expandEv
__ZN3WTF9HashTableINS_12AtomicStringENS_12KeyValuePairIS1_NS_6StringEEENS_24KeyValuePairKeyExtractorIS4_EENS_15CaseFoldingHashENS_18HashMapValueTraitsINS_10HashTraitsIS1_EENS9_IS3_EEEESA_E6lookupINS_22IdentityHashTranslatorIS7_EES1_EEPS4_RKT0_
__ZN3WTF9HashTableINS_12AtomicStringENS_12KeyValuePairIS1_NS_6StringEEENS_24KeyValuePairKeyExtractorIS4_EENS_15CaseFoldingHashENS_18HashMapValueTraitsINS_10HashTraitsIS1_EENS9_IS3_EEEESA_E6lookupINS_24HashMapTranslatorAdapterISC_N7CyberCore28CaseFoldingCStringTranslatorEEEPKcEEPS4_RKT0_
__ZN3WTF9HashTableINS_12AtomicStringENS_12KeyValuePairIS1_NS_6StringEEENS_24KeyValuePairKeyExtractorIS4_EENS_15CaseFoldingHashENS_18HashMapValueTraitsINS_10HashTraitsIS1_EENS9_IS3_EEEESA_E6rehashEi
__ZN3WTF9HashTableINS_12AtomicStringENS_12KeyValuePairIS1_NS_6StringEEENS_24KeyValuePairKeyExtractorIS4_EENS_15CaseFoldingHashENS_18HashMapValueTraitsINS_10HashTraitsIS1_EENS9_IS3_EEEESA_E8reinsertERS4_
__ZN3WTF9HashTableINS_12AtomicStringENS_12KeyValuePairIS1_NS_6StringEEENS_24KeyValuePairKeyExtractorIS4_EENS_15CaseFoldingHashENS_18HashMapValueTraitsINS_10HashTraitsIS1_EENS9_IS3_EEEESA_EaSERKSD_
__ZN7CyberCore20ResourceResponseBaseD2Ev
__ZN7CyberCore14DocumentLoader15finishedLoadingEd
__ZN7CyberCore14DocumentLoader34maybeFinishLoadingMultipartContentEv
__ZN7CyberCore11FrameLoader21commitProvisionalLoadEv
__ZNK7CyberCore9PageCache8canCacheEPNS_4PageE
__ZNK7CyberCore11FrameLoader8loadTypeEv
__ZN7CyberCore11FrameLoader19closeOldDataSourcesEv
__ZN7CyberCore11FrameLoader21transitionToCommittedEN3WTF10PassRefPtrINS_10CachedPageEEE
__ZN7CyberCore17HistoryController15updateForCommitEv
__ZN7CyberCore21isBackForwardLoadTypeENS_13FrameLoadTypeE
__ZN7CyberCore11FrameLoader17setDocumentLoaderEPNS_14DocumentLoaderE
__ZN7CyberCore11FrameLoader14detachChildrenEv
__ZNK7CyberCore9FrameTree10childCountEv
__ZN3WTF6VectorINS_6RefPtrIN7CyberCore5FrameEEELm0ENS_15CrashOnOverflowEE15reserveCapacityEm
__ZN7CyberCore17HistoryController21updateForStandardLoadENS0_17HistoryUpdateTypeE
__ZNK7CyberCore14DocumentLoader13urlForHistoryEv
__ZN7CyberCore5Frame10createViewERKNS_7IntSizeERKNS_5ColorEbS3_RKNS_7IntRectEbNS_13ScrollbarModeEbSA_b
__ZN7CyberCore5Frame7setViewEN3WTF10PassRefPtrINS_9FrameViewEEE
__ZN7CyberCore12EventHandler5clearEv
__ZN7CyberCore9TimerBase4stopEv
__ZN7CyberCore11FrameLoader37resetMultipleFormSubmissionProtectionEv
__ZN7CyberCore9FrameView6createEPNS_5FrameERKNS_7IntSizeE
__ZN7CyberCore9FrameViewC2EPNS_5FrameE
__ZN7CyberCore10ScrollViewC2Ev
__ZN7CyberCore6WidgetC2EP6NSView
__ZN7CyberCore6Widget4initEP6NSView
__ZN7CyberCore14ScrollableAreaC2Ev
__ZN7CyberCore20FrameActionSchedulerC1Ev
__ZN7CyberCore9FrameView4initEv
__ZN7CyberCore9FrameView5resetEv
__ZNK7CyberCore6Widget9frameRectEv
__ZN7CyberCore6Widget12setFrameRectERKNS_7IntRectE
__ZN7CyberCore10ScrollView4showEv
__ZN7CyberCore6Widget4showEv
__ZN7CyberCore10ScrollView18setFixedLayoutSizeERKNS_7IntSizeE
__ZN7CyberCore9FrameView26setFixedVisibleContentRectERKNS_7IntRectE
__ZNK7CyberCore10ScrollView18visibleContentRectENS_14ScrollableArea36VisibleContentRectIncludesScrollbarsE
__ZNK7CyberCore6Widget14platformWidgetEv
__ZNK7CyberCore10ScrollView26unscaledVisibleContentSizeENS_14ScrollableArea36VisibleContentRectIncludesScrollbarsE
__ZNK7CyberCore10ScrollView17verticalScrollbarEv
__ZNK7CyberCore10ScrollView19horizontalScrollbarEv
__ZN7CyberCore9FloatSizeC1ERKNS_7IntSizeE
__ZNK7CyberCore9FrameView25visibleContentScaleFactorEv
__ZN7CyberCore10ScrollView17setUseFixedLayoutEb
__ZN7CyberCore10ScrollView17setScrollbarModesENS_13ScrollbarModeES1_bb
__ZN7CyberCore9FrameView27updateBackgroundRecursivelyERKNS_5ColorEb
__ZN7CyberCore9FrameView32recalculateScrollbarOverlayStyleEv
__ZNK7CyberCore9FrameView23documentBackgroundColorEv
__ZNK7CyberCore9FrameTree12traverseNextEPKNS_5FrameE
__ZN7CyberCore10ScrollView16setParentVisibleEb
__ZN7CyberCore9FrameView31setVisualUpdatesAllowedByClientEb
__ZNK7CyberCore14DocumentLoader16responseMIMETypeEv
__ZNK7CyberCore20ResourceResponseBase8mimeTypeEv
__ZN7CyberCore14DocumentLoader7requestEv
__ZNK7CyberCore14SecurityOrigin10canRequestERKNS_4KURLE
__ZN7CyberCore14SecurityOriginD2Ev
__ZN7CyberCore11FrameLoader10didOpenURLEv
__ZN7CyberCore19NavigationScheduler27redirectScheduledDuringLoadEv
__ZN7CyberCore19NavigationScheduler6cancelEb
__ZN7CyberCore6Editor20clearLastEditCommandEv
__ZN7CyberCore11FrameLoader7startedEv
__ZN7CyberCore4Page19createActivityTokenEv
__ZN7CyberCore26PageActivityAssertionTokenC1EPNS_13PageThrottlerE
__ZN7CyberCore13PageThrottler16addActivityTokenEPNS_26PageActivityAssertionTokenE
__ZN3WTF9HashTableIPN7CyberCore26PageActivityAssertionTokenES3_NS_17IdentityExtractorENS_7PtrHashIS3_EENS_10HashTraitsIS3_EES8_E3addINS_22IdentityHashTranslatorIS6_EES3_S3_EENS_18HashTableAddResultINS_17HashTableIteratorIS3_S3_S4_S6_S8_S8_EEEERKT0_RKT1_
__ZN7CyberCore14DocumentLoader18maybeCreateArchiveEv
__ZNK7CyberCore14DocumentLoader16mainResourceDataEv
__ZN7CyberCore14ArchiveFactory6createERKNS_4KURLEPNS_12SharedBufferERKN3WTF6StringE
__ZN7CyberCore14DocumentLoader10commitDataEPKcm
__ZNK7CyberCore14DocumentLoader11documentURLEv
__ZN7CyberCore14DocumentWriter5beginERKNS_4KURLEbPNS_8DocumentE
__ZN7CyberCore14DocumentWriter14createDocumentERKNS_4KURLE
__ZNK7CyberCore23FrameLoaderStateMachine32isDisplayingInitialEmptyDocumentEv
__ZN7CyberCore17DOMImplementation14createDocumentERKN3WTF6StringEPNS_5FrameERKNS_4KURLEb
__ZN7CyberCore12HTMLDocumentC1EPNS_5FrameERKNS_4KURLEh
__ZN7CyberCore8DocumentC2EPNS_5FrameERKNS_4KURLEj
__ZN7CyberCore9TreeScopeC1Ev
__ZN7CyberCore9TreeScopeC2EPNS_8DocumentE
__ZN7CyberCore24IdTargetObserverRegistry6createEv
__ZN3WTF10PassOwnPtrIN7CyberCore24IdTargetObserverRegistryEED2Ev
__ZN7CyberCore22ScriptExecutionContextC2Ev
__ZN7CyberCore15SecurityContextC2Ev
__ZN7CyberCore15ContextFeatures13defaultSwitchEv
__ZN7CyberCore20UserActionElementSetC1Ev
__ZN7CyberCore28DocumentStyleSheetCollectionC1EPNS_8DocumentE
__ZN7CyberCore16VisitedLinkState6createEPNS_8DocumentE
__ZN7CyberCore12ScriptRunnerC1EPNS_8DocumentE
__ZN7CyberCore18DocumentEventQueue6createEPNS_22ScriptExecutionContextE
__ZN7CyberCore16SuspendableTimerC2EPNS_22ScriptExecutionContextE
__ZN7CyberCore15ActiveDOMObjectC2EPNS_22ScriptExecutionContextE
__ZN7CyberCore26ContextDestructionObserverC2EPNS_22ScriptExecutionContextE
__ZN7CyberCore22ScriptExecutionContext28didCreateDestructionObserverEPNS_26ContextDestructionObserverE
__ZN3WTF9HashTableIPN7CyberCore26ContextDestructionObserverES3_NS_17IdentityExtractorENS_7PtrHashIS3_EENS_10HashTraitsIS3_EES8_E3addINS_22IdentityHashTranslatorIS6_EES3_S3_EENS_18HashTableAddResultINS_17HashTableIteratorIS3_S3_S4_S6_S8_S8_EEEERKT0_RKT1_
__ZN7CyberCore22ScriptExecutionContext24didCreateActiveDOMObjectEPNS_15ActiveDOMObjectE
__ZN3WTF9HashTableIPN7CyberCore15ActiveDOMObjectES3_NS_17IdentityExtractorENS_7PtrHashIS3_EENS_10HashTraitsIS3_EES8_E3addINS_22IdentityHashTranslatorIS6_EES3_S3_EENS_18HashTableAddResultINS_17HashTableIteratorIS3_S3_S4_S6_S8_S8_EEEERKT0_RKT1_
__ZN3WTF9HashTableIPN7CyberCore15ActiveDOMObjectES3_NS_17IdentityExtractorENS_7PtrHashIS3_EENS_10HashTraitsIS3_EES8_E6rehashEi
__ZN7CyberCore15ActiveDOMObject15suspendIfNeededEv
__ZN7CyberCore22ScriptExecutionContext30suspendActiveDOMObjectIfNeededEPNS_15ActiveDOMObjectE
__ZN7CyberCore36provideContextFeaturesToDocumentFromEPNS_8DocumentEPNS_4PageE
__ZN3WTF9HashTableIPKcNS_12KeyValuePairIS2_NS_6OwnPtrIN7CyberCore10SupplementINS5_4PageEEEEEEENS_24KeyValuePairKeyExtractorISA_EENS_7PtrHashIS2_EENS_18HashMapValueTraitsINS_10HashTraitsIS2_EENSG_IS9_EEEESH_E16lookupForWritingINS_22IdentityHashTranslatorISE_EES2_EENSt3__14pairIPSA_bEERKT0_
__ZN3WTF9HashTableIPKcNS_12KeyValuePairIS2_NS_6OwnPtrIN7CyberCore10SupplementINS5_4PageEEEEEEENS_24KeyValuePairKeyExtractorISA_EENS_7PtrHashIS2_EENS_18HashMapValueTraitsINS_10HashTraitsIS2_EENSG_IS9_EEEESH_E3addINS_17HashMapTranslatorISJ_SE_EES2_NS_10PassOwnPtrIS8_EEEENS_18HashTableAddResultINS_17HashTableIteratorIS2_SA_SC_SE_SJ_SH_EEEERKT0_RKT1_
__ZN3WTF9HashTableIPKcNS_12KeyValuePairIS2_NS_6OwnPtrIN7CyberCore10SupplementINS5_4PageEEEEEEENS_24KeyValuePairKeyExtractorISA_EENS_7PtrHashIS2_EENS_18HashMapValueTraitsINS_10HashTraitsIS2_EENSG_IS9_EEEESH_E6lookupINS_22IdentityHashTranslatorISE_EES2_EEPSA_RKT0_
__ZN3WTF9HashTableIPKcNS_12KeyValuePairIS2_NS_6OwnPtrIN7CyberCore10SupplementINS5_4PageEEEEEEENS_24KeyValuePairKeyExtractorISA_EENS_7PtrHashIS2_EENS_18HashMapValueTraitsINS_10HashTraitsIS2_EENSG_IS9_EEEESH_E6rehashEi
__ZN7CyberCore24DocumentMarkerControllerC1Ev
__ZNK7CyberCore11FrameLoader20activeDocumentLoaderEv
__ZN7CyberCore7makeRGBEiii
__ZN7CyberCore5Color13setNamedColorERKN3WTF6StringE
__ZN7CyberCore9findColorEPKcj
__ZN7CyberCore13ColorDataHash23colordata_hash_functionEPKcj
__ZN7CyberCore8Document19initSecurityContextEv
__ZNK7CyberCore11FrameLoader21effectiveSandboxFlagsEv
__ZN7CyberCore15SecurityContext19enforceSandboxFlagsEi
__ZN7CyberCore15SecurityContext17setSecurityOriginEN3WTF10PassRefPtrINS_14SecurityOriginEEE
__ZN7CyberCore21ContentSecurityPolicyC1EPNS_22ScriptExecutionContextE
__ZN7CyberCore15SecurityContext24setContentSecurityPolicyEN3WTF10PassOwnPtrINS_21ContentSecurityPolicyEEE
__ZNK7CyberCore14SecurityOrigin7isLocalEv
__ZN7CyberCore11FrameLoader6openerEv
__ZN7CyberCore8Document15initDNSPrefetchEv
__ZN7CyberCore8Document15createDOMWindowEv
__ZN7CyberCore9DOMWindowC1EPNS_8DocumentE
__ZN7CyberCore15EventTargetDataC1Ev
__ZN7CyberCore16EventListenerMapC1Ev
__ZN7CyberCore11FrameLoader5clearEPNS_8DocumentEbbb
__ZN7CyberCore6Editor5clearEv
__ZN7CyberCore14DocumentWriter5clearEv
__ZN7CyberCore16ScriptController27updatePlatformScriptObjectsEv
__ZN7CyberCore11FrameLoader19setOutgoingReferrerERKNS_4KURLE
__ZNK7CyberCore4KURL24strippedForUseAsReferrerEv
__ZN7CyberCore4KURL7setUserERKN3WTF6StringE
__ZN7CyberCore4KURL7setPassERKN3WTF6StringE
__ZN7CyberCore5Frame11setDocumentEN3WTF10PassRefPtrINS_8DocumentEEE
__ZN7CyberCore8Document6attachERKNS_4Node13AttachContextE
__ZN7CyberCore11RenderArenaC1Ej
__ZN7CyberCore13InitArenaPoolEPNS_9ArenaPoolEPKcjj
__ZN7CyberCore12RenderObjectnwEmPNS_11RenderArenaE
__ZN7CyberCore11RenderArena8allocateEm
__ZN7CyberCore13ArenaAllocateEPNS_9ArenaPoolEjRj
__ZN7CyberCore10RenderViewC1EPNS_8DocumentE
__ZN7CyberCore11RenderBlockC2EPNS_13ContainerNodeE
__ZN7CyberCore9RenderBoxC2EPNS_13ContainerNodeE
__ZN7CyberCore20RenderBoxModelObjectC2EPNS_13ContainerNodeE
__ZN7CyberCore22RenderLayerModelObjectC2EPNS_13ContainerNodeE
__ZN7CyberCore12RenderObjectC2EPNS_4NodeE
__ZNK7CyberCore8Document4viewEv
__ZN7CyberCore12RenderObject30setPreferredLogicalWidthsDirtyEbNS_15MarkingBehaviorE
__ZN7CyberCore10RenderView13setIsInWindowEb
__ZN7CyberCore8Document11recalcStyleENS_4Node11StyleChangeE
__ZNK7CyberCore9FrameView10isPaintingEv
__ZN7CyberCore30InspectorInstrumentationCookieC1Ev
__ZN7CyberCore13ContainerNode26suspendPostAttachCallbacksEv
__ZNK7CyberCore8Document4pageEv
__ZN7CyberCore4Page32setMemoryCacheClientCallsEnabledEb
__ZN7CyberCore21resourceLoadSchedulerEv
__ZN7CyberCore21ResourceLoadScheduler22suspendPendingRequestsEv
__ZN7CyberCore9FrameView20pauseScheduledEventsEv
__ZN7CyberCore20FrameActionScheduler5pauseEv
__ZN7CyberCore9FrameView21beginDeferredRepaintsEv
__ZN7CyberCore13StyleResolver16styleForDocumentEPNS_8DocumentEPNS_15CSSFontSelectorE
__ZN7CyberCore11RenderStyle6createEv
__ZN7CyberCore11RenderStyle18createDefaultStyleEv
__ZN7CyberCore12StyleBoxDataC1Ev
__ZN7CyberCore15StyleVisualDataC1Ev
__ZN7CyberCore19StyleBackgroundDataC1Ev
__ZN7CyberCore9FillLayerC1ENS_14EFillLayerTypeE
__ZN7CyberCore17StyleSurroundDataC1Ev
__ZN7CyberCore10BorderDataC2Ev
__ZN7CyberCore14NinePieceImageC1Ev
__ZN7CyberCore14NinePieceImageC2Ev
__ZN7CyberCore18NinePieceImageDataC2Ev
__ZN7CyberCore25StyleRareNonInheritedDataC1Ev
__ZN7CyberCore25StyleRareNonInheritedDataC2Ev
__ZN7CyberCore11RenderStyle18initialShapeInsideEv
__ZN7CyberCore14NinePieceImage15setMaskDefaultsEv
__ZN7CyberCore18NinePieceImageDataC1ERKS0_
__ZN7CyberCore18NinePieceImageDataC2ERKS0_
__ZN7CyberCore30StyleDeprecatedFlexibleBoxDataC1Ev
__ZN7CyberCore20StyleFlexibleBoxDataC1Ev
__ZN7CyberCore16StyleMarqueeDataC1Ev
__ZN7CyberCore17StyleMultiColDataC1Ev
__ZN7CyberCore7DataRefINS_18StyleTransformDataEE4initEv
__ZN7CyberCore18StyleTransformDataC1Ev
__ZN7CyberCore19TransformOperationsC1Eb
__ZN7CyberCore19TransformOperationsC2Eb
__ZN3WTF6VectorINS_6RefPtrIN7CyberCore18TransformOperationEEELm0ENS_15CrashOnOverflowEEC2ERKS6_
__ZN3WTF6RefPtrIN7CyberCore18StyleTransformDataEEaSERKNS_10PassRefPtrIS2_EE
__ZN7CyberCore7DataRefINS_15StyleFilterDataEE4initEv
__ZN7CyberCore15StyleFilterDataC1Ev
__ZN7CyberCore16FilterOperationsC1Ev
__ZN3WTF6RefPtrIN7CyberCore15StyleFilterDataEEaSERKNS_10PassRefPtrIS2_EE
__ZN7CyberCore7DataRefINS_13StyleGridDataEE4initEv
__ZN7CyberCore13StyleGridDataC1Ev
__ZN3WTF6RefPtrIN7CyberCore13StyleGridDataEEaSERKNS_10PassRefPtrIS2_EE
__ZN7CyberCore17StyleGridItemDataC1Ev
__ZN7CyberCore22StyleRareInheritedDataC1Ev
__ZN7CyberCore18StyleInheritedDataC1Ev
__ZN7CyberCore14SVGRenderStyleC1Ev
__ZN7CyberCore14SVGRenderStyleC2Ev
__ZN7CyberCore14SVGRenderStyleC2ENS0_17CreateDefaultTypeE
__ZN7CyberCore7DataRefINS_13StyleFillDataEE4initEv
__ZN7CyberCore13StyleFillDataC1Ev
__ZN3WTF6RefPtrIN7CyberCore13StyleFillDataEEaSERKNS_10PassRefPtrIS2_EE
__ZN7CyberCore7DataRefINS_15StyleStrokeDataEE4initEv
__ZN7CyberCore15StyleStrokeDataC1Ev
__ZN7CyberCore15StyleStrokeDataC2Ev
__ZN7CyberCore9SVGLengthC1ENS_13SVGLengthModeERKN3WTF6StringE
__ZN7CyberCore9SVGLength16setValueAsStringERKN3WTF6StringERi
__ZN7CyberCore9SVGLength22newValueSpecifiedUnitsEtfRi
__ZN3WTF6RefPtrIN7CyberCore15StyleStrokeDataEEaSERKNS_10PassRefPtrIS2_EE
__ZN7CyberCore13StyleTextDataC1Ev
__ZN7CyberCore13StyleStopDataC1Ev
__ZN7CyberCore13StyleMiscDataC1Ev
__ZN7CyberCore13StyleMiscDataC2Ev
__ZN7CyberCore7DataRefINS_18StyleShadowSVGDataEE4initEv
__ZN7CyberCore18StyleShadowSVGDataC1Ev
__ZN7CyberCore7DataRefINS_26StyleInheritedResourceDataEE4initEv
__ZN7CyberCore26StyleInheritedResourceDataC1Ev
__ZN3WTF6RefPtrIN7CyberCore26StyleInheritedResourceDataEEaSERKNS_10PassRefPtrIS2_EE
__ZN7CyberCore7DataRefINS_17StyleResourceDataEE4initEv
__ZN7CyberCore17StyleResourceDataC1Ev
__ZN3WTF6RefPtrIN7CyberCore17StyleResourceDataEEaSERKNS_10PassRefPtrIS2_EE
__ZN3WTF6RefPtrIN7CyberCore13StyleFillDataEEaSERKS3_
__ZN3WTF6RefPtrIN7CyberCore15StyleStrokeDataEEaSERKS3_
__ZN3WTF6RefPtrIN7CyberCore26StyleInheritedResourceDataEEaSERKS3_
__ZN3WTF6RefPtrIN7CyberCore17StyleResourceDataEEaSERKS3_
__ZNK7CyberCore8Document33shouldDisplaySeamlesslyWithParentEv
__ZNK7CyberCore5Frame16frameScaleFactorEv
__ZN7CyberCore11RenderStyle21setPageScaleTransformEf
__ZN7CyberCore11RenderStyle9setLocaleERKN3WTF12AtomicStringE
__ZNK7CyberCore8Document12inDesignModeEv
__ZN7CyberCore11RenderStyle13setUserModifyENS_11EUserModifyE
__ZNK7CyberCore9FrameView10paginationEv
__ZN7CyberCore34localeToScriptCodeForFontSelectionERKN3WTF6StringE
__ZN3WTF9HashTableINS_6StringENS_12KeyValuePairIS1_11UScriptCodeEENS_24KeyValuePairKeyExtractorIS4_EENS_10StringHashENS_18HashMapValueTraitsINS_10HashTraitsIS1_EENS9_IS3_EEEESA_E16lookupForWritingINS_22IdentityHashTranslatorIS7_EES1_EENSt3__14pairIPS4_bEERKT0_
__ZN3WTF9HashTableINS_6StringENS_12KeyValuePairIS1_11UScriptCodeEENS_24KeyValuePairKeyExtractorIS4_EENS_10StringHashENS_18HashMapValueTraitsINS_10HashTraitsIS1_EENS9_IS3_EEEESA_E3addINS_17HashMapTranslatorISC_S7_EES1_S3_EENS_18HashTableAddResultINS_17HashTableIteratorIS1_S4_S6_S7_SC_SA_EEEERKT0_RKT1_
__ZN3WTF9HashTableINS_6StringENS_12KeyValuePairIS1_11UScriptCodeEENS_24KeyValuePairKeyExtractorIS4_EENS_10StringHashENS_18HashMapValueTraitsINS_10HashTraitsIS1_EENS9_IS3_EEEESA_E6lookupINS_22IdentityHashTranslatorIS7_EES1_EEPS4_RKT0_
__ZN3WTF9HashTableINS_6StringENS_12KeyValuePairIS1_11UScriptCodeEENS_24KeyValuePairKeyExtractorIS4_EENS_10StringHashENS_18HashMapValueTraitsINS_10HashTraitsIS1_EENS9_IS3_EEEESA_E6rehashEi
__ZN3WTF6String7replaceEtt
__ZNK7CyberCore8Document8settingsEv
__ZNK7CyberCore8Settings17fontRenderingModeEv
__ZNK7CyberCore8Settings18standardFontFamilyE11UScriptCode
__ZNK7CyberCore19FontGenericFamilies18standardFontFamilyE11UScriptCode
__ZN7CyberCoreL26genericFontFamilyForScriptERKN3WTF7HashMapIiNS0_12AtomicStringENS0_7IntHashIjEENS_21UScriptCodeHashTraitsENS0_10HashTraitsIS2_EEEE11UScriptCode
__ZN7CyberCore11RenderStyle18setFontDescriptionERKNS_15FontDescriptionE
__ZN7CyberCore18StyleInheritedDataC1ERKS0_
__ZN7CyberCore4FontC1ERKS0_
__ZN7CyberCore4FontC2ERKS0_
__ZN3WTF6VectorINS_12AtomicStringELm1ENS_15CrashOnOverflowEEC2ERKS3_
__ZN7CyberCore4FontC1ERKNS_15FontDescriptionEss
__ZN7CyberCore4FontC2ERKNS_15FontDescriptionEss
__ZNK3WTF9HashTableINS_12AtomicStringENS_12KeyValuePairIS1_N7CyberCore14FontTranscoder13ConverterTypeEEENS_24KeyValuePairKeyExtractorIS6_EENS_16AtomicStringHashENS_18HashMapValueTraitsINS_10HashTraitsIS1_EENSB_IS5_EEEESC_E4findINS_22IdentityHashTranslatorIS9_EES1_EENS_22HashTableConstIteratorIS1_S6_S8_S9_SE_SC_EERKT0_
__ZN7CyberCore15FontDescriptionD2Ev
__ZNK7CyberCore11RenderStyle4fontEv
__ZNK7CyberCore4Font6updateEN3WTF10PassRefPtrINS_12FontSelectorEEE
__ZN3WTF12StringHasher10hashMemoryEPKvj
__ZN3WTF14deleteOwnedPtrIN7CyberCore20FontGlyphsCacheEntryEEEvPT_
__ZN7CyberCore10FontGlyphsC1EN3WTF10PassRefPtrINS_12FontSelectorEEE
__ZN3WTF6VectorINS_12AtomicStringELm3ENS_15CrashOnOverflowEEaSERKS3_
__ZN7CyberCore4Node4diffEPKNS_11RenderStyleES3_PNS_8DocumentE
__ZNK7CyberCore11RenderStyle14hasPseudoStyleENS_8PseudoIdE
__ZN7CyberCore12RenderObject8setStyleEN3WTF10PassRefPtrINS_11RenderStyleEEE
__ZNK7CyberCore12RenderObject21adjustStyleDifferenceENS_15StyleDifferenceEj
__ZN7CyberCore11RenderBlock15styleWillChangeENS_15StyleDifferenceEPKNS_11RenderStyleE
__ZN7CyberCore9RenderBox15styleWillChangeENS_15StyleDifferenceEPKNS_11RenderStyleE
__ZNK7CyberCore12RenderObject6isBodyEv
__ZN7CyberCore22RenderLayerModelObject15styleWillChangeENS_15StyleDifferenceEPKNS_11RenderStyleE
__ZN7CyberCore12RenderObject15styleWillChangeENS_15StyleDifferenceEPKNS_11RenderStyleE
__ZN7CyberCore10RenderView14styleDidChangeENS_15StyleDifferenceEPKNS_11RenderStyleE
__ZN7CyberCore11RenderBlock14styleDidChangeENS_15StyleDifferenceEPKNS_11RenderStyleE
__ZN7CyberCore9RenderBox14styleDidChangeENS_15StyleDifferenceEPKNS_11RenderStyleE
__ZN7CyberCore22RenderLayerModelObject14styleDidChangeENS_15StyleDifferenceEPKNS_11RenderStyleE
__ZN7CyberCore12RenderObject14styleDidChangeENS_15StyleDifferenceEPKNS_11RenderStyleE
__ZN7CyberCore16SVGRenderSupport12styleChangedEPNS_12RenderObjectE
__ZNK7CyberCore12RenderObject10isSVGShapeEv
__ZNK7CyberCore12RenderObject10isSVGImageEv
__ZNK7CyberCore12RenderObject14isSVGContainerEv
__ZNK7CyberCore12RenderObject9isSVGRootEv
__ZN7CyberCore9RenderBox15updateFromStyleEv
__ZN7CyberCore20RenderBoxModelObject15updateFromStyleEv
__ZNK7CyberCore11RenderStyle21visitedDependentColorEi
__ZNK7CyberCore11RenderStyle22colorIncludingFallbackEib
__ZNK7CyberCore10RenderView12isRenderViewEv
__ZNK7CyberCore10RenderView13requiresLayerEv
__ZN7CyberCore11RenderLayernwEmPNS_11RenderArenaE
__ZN7CyberCore11RenderLayerC1EPNS_22RenderLayerModelObjectE
__ZN7CyberCore11RenderLayerC2EPNS_22RenderLayerModelObjectE
__ZNK7CyberCore11RenderLayer22shouldBeNormalFlowOnlyEv
__ZNK7CyberCore12RenderObject8isCanvasEv
__ZNK7CyberCore12RenderObject7isVideoEv
__ZNK7CyberCore12RenderObject16isEmbeddedObjectEv
__ZNK7CyberCore12RenderObject14isRenderIFrameEv
__ZNK7CyberCore11RenderLayer25shouldBeSelfPaintingLayerEv
__ZNK7CyberCore11RenderBlock15virtualChildrenEv
__ZN7CyberCore11RenderLayer19insertOnlyThisLayerEv
__ZN7CyberCore11RenderLayer34clearClipRectsIncludingDescendantsENS_13ClipRectsTypeE
__ZN7CyberCore11RenderLayer12styleChangedENS_15StyleDifferenceEPKNS_11RenderStyleE
__ZN7CyberCore11RenderLayer32updateScrollbarsAfterStyleChangeEPKNS_11RenderStyleE
__ZNK7CyberCore11RenderLayer19horizontalScrollbarEv
__ZNK7CyberCore11RenderLayer17verticalScrollbarEv
__ZN7CyberCore11RenderLayer25setHasHorizontalScrollbarEb
__ZN7CyberCore11RenderLayer23setHasVerticalScrollbarEb
__ZN7CyberCore11RenderLayer38updateStackingContextsAfterStyleChangeEPKNS_11RenderStyleE
__ZN7CyberCore11RenderLayer25updateOutOfFlowPositionedEPKNS_11RenderStyleE
__ZN7CyberCore11RenderLayer23updateScrollCornerStyleEv
__ZNK7CyberCore4Node20containingShadowRootEv
__ZN7CyberCore11RenderLayer18updateResizerStyleEv
__ZN7CyberCore11RenderLayer30updateDescendantDependentFlagsEPN3WTF7HashSetIPKNS_12RenderObjectENS1_7PtrHashIS5_EENS1_10HashTraitsIS5_EEEE
__ZN7CyberCore11RenderLayer30updateNeedsCompositedScrollingEv
__ZNK7CyberCore9FrameView22containsScrollableAreaEPNS_14ScrollableAreaE
__ZN7CyberCore11RenderLayer15updateTransformEv
__ZN7CyberCore11RenderLayer27updateOrRemoveFilterClientsEv
__ZN7CyberCore10RenderView10compositorEv
__ZN7CyberCore21RenderLayerCompositorC1EPNS_10RenderViewE
__ZN7CyberCore21RenderLayerCompositor27updateLayerCompositingStateEPNS_11RenderLayerENS0_24CompositingChangeRepaintE
__ZN7CyberCore21RenderLayerCompositor13updateBackingEPNS_11RenderLayerENS0_24CompositingChangeRepaintE
__ZNK7CyberCore21RenderLayerCompositor24requiresCompositingLayerEPKNS_11RenderLayerEPNS1_38ViewportConstrainedNotCompositedReasonE
__ZNK7CyberCore12RenderObject9isReplicaEv
__ZNK7CyberCore21RenderLayerCompositor28requiresCompositingForPluginEPNS_12RenderObjectE
__ZNK7CyberCore21RenderLayerCompositor27requiresCompositingForFrameEPNS_12RenderObjectE
__ZNK7CyberCore12RenderObject12isRenderPartEv
__ZNK7CyberCore21RenderLayerCompositor31requiresCompositingForAnimationEPNS_12RenderObjectE
__ZNK7CyberCore12RenderObject9animationEv
__ZNK7CyberCore19AnimationController28isRunningAnimationOnRendererEPNS_12RenderObjectENS_13CSSPropertyIDEb
__ZN3WTF9HashTableIPN7CyberCore12RenderObjectENS_12KeyValuePairIS3_NS_6RefPtrINS1_18CompositeAnimationEEEEENS_24KeyValuePairKeyExtractorIS8_EENS_7PtrHashIS3_EENS_18HashMapValueTraitsINS_10HashTraitsIS3_EENSE_IS7_EEEESF_E16lookupForWritingINS_22IdentityHashTranslatorISC_EES3_EENSt3__14pairIPS8_bEERKT0_
__ZN3WTF9HashTableIPN7CyberCore12RenderObjectENS_12KeyValuePairIS3_NS_6RefPtrINS1_18CompositeAnimationEEEEENS_24KeyValuePairKeyExtractorIS8_EENS_7PtrHashIS3_EENS_18HashMapValueTraitsINS_10HashTraitsIS3_EENSE_IS7_EEEESF_E3addINS_17HashMapTranslatorISH_SC_EES3_NS_10PassRefPtrIS6_EEEENS_18HashTableAddResultINS_17HashTableIteratorIS3_S8_SA_SC_SH_SF_EEEERKT0_RKT1_
__ZN3WTF9HashTableIPN7CyberCore12RenderObjectENS_12KeyValuePairIS3_NS_6RefPtrINS1_18CompositeAnimationEEEEENS_24KeyValuePairKeyExtractorIS8_EENS_7PtrHashIS3_EENS_18HashMapValueTraitsINS_10HashTraitsIS3_EENSE_IS7_EEEESF_E6lookupINS_22IdentityHashTranslatorISC_EES3_EEPS8_RKT0_
__ZN3WTF9HashTableIPN7CyberCore12RenderObjectENS_12KeyValuePairIS3_NS_6RefPtrINS1_18CompositeAnimationEEEEENS_24KeyValuePairKeyExtractorIS8_EENS_7PtrHashIS3_EENS_18HashMapValueTraitsINS_10HashTraitsIS3_EENSE_IS7_EEEESF_E6rehashEi
__ZN3WTF9HashTableIPN7CyberCore12RenderObjectENS_12KeyValuePairIS3_NS_6RefPtrINS1_18CompositeAnimationEEEEENS_24KeyValuePairKeyExtractorIS8_EENS_7PtrHashIS3_EENS_18HashMapValueTraitsINS_10HashTraitsIS3_EENSE_IS7_EEEESF_E6removeEPS8_
__ZNK7CyberCore21RenderLayerCompositor30requiresCompositingForPositionEPNS_12RenderObjectEPKNS_11RenderLayerEPNS3_38ViewportConstrainedNotCompositedReasonE
__ZNK7CyberCore11RenderLayer24needsCompositedScrollingEv
__ZNK7CyberCore11RenderLayer36needsCompositingLayersRebuiltForClipEPKNS_11RenderStyleES3_
__ZN7CyberCore11RenderLayer34updateOrRemoveFilterEffectRendererEv
__ZNK7CyberCore16FilterOperations18hasReferenceFilterEv
__ZN7CyberCore11RenderBlock28hasPercentHeightContainerMapEv
__ZN7CyberCore11RenderBlock37updateShapeInsideInfoAfterStyleChangeEPKNS_10ShapeValueES3_
__ZNK7CyberCore11RenderBlock24blockElementContinuationEv
__ZNK7CyberCore20RenderBoxModelObject12continuationEv
__ZN7CyberCore12RenderObject33propagateStyleToAnonymousChildrenEb
__ZNK7CyberCore11RenderBlock12avoidsFloatsEv
__ZNK7CyberCore9RenderBox12avoidsFloatsEv
__ZNK7CyberCore12RenderObject4isHREv
__ZNK7CyberCore12RenderObject8isLegendEv
__ZN7CyberCore9FrameView39updateCompositingLayersAfterStyleChangeEv
__ZNK7CyberCore5Frame15contentRendererEv
__ZN7CyberCore21RenderLayerCompositor32cacheAcceleratedCompositingFlagsEv
__ZN7CyberCore21RenderLayerCompositor23updateCompositingLayersENS_21CompositingUpdateTypeEPNS_11RenderLayerE
__ZN7CyberCore9FrameView21resumeScheduledEventsEv
__ZN7CyberCore20FrameActionScheduler6resumeEv
__ZN7CyberCore9FrameView19endDeferredRepaintsEv
__ZN7CyberCore9FrameView18doDeferredRepaintsEv
__ZNK7CyberCore10ScrollView11isOffscreenEv
__ZNK7CyberCore9FrameTree3topEv
__ZNK7CyberCore11FrameLoader10isCompleteEv
__ZN7CyberCore37WidgetHierarchyUpdatesSuspensionScope11moveWidgetsEv
__ZN7CyberCore13ContainerNode25resumePostAttachCallbacksEv
__ZN7CyberCore11FrameLoader35tellClientAboutPastMemoryCacheLoadsEv
__ZN7CyberCore21ResourceLoadScheduler21resumePendingRequestsEv
__ZN7CyberCore30InspectorInstrumentationCookieD1Ev
__ZN7CyberCore13ContainerNode6attachERKNS_4Node13AttachContextE
__ZN7CyberCore4Node6attachERKNS0_13AttachContextE
__ZNK7CyberCore8Document13axObjectCacheEv
__ZN7CyberCore16ScriptController14updateDocumentEv
__ZN7CyberCore8Document23updateViewportArgumentsEv
__ZNK7CyberCore6Chrome35dispatchViewportPropertiesDidChangeERKNS_17ViewportArgumentsE
__ZN7CyberCore11FrameLoader16didBeginDocumentEb
__ZN7CyberCore8Document13setReadyStateENS0_10ReadyStateE
__ZN7CyberCore5EventC1ERKN3WTF12AtomicStringEbb
__ZN7CyberCore4Node13dispatchEventEN3WTF10PassRefPtrINS_5EventEEE
__ZNK7CyberCore5Event12isMouseEventEv
__ZN7CyberCore21EventDispatchMediator6createEN3WTF10PassRefPtrINS_5EventEEE
__ZN7CyberCore15EventDispatcher13dispatchEventEPNS_4NodeEN3WTF10PassRefPtrINS_21EventDispatchMediatorEEE
__ZN7CyberCore15EventDispatcherC2EPNS_4NodeEN3WTF10PassRefPtrINS_5EventEEE
__ZN7CyberCore15EventRetargeter18calculateEventPathEPNS_4NodeEPNS_5EventERN3WTF6VectorINS5_6OwnPtrINS_12EventContextEEELm32ENS5_15CrashOnOverflowEEE
__ZNK7CyberCore5Event12isFocusEventEv
__ZN7CyberCore15EventPathWalkerC1EPKNS_4NodeE
__ZN7CyberCore4Node14refEventTargetEv
__ZN7CyberCore12EventContextC1EN3WTF10PassRefPtrINS_4NodeEEENS2_INS_11EventTargetEEES6_
__ZN7CyberCore15EventPathWalker12moveToParentEv
__ZNK7CyberCore21EventDispatchMediator13dispatchEventEPNS_15EventDispatcherE
__ZN7CyberCore15EventDispatcher8dispatchEv
__ZN7CyberCore5Event9setTargetEN3WTF10PassRefPtrINS_11EventTargetEEE
__ZN7CyberCore5Event14receivedTargetEv
__ZN7CyberCore18WindowEventContextC1EPNS_5EventEN3WTF10PassRefPtrINS_4NodeEEEPKNS_12EventContextE
__ZN7CyberCore18WindowEventContextC2EPNS_5EventEN3WTF10PassRefPtrINS_4NodeEEEPKNS_12EventContextE
__ZN7CyberCore18WindowEventContext17handleLocalEventsEPNS_5EventE
__ZN7CyberCore4Node16derefEventTargetEv
__ZN7CyberCore11EventTarget18fireEventListenersEPNS_5EventE
__ZN7CyberCore9DOMWindow15eventTargetDataEv
__ZN7CyberCore16EventListenerMap4findERKN3WTF12AtomicStringE
__ZNK7CyberCore12EventContext17handleLocalEventsEPNS_5EventE
__ZN7CyberCore4Node17handleLocalEventsEPNS_5EventE
__ZN7CyberCore15EventDispatcher23dispatchEventAtBubblingERNS_18WindowEventContextE
__ZN7CyberCore15EventDispatcher24dispatchEventPostProcessEPv
__ZN7CyberCore4Node24postDispatchEventHandlerEPNS_5EventEPv
__ZN7CyberCore4Node19defaultEventHandlerEPNS_5EventE
__ZN7CyberCore15EventDispatcherD2Ev
__ZN7CyberCore12EventContextD0Ev
__ZN7CyberCore21EventDispatchMediatorD0Ev
__ZN7CyberCore5EventD0Ev
__ZN7CyberCore5EventD2Ev
__ZN7CyberCore11FrameLoader26updateFirstPartyForCookiesEv
__ZN7CyberCore8Document25initContentSecurityPolicyEv
__ZN7CyberCore20CachedResourceLoader16setImagesEnabledEb
__ZN7CyberCore20CachedResourceLoader17setAutoLoadImagesEb
__ZNK7CyberCore20ResourceResponseBase15httpHeaderFieldEPKc
__ZNK7CyberCore13HTTPHeaderMap3getEPKc
__ZN7CyberCore17HistoryController20restoreDocumentStateEv
__ZN7CyberCore8Document12implicitOpenEv
__ZN7CyberCore8Document13cancelParsingEv
__ZN7CyberCore13ContainerNode14removeChildrenEv
__ZN7CyberCore8Document20setCompatibilityModeENS0_17CompatibilityModeE
__ZN7CyberCore12HTMLDocument12createParserEv
__ZN7CyberCore18HTMLDocumentParserC1EPNS_12HTMLDocumentEb
__ZN7CyberCore18HTMLDocumentParserC2EPNS_12HTMLDocumentEb
__ZN7CyberCore24ScriptableDocumentParserC2EPNS_8DocumentENS_19ParserContentPolicyE
__ZN7CyberCore25DecodedDataDocumentParserC2EPNS_8DocumentE
__ZN7CyberCore14DocumentParserC2EPNS_8DocumentE
__ZN7CyberCore17HTMLParserOptionsC1EPNS_8DocumentE
__ZN7CyberCore17HTMLParserOptionsC2EPNS_8DocumentE
__ZN7CyberCore16ScriptController17canExecuteScriptsENS_33ReasonForCallingCanExecuteScriptsE
__ZN7CyberCore14SubframeLoader12allowPluginsENS_28ReasonForCallingAllowPluginsE
__ZN3WTF10PassOwnPtrIN7CyberCore9HTMLTokenEED2Ev
__ZN7CyberCore13HTMLTokenizerC1ERKNS_17HTMLParserOptionsE
__ZN7CyberCore16HTMLScriptRunnerC1EPNS_8DocumentEPNS_20HTMLScriptRunnerHostE
__ZN7CyberCore15HTMLTreeBuilderC1EPNS_18HTMLDocumentParserEPNS_12HTMLDocumentENS_19ParserContentPolicyEbRKNS_17HTMLParserOptionsE
__ZN7CyberCore20HTMLConstructionSiteC1EPNS_8DocumentENS_19ParserContentPolicyEj
__ZN7CyberCore16HTMLElementStackC1Ev
__ZN7CyberCore25HTMLFormattingElementListC1Ev
__ZN7CyberCore19HTMLParserSchedulerC1EPNS_18HTMLDocumentParserE
__ZN7CyberCore17HTMLSourceTrackerC1Ev
__ZN7CyberCore10XSSAuditorC1Ev
__ZN7CyberCore18XSSAuditorDelegateC1EPNS_8DocumentE
__ZN7CyberCore8Document10setParsingEb
__ZN7CyberCore24DocumentSharedObjectPoolC1Ev
__ZN7CyberCore9FrameView15setContentsSizeERKNS_7IntSizeE
__ZNK7CyberCore10ScrollView12contentsSizeEv
__ZN7CyberCore14DocumentWriter38setDocumentWasLoadedAsPartOfNavigationEv
__ZN7CyberCore14SecurityPolicy32allowSubstituteDataAccessToLocalEv
__ZN7CyberCore14DocumentWriter3endEv
__ZN7CyberCore25DecodedDataDocumentParser5flushEPNS_14DocumentWriterE
__ZN7CyberCore14DocumentWriter21createDecoderIfNeededEv
__ZN7CyberCore12TextEncodingC1ERKN3WTF6StringE
__ZN7CyberCore31atomicCanonicalTextEncodingNameERKN3WTF6StringE
__ZN7CyberCore19TextResourceDecoderC1ERKN3WTF6StringERKNS_12TextEncodingEb
__ZN7CyberCore19TextResourceDecoderC2ERKN3WTF6StringERKNS_12TextEncodingEb
__ZN7CyberCore8Document10setDecoderEN3WTF10PassRefPtrINS_19TextResourceDecoderEEE
__ZN7CyberCore19TextResourceDecoder5flushEv
__ZN7CyberCore12newTextCodecERKNS_12TextEncodingE
__ZN7CyberCoreL36newStreamingTextDecoderWindowsLatin1ERKNS_12TextEncodingEPKv
__ZN7CyberCore15TextCodecLatin16decodeEPKcmbbRb
__ZN7CyberCore15TextCodecLatin1D0Ev
__ZN7CyberCore9TextCodecD2Ev
__ZN7CyberCore18HTMLDocumentParser6finishEv
__ZN7CyberCore15HTMLInputStream13markEndOfFileEv
__ZN7CyberCore15SegmentedStringC2ERKN3WTF6StringE
__ZN7CyberCore15SegmentedString29updateAdvanceFunctionPointersEv
__ZN7CyberCore15SegmentedString30updateSlowCaseFunctionPointersEv
__ZN7CyberCore15SegmentedString6appendERKS0_
__ZN7CyberCore15SegmentedString6appendERKNS_18SegmentedSubstringE
__ZN3WTF5DequeIN7CyberCore18SegmentedSubstringELm0EE10destroyAllEv
__ZN7CyberCore15SegmentedString5closeEv
__ZNK7CyberCore18HTMLDocumentParser19isWaitingForScriptsEv
__ZNK7CyberCore16HTMLScriptRunner23hasParserBlockingScriptEv
__ZNK7CyberCore18HTMLDocumentParser17isExecutingScriptEv
__ZN7CyberCore18HTMLDocumentParser20prepareToStopParsingEv
__ZN7CyberCore18HTMLDocumentParser13pumpTokenizerENS0_15SynchronousModeE
__ZN7CyberCore11PumpSessionC1ERjPNS_8DocumentE
__ZNK7CyberCore15SegmentedString11currentLineEv
__ZN7CyberCore10XSSAuditor4initEPNS_8DocumentEPNS_18XSSAuditorDelegateE
__ZNK7CyberCore4KURL4copyEv
__ZN7CyberCore18HTMLDocumentParser16canTakeNextTokenENS0_15SynchronousModeERNS_11PumpSessionE
__ZN7CyberCore19NavigationScheduler21locationChangePendingEv
__ZN7CyberCore17HTMLSourceTracker5startERNS_15SegmentedStringEPNS_13HTMLTokenizerERNS_9HTMLTokenE
__ZN7CyberCore15SegmentedString5clearEv
__ZN7CyberCore15SegmentedStringaSERKS0_
__ZN3WTF5DequeIN7CyberCore18SegmentedSubstringELm0EEC2ERKS3_
__ZNK7CyberCore15SegmentedString6lengthEv
__ZN7CyberCore13HTMLTokenizer9nextTokenERNS_15SegmentedStringERNS_9HTMLTokenE
__ZN7CyberCore23InputStreamPreprocessorINS_13HTMLTokenizerEE25processNextInputCharacterERNS_15SegmentedStringE
__ZN7CyberCore13HTMLTokenizer13emitEndOfFileERNS_15SegmentedStringE
__ZN7CyberCore15SegmentedString34advanceAndUpdateLineNumberSlowCaseEv
__ZN7CyberCore15SegmentedString16advanceSubstringEv
__ZN7CyberCore17HTMLSourceTracker3endERNS_15SegmentedStringEPNS_13HTMLTokenizerERNS_9HTMLTokenE
__ZN7CyberCore10XSSAuditor11filterTokenERKNS_18FilterTokenRequestE
__ZN7CyberCore18HTMLDocumentParser26constructTreeFromHTMLTokenERNS_9HTMLTokenE
__ZN7CyberCore15AtomicHTMLTokenC2ERNS_9HTMLTokenE
__ZN7CyberCore15HTMLTreeBuilder13constructTreeEPNS_15AtomicHTMLTokenE
__ZN7CyberCore15HTMLTreeBuilder12processTokenEPNS_15AtomicHTMLTokenE
__ZN7CyberCore15HTMLTreeBuilder16processEndOfFileEPNS_15AtomicHTMLTokenE
__ZN7CyberCore20HTMLConstructionSite27setDefaultCompatibilityModeEv
__ZN3WTF14deleteOwnedPtrIN7CyberCore18SelectorQueryCacheEEEvPT_
__ZN7CyberCore18SelectorQueryCache10invalidateEv
__ZN7CyberCore28DocumentStyleSheetCollection18clearPageUserSheetEv
__ZN7CyberCore28DocumentStyleSheetCollection33invalidateInjectedStyleSheetCacheEv
__ZN7CyberCore8Document20styleResolverChangedENS_23StyleResolverUpdateFlagE
__ZN7CyberCore28DocumentStyleSheetCollection23updateActiveStyleSheetsENS0_10UpdateFlagE
__ZN7CyberCore28DocumentStyleSheetCollection24collectActiveStyleSheetsERN3WTF6VectorINS1_6RefPtrINS_10StyleSheetEEELm0ENS1_15CrashOnOverflowEEE
__ZNK7CyberCore28DocumentStyleSheetCollection29updateInjectedStyleSheetCacheEv
__ZN3WTF6VectorINS_6RefPtrIN7CyberCore13CSSStyleSheetEEELm0ENS_15CrashOnOverflowEE14shrinkCapacityEm
__ZN3WTF6VectorINS_6RefPtrIN7CyberCore13CSSStyleSheetEEELm0ENS_15CrashOnOverflowEE6appendIS4_EEvPKT_m
__ZNK7CyberCore8Document20seamlessParentIFrameEv
__ZN7CyberCore28DocumentStyleSheetCollection23analyzeStyleSheetChangeENS0_10UpdateFlagERKN3WTF6VectorINS2_6RefPtrINS_13CSSStyleSheetEEELm0ENS2_15CrashOnOverflowEEERNS0_23StyleResolverUpdateTypeERb
__ZN7CyberCore8Document18clearStyleResolverEv
__ZNK7CyberCore8Document46notifySeamlessChildDocumentsOfStylesheetUpdateEv
__ZN7CyberCore8Document19scheduleStyleRecalcEv
__ZN3WTF9HashTableIPN7CyberCore8DocumentES3_NS_17IdentityExtractorENS_7PtrHashIS3_EENS_10HashTraitsIS3_EES8_E3addINS_22IdentityHashTranslatorIS6_EES3_S3_EENS_18HashTableAddResultINS_17HashTableIteratorIS3_S3_S4_S6_S8_S8_EEEERKT0_RKT1_
__ZN3WTF9HashTableIPN7CyberCore8DocumentES3_NS_17IdentityExtractorENS_7PtrHashIS3_EENS_10HashTraitsIS3_EES8_E6rehashEi
__ZN7CyberCore15HTMLTreeBuilder20defaultForBeforeHTMLEv
__ZN3WTF6VectorIN7CyberCore9AttributeELm0ENS_15CrashOnOverflowEEC2ERKS4_
__ZN7CyberCore20HTMLConstructionSite32insertHTMLHtmlStartTagBeforeHTMLEPNS_15AtomicHTMLTokenE
__ZN7CyberCore15HTMLHtmlElement6createEPNS_8DocumentE
__ZN7CyberCore15HTMLHtmlElementC2ERKNS_13QualifiedNameEPNS_8DocumentE
__ZN7CyberCore7Element19parserSetAttributesERKN3WTF6VectorINS_9AttributeELm0ENS1_15CrashOnOverflowEEE
__ZN7CyberCore20HTMLConstructionSite11attachLaterEPNS_13ContainerNodeEN3WTF10PassRefPtrINS_4NodeEEEb
__ZNK7CyberCore20HTMLConstructionSite18shouldFosterParentEv
__ZN7CyberCore16HTMLElementStack19pushHTMLHtmlElementEN3WTF10PassRefPtrINS_13HTMLStackItemEEE
__ZN7CyberCore20HTMLConstructionSite18executeQueuedTasksEv
__ZN3WTF12VectorBufferIN7CyberCore24HTMLConstructionSiteTaskELm1EE4swapERS3_
__ZN7CyberCoreL11executeTaskERNS_24HTMLConstructionSiteTaskE
__ZN7CyberCore13ContainerNode17parserAppendChildEN3WTF10PassRefPtrINS_4NodeEEE
__ZN7CyberCore9TreeScope13adoptIfNeededEPNS_4NodeE
__ZNK7CyberCore4Node48updateAncestorConnectedSubframeCountForInsertionEv
__ZN7CyberCore22ChildListMutationScopeC2EPNS_4NodeE
__ZN7CyberCore8Document15childrenChangedEbPNS_4NodeES2_i
__ZN7CyberCore13ContainerNode15childrenChangedEbPNS_4NodeES2_i
__ZN7CyberCore4Node35invalidateNodeListCachesInAncestorsEPKNS_13QualifiedNameEPNS_7ElementE
__ZNK7CyberCore8Document30shouldInvalidateNodeListCachesEPKNS_13QualifiedNameE
__ZN7CyberCore26ChildNodeInsertionNotifier6notifyEPNS_4NodeE
__ZN7CyberCore26ChildNodeInsertionNotifier30notifyNodeInsertedIntoDocumentEPNS_4NodeE
__ZN7CyberCore7Element12insertedIntoEPNS_13ContainerNodeE
__ZN7CyberCore26ChildNodeInsertionNotifier36notifyDescendantInsertedIntoDocumentEPNS_13ContainerNodeE
__ZN7CyberCore22ChildNodesLazySnapshot8nextNodeEv
__ZNK7CyberCore7Element6shadowEv
__ZN3WTF6OwnPtrINS_6VectorINS_6RefPtrIN7CyberCore4NodeEEELm0ENS_15CrashOnOverflowEEEED2Ev
__ZN7CyberCore7Element6attachERKNS_4Node13AttachContextE
__ZN7CyberCore20NodeRenderingContextC1EPNS_4NodeERKNS1_13AttachContextE
__ZN7CyberCore20NodeRenderingContext32createRendererForElementIfNeededEv
__ZN7CyberCore7Element17setIsInsideRegionEb
__ZNK7CyberCore20NodeRenderingContext20shouldCreateRendererEv
__ZN7CyberCore8Document21shouldCreateRenderersEv
__ZNK7CyberCore12RenderObject15canHaveChildrenEv
__ZNK7CyberCore13ContainerNode25childShouldCreateRendererERKNS_20NodeRenderingContextE
__ZN7CyberCore7Element16styleForRendererEv
__ZN7CyberCore8Document19createStyleResolverEv
__ZN7CyberCore13StyleResolverC1EPNS_8DocumentEb
__ZN7CyberCore13StyleResolverC2EPNS_8DocumentEb
__ZN7CyberCore16DocumentRuleSetsC1Ev
__ZN7CyberCore15CSSFontSelectorC1EPNS_8DocumentE
__ZN7CyberCore9FontCache9addClientEPNS_12FontSelectorE
__ZN3WTF9HashTableIPN7CyberCore12FontSelectorES3_NS_17IdentityExtractorENS_7PtrHashIS3_EENS_10HashTraitsIS3_EES8_E3addINS_22IdentityHashTranslatorIS6_EES3_S3_EENS_18HashTableAddResultINS_17HashTableIteratorIS3_S3_S4_S6_S8_S8_EEEERKT0_RKT1_
__ZN3WTF9HashTableIPN7CyberCore12FontSelectorES3_NS_17IdentityExtractorENS_7PtrHashIS3_EENS_10HashTraitsIS3_EES8_E6rehashEi
__ZN7CyberCore22DeprecatedStyleBuilder18sharedStyleBuilderEv
__ZN7CyberCore22DeprecatedStyleBuilderC2Ev
__ZN7CyberCore21CSSDefaultStyleSheets16initDefaultStyleEPNS_7ElementE
__ZN7CyberCore21CSSDefaultStyleSheets22loadSimpleDefaultStyleEv
__ZN7CyberCoreL12parseUASheetERKN3WTF6StringE
__ZN7CyberCore16CSSParserContextC1ENS_13CSSParserModeERKNS_4KURLE
__ZN7CyberCore18StyleSheetContentsC1EPNS_15StyleRuleImportERKN3WTF6StringERKNS_16CSSParserContextE
__ZN7CyberCore18StyleSheetContents11parseStringERKN3WTF6StringE
__ZN7CyberCore9CSSParserC1ERKNS_16CSSParserContextE
__ZN7CyberCore9CSSParserC2ERKNS_16CSSParserContextE
__ZN7CyberCore11SourceRangeC1Ev
__ZN7CyberCore11SourceRangeC1Ejj
__ZN7CyberCore9CSSParser10parseSheetEPNS_18StyleSheetContentsERKN3WTF6StringEiPNS3_6VectorINS3_6RefPtrINS_17CSSRuleSourceDataEEELm0ENS3_15CrashOnOverflowEEEb
__ZN7CyberCore9CSSParser11setupParserEPKcjRKN3WTF6StringES2_j
__Z10cssyyparsePN7CyberCore9CSSParserE
__ZN7CyberCore9CSSParser7realLexIhEEiPv
__ZN7CyberCore9CSSParser15parseIdentifierIhEEvRPT_RNS_15CSSParserStringERb
__ZN7CyberCore9CSSParser19markRuleHeaderStartENS_17CSSRuleSourceData4TypeE
__ZN7CyberCore9CSSParser17markSelectorStartEv
__ZN7CyberCore13QualifiedNameC1ERKN3WTF12AtomicStringES4_S4_
__ZN7CyberCore9CSSParser33createFloatingSelectorWithTagNameERKNS_13QualifiedNameE
__ZN7CyberCore17CSSParserSelectorC1ERKNS_13QualifiedNameE
__ZN3WTF9HashTableIPN7CyberCore17CSSParserSelectorES3_NS_17IdentityExtractorENS_7PtrHashIS3_EENS_10HashTraitsIS3_EES8_E3addINS_22IdentityHashTranslatorIS6_EES3_S3_EENS_18HashTableAddResultINS_17HashTableIteratorIS3_S3_S4_S6_S8_S8_EEEERKT0_RKT1_
__ZN3WTF9HashTableIPN7CyberCore17CSSParserSelectorES3_NS_17IdentityExtractorENS_7PtrHashIS3_EENS_10HashTraitsIS3_EES8_E6rehashEi
__ZN7CyberCore13QualifiedNameD1Ev
__ZN7CyberCore9CSSParser20sinkFloatingSelectorEPNS_17CSSParserSelectorE
__ZN3WTF7HashSetIPN7CyberCore17CSSParserSelectorENS_7PtrHashIS3_EENS_10HashTraitsIS3_EEE6removeERKS3_
__ZN3WTF9HashTableIPN7CyberCore17CSSParserSelectorES3_NS_17IdentityExtractorENS_7PtrHashIS3_EENS_10HashTraitsIS3_EES8_E6lookupINS_22IdentityHashTranslatorIS6_EES3_EEPS3_RKT0_
__ZN3WTF6VectorINS_6OwnPtrIN7CyberCore17CSSParserSelectorEEELm0ENS_15CrashOnOverflowEE15reserveCapacityEm
__ZN7CyberCore9CSSParser33updateLastSelectorLineAndPositionEv
__ZN7CyberCore9CSSParser15markSelectorEndEv
__ZN7CyberCore9CSSParser17markRuleHeaderEndEv
__ZN7CyberCore9CSSParser17markRuleBodyStartEv
__ZN7CyberCore9CSSParser17markPropertyStartEv
__ZN7CyberCore13cssPropertyIDERKNS_15CSSParserStringE
__ZN7CyberCoreL13cssPropertyIDIhEENS_13CSSPropertyIDEPKT_j
__ZN7CyberCore12findPropertyEPKcj
__ZN7CyberCore20CSSPropertyNamesHash21propery_hash_functionEPKcj
__ZN7CyberCore17cssValueKeywordIDERKNS_15CSSParserStringE
__ZN7CyberCore9findValueEPKcj
__ZN7CyberCore20CSSValueKeywordsHash19value_hash_functionEPKcj
__ZN7CyberCore9CSSParser23createFloatingValueListEv
__ZN3WTF9HashTableIPN7CyberCore18CSSParserValueListES3_NS_17IdentityExtractorENS_7PtrHashIS3_EENS_10HashTraitsIS3_EES8_E3addINS_22IdentityHashTranslatorIS6_EES3_S3_EENS_18HashTableAddResultINS_17HashTableIteratorIS3_S3_S4_S6_S8_S8_EEEERKT0_RKT1_
__ZN3WTF9HashTableIPN7CyberCore18CSSParserValueListES3_NS_17IdentityExtractorENS_7PtrHashIS3_EENS_10HashTraitsIS3_EES8_E6rehashEi
__ZN7CyberCore9CSSParser17sinkFloatingValueERNS_14CSSParserValueE
__ZN7CyberCore18CSSParserValueList8addValueERKNS_14CSSParserValueE
__ZN7CyberCore9CSSParser21sinkFloatingValueListEPNS_18CSSParserValueListE
__ZN3WTF7HashSetIPN7CyberCore18CSSParserValueListENS_7PtrHashIS3_EENS_10HashTraitsIS3_EEE6removeERKS3_
__ZN3WTF9HashTableIPN7CyberCore18CSSParserValueListES3_NS_17IdentityExtractorENS_7PtrHashIS3_EENS_10HashTraitsIS3_EES8_E6lookupINS_22IdentityHashTranslatorIS6_EES3_EEPS3_RKT0_
__ZN7CyberCore9CSSParser10parseValueENS_13CSSPropertyIDEb
__ZN7CyberCoreL30isValidKeywordPropertyAndValueENS_13CSSPropertyIDEiRKNS_16CSSParserContextE
__ZN7CyberCore12cssValuePoolEv
__ZN7CyberCore12CSSValuePoolC2Ev
__ZN7CyberCore17CSSPrimitiveValueC1Ej
__ZN7CyberCore12CSSValuePool21createIdentifierValueEi
__ZN7CyberCore17CSSPrimitiveValueC1Ei
__ZN7CyberCore9CSSParser11addPropertyENS_13CSSPropertyIDEN3WTF10PassRefPtrINS_8CSSValueEEEbb
__ZN7CyberCore11CSSProperty19isInheritedPropertyENS_13CSSPropertyIDE
__ZN7CyberCore18CSSParserValueListD1Ev
__ZN7CyberCore18CSSParserValueListD2Ev
__ZN7CyberCore9CSSParser15markPropertyEndEbb
__ZN7CyberCore9CSSParser15createStyleRuleEPN3WTF6VectorINS1_6OwnPtrINS_17CSSParserSelectorEEELm0ENS1_15CrashOnOverflowEEE
__ZN7CyberCore9StyleRuleC1Ei
__ZN7CyberCore15CSSSelectorList19adoptSelectorVectorERN3WTF6VectorINS1_6OwnPtrINS_17CSSParserSelectorEEELm0ENS1_15CrashOnOverflowEEE
__ZN3WTF6VectorINS_6OwnPtrIN7CyberCore17CSSParserSelectorEEELm0ENS_15CrashOnOverflowEE14shrinkCapacityEm
__ZN7CyberCore17CSSParserSelectorD1Ev
__ZN7CyberCore17CSSParserSelectorD2Ev
__ZN7CyberCore9CSSParser22createStylePropertySetEv
__ZN7CyberCoreL16filterPropertiesEbRKN3WTF6VectorINS_11CSSPropertyELm256ENS0_15CrashOnOverflowEEERS4_RmRNS0_8BitArrayILj394EEE
__ZN7CyberCore25ImmutableStylePropertySet6createEPKNS_11CSSPropertyEjNS_13CSSParserModeE
__ZN7CyberCore9StyleRule13setPropertiesEN3WTF10PassRefPtrINS_16StylePropertySetEEE
__ZN3WTF6VectorINS_6RefPtrIN7CyberCore13StyleRuleBaseEEELm0ENS_15CrashOnOverflowEE15reserveCapacityEm
__ZN7CyberCore9CSSParser40processAndAddNewRuleToSourceTreeIfNeededEv
__ZN3WTF6VectorIN7CyberCore11CSSPropertyELm256ENS_15CrashOnOverflowEE14shrinkCapacityEm
__ZN7CyberCore18StyleSheetContents16parserAppendRuleEN3WTF10PassRefPtrINS_13StyleRuleBaseEEE
__ZNK7CyberCore15CSSSelectorList14componentCountEv
__ZN7CyberCore9CSSParser17detectNumberTokenIhEEvPT_i
__ZN7CyberCore15marginShorthandEv
__ZN7CyberCore9CSSParser12parse4ValuesENS_13CSSPropertyIDEPKS1_b
__ZN7CyberCore9CSSParser13isCalculationEPNS_14CSSParserValueE
__ZN7CyberCore9CSSParser19parseValidPrimitiveEiPNS_14CSSParserValueE
__ZN7CyberCore12CSSValuePool11createValueEdNS_17CSSPrimitiveValue9UnitTypesE
__ZN7CyberCore17CSSPrimitiveValueC1EdNS0_9UnitTypesE
__ZN7CyberCore9CSSParser22createFloatingSelectorEv
__ZN7CyberCore17CSSParserSelectorC1Ev
__ZN7CyberCore15CSSParserString5lowerEv
__ZN7CyberCore17CSSParserSelector8setValueERKN3WTF12AtomicStringE
__ZNK7CyberCore11CSSSelector17extractPseudoTypeEv
__ZN7CyberCore11CSSSelector15parsePseudoTypeERKN3WTF12AtomicStringE
__ZN7CyberCoreL19nameToPseudoTypeMapEv
__ZN3WTF9HashTableIPNS_16AtomicStringImplENS_12KeyValuePairIS2_N7CyberCore11CSSSelector10PseudoTypeEEENS_24KeyValuePairKeyExtractorIS7_EENS_7PtrHashIS2_EENS_18HashMapValueTraitsINS_10HashTraitsIS2_EENSD_IS6_EEEESE_E16lookupForWritingINS_22IdentityHashTranslatorISB_EES2_EENSt3__14pairIPS7_bEERKT0_
__ZN3WTF9HashTableIPNS_16AtomicStringImplENS_12KeyValuePairIS2_N7CyberCore11CSSSelector10PseudoTypeEEENS_24KeyValuePairKeyExtractorIS7_EENS_7PtrHashIS2_EENS_18HashMapValueTraitsINS_10HashTraitsIS2_EENSD_IS6_EEEESE_E3addINS_17HashMapTranslatorISG_SB_EES2_S6_EENS_18HashTableAddResultINS_17HashTableIteratorIS2_S7_S9_SB_SG_SE_EEEERKT0_RKT1_
__ZN3WTF9HashTableIPNS_16AtomicStringImplENS_12KeyValuePairIS2_N7CyberCore11CSSSelector10PseudoTypeEEENS_24KeyValuePairKeyExtractorIS7_EENS_7PtrHashIS2_EENS_18HashMapValueTraitsINS_10HashTraitsIS2_EENSD_IS6_EEEESE_E6lookupINS_22IdentityHashTranslatorISB_EES2_EEPS7_RKT0_
__ZN3WTF9HashTableIPNS_16AtomicStringImplENS_12KeyValuePairIS2_N7CyberCore11CSSSelector10PseudoTypeEEENS_24KeyValuePairKeyExtractorIS7_EENS_7PtrHashIS2_EENS_18HashMapValueTraitsINS_10HashTraitsIS2_EENSD_IS6_EEEESE_E6rehashEi
__ZN7CyberCore9CSSParser32rewriteSpecifiersWithElementNameERKN3WTF12AtomicStringES4_PNS_17CSSParserSelectorEb
__ZN7CyberCore17CSSParserSelector18prependTagSelectorERKNS_13QualifiedNameEb
__ZN7CyberCore11CSSSelectorD2Ev
__ZN3WTF9HashTableIPN7CyberCore17CSSParserSelectorES3_NS_17IdentityExtractorENS_7PtrHashIS3_EENS_10HashTraitsIS3_EES8_E16lookupForWritingINS_22IdentityHashTranslatorIS6_EES3_EENSt3__14pairIPS3_bEERKT0_
__ZN7CyberCore16outlineShorthandEv
__ZN7CyberCore9CSSParser14parseShorthandENS_13CSSPropertyIDERKNS_22StylePropertyShorthandEb
__ZN7CyberCore9CSSParser19parseColorFromValueEPNS_14CSSParserValueERj
__ZN7CyberCore9CSSParser14fastParseColorINS_15CSSParserStringEEEbRjRKT_b
__ZN7CyberCoreL22fastParseColorInternalIhEEbRjPKT_jb
__ZN7CyberCore9CSSParser19parseTextDecorationENS_13CSSPropertyIDEb
__ZN7CyberCore12CSSValueListC1ENS_8CSSValue18ValueListSeparatorE
__ZN7CyberCore9CSSParser17rewriteSpecifiersEPNS_17CSSParserSelectorES2_
__ZN7CyberCore17CSSParserSelector16appendTagHistoryENS_11CSSSelector8RelationEN3WTF10PassOwnPtrIS0_EE
__ZN7CyberCore18StyleSheetContents11shrinkToFitEv
__ZN3WTF6VectorINS_6RefPtrIN7CyberCore15StyleRuleImportEEELm0ENS_15CrashOnOverflowEE14shrinkCapacityEm
__ZN3WTF6VectorINS_6RefPtrIN7CyberCore13StyleRuleBaseEEELm0ENS_15CrashOnOverflowEE14shrinkCapacityEm
__ZN3WTF6OwnPtrINS_6VectorINS_6RefPtrIN7CyberCore17CSSRuleSourceDataEEELm0ENS_15CrashOnOverflowEEEE5clearEv
__ZN7CyberCore9CSSParserD1Ev
__ZN7CyberCore9CSSParserD2Ev
__ZN3WTF15deleteAllValuesIPNS_6VectorINS_6OwnPtrIN7CyberCore17CSSParserSelectorEEELm0ENS_15CrashOnOverflowEEEKNS_9HashTableIS8_S8_NS_17IdentityExtractorENS_7PtrHashIS8_EENS_10HashTraitsIS8_EESE_EEEEvRT0_
__ZN3WTF15deleteAllValuesIPN7CyberCore17CSSParserFunctionEKNS_9HashTableIS3_S3_NS_17IdentityExtractorENS_7PtrHashIS3_EENS_10HashTraitsIS3_EES9_EEEEvRT0_
__ZN3WTF6OwnPtrINS_6VectorINS0_IN7CyberCore13MediaQueryExpEEELm0ENS_15CrashOnOverflowEEEED2Ev
__ZN3WTF6VectorINS_6RefPtrIN7CyberCore13MediaQuerySetEEELm0ENS_15CrashOnOverflowEED2Ev
__ZN3WTF6VectorINS_6RefPtrIN7CyberCore13StyleKeyframeEEELm0ENS_15CrashOnOverflowEED2Ev
__ZN3WTF6OwnPtrINS_6VectorINS_6RefPtrIN7CyberCore17CSSRuleSourceDataEEELm0ENS_15CrashOnOverflowEEEED2Ev
__ZN7CyberCore19MediaQueryEvaluatorC1EPKcb
__ZN7CyberCore7RuleSet17addRulesFromSheetEPNS_18StyleSheetContentsERKNS_19MediaQueryEvaluatorEPNS_13StyleResolverEPKNS_13ContainerNodeE
__ZN7CyberCore7RuleSet13addChildRulesERKN3WTF6VectorINS1_6RefPtrINS_13StyleRuleBaseEEELm0ENS1_15CrashOnOverflowEEERKNS_19MediaQueryEvaluatorEPNS_13StyleResolverEPKNS_13ContainerNodeEbNS_12AddRuleFlagsE
__ZN7CyberCore7RuleSet7addRuleEPNS_9StyleRuleEjNS_12AddRuleFlagsE
__ZN7CyberCore8RuleDataC2EPNS_9StyleRuleEjjNS_12AddRuleFlagsE
__ZN7CyberCore23SelectorCheckerFastPath6canUseEPKNS_11CSSSelectorE
__ZNK7CyberCore11CSSSelector11specificityEv
__ZN7CyberCore15SelectorChecker22determineLinkMatchTypeEPKNS_11CSSSelectorE
__ZN7CyberCore14SelectorFilter23collectIdentifierHashesEPKNS_11CSSSelectorEPjj
__ZN7CyberCore14RuleFeatureSet27collectFeaturesFromSelectorEPKNS_11CSSSelectorE
__ZN7CyberCore7RuleSet21findBestRuleSetAndAddEPKNS_11CSSSelectorERNS_8RuleDataE
__ZN7CyberCore7RuleSet12addToRuleSetEPN3WTF16AtomicStringImplERNS1_7HashMapIS3_NS1_6OwnPtrINS1_6VectorINS_8RuleDataELm0ENS1_15CrashOnOverflowEEEEENS1_7PtrHashIS3_EENS1_10HashTraitsIS3_EENSD_ISA_EEEERKS7_
__ZN3WTF6VectorIN7CyberCore8RuleDataELm0ENS_15CrashOnOverflowEE14expandCapacityEmPKS2_
__ZN3WTF6VectorIN7CyberCore8RuleDataELm0ENS_15CrashOnOverflowEE15reserveCapacityEm
__ZN7CyberCore7RuleSet11shrinkToFitEv
__ZN3WTF6VectorIN7CyberCore8RuleDataELm0ENS_15CrashOnOverflowEE14shrinkCapacityEm
__ZN3WTF6VectorIPN7CyberCore13StyleRulePageELm0ENS_15CrashOnOverflowEE14shrinkCapacityEm
__ZNK7CyberCore9FrameView9mediaTypeEv
__ZN7CyberCore19MediaQueryEvaluatorC1ERKN3WTF6StringEb
__ZN7CyberCore13StyleResolver15styleForElementEPNS_7ElementEPNS_11RenderStyleENS_20StyleSharingBehaviorENS_20RuleMatchingBehaviorEPNS_12RenderRegionE
__ZN7CyberCore13StyleResolver5State19initForStyleResolveEPNS_8DocumentEPNS_7ElementEPNS_11RenderStyleEPNS_12RenderRegionE
__ZN7CyberCore20NodeRenderingContextC1EPNS_4NodeE
__ZN7CyberCore20NodeRenderingContextD1Ev
__ZN7CyberCore11RenderStyle11inheritFromEPKS0_NS0_18IsAtShadowBoundaryE
__ZN7CyberCore21CSSDefaultStyleSheets34ensureDefaultStyleSheetsForElementEPNS_7ElementERb
__ZNK7CyberCore7Element15isMathMLElementEv
__ZNK7CyberCore19MediaQueryEvaluator22mediaTypeMatchSpecificEPKc
__ZN7CyberCore20ElementRuleCollector12matchUARulesEv
__ZN7CyberCore20ElementRuleCollector12matchUARulesEPNS_7RuleSetE
__ZN7CyberCore20ElementRuleCollector20collectMatchingRulesERKNS_12MatchRequestERNS_13StyleResolver9RuleRangeE
__ZNK7CyberCore7Element14shadowPseudoIdEv
__ZNK7CyberCore7Element12getAttributeERKNS_13QualifiedNameE
__ZNK7CyberCore4Node15isWebVTTElementEv
__ZN7CyberCore15SelectorChecker23matchesFocusPseudoClassEPKNS_7ElementE
__ZN7CyberCore20ElementRuleCollector29doCollectMatchingRulesForListILb0EEEvPKN3WTF6VectorINS_8RuleDataELm0ENS2_15CrashOnOverflowEEERKNS_12MatchRequestERNS_13StyleResolver9RuleRangeE
__ZN7CyberCore20ElementRuleCollector11ruleMatchesERKNS_8RuleDataEPKNS_13ContainerNodeERNS_8PseudoIdE
__ZN7CyberCore20ElementRuleCollector14addMatchedRuleEPKNS_8RuleDataE
__ZN7CyberCore20ElementRuleCollector27sortAndTransferMatchedRulesEv
__ZNSt3__16__sortIRPFbPKN7CyberCore8RuleDataES4_EPS4_EEvT0_S9_T_
__ZN3WTF6RefPtrIN7CyberCore16StylePropertySetEEaSEPS2_
__ZN7CyberCore20ElementRuleCollector13matchedResultEv
__ZN7CyberCore13StyleResolver22applyMatchedPropertiesERKNS0_11MatchResultEPKNS_7ElementE
__ZN7CyberCore13StyleResolver22applyMatchedPropertiesILNS0_20StyleApplicationPassE0EEEvRKNS0_11MatchResultEbiib
__ZN7CyberCore13StyleResolver13applyPropertyENS_13CSSPropertyIDEPNS_8CSSValueE
__ZN7CyberCore20ApplyPropertyDisplay10applyValueENS_13CSSPropertyIDEPNS_13StyleResolverEPNS_8CSSValueE
__ZN7CyberCore13StyleResolver10updateFontEv
__ZN7CyberCore13StyleResolver22applyMatchedPropertiesILNS0_20StyleApplicationPassE1EEEvRKNS0_11MatchResultEbiib
__ZN7CyberCore13StyleResolver17loadPendingImagesEv
__ZN7CyberCore13StyleResolver23loadPendingSVGDocumentsEv
__ZN7CyberCore13StyleResolver17adjustRenderStyleEPNS_11RenderStyleES2_PNS_7ElementE
__ZN7CyberCore11RenderStyle16setHasAutoZIndexEv
__ZN7CyberCore11RenderStyle9setZIndexEi
__ZN7CyberCore12StyleBoxDataC1ERKS0_
__ZN7CyberCore12StyleBoxDataC2ERKS0_
__ZN7CyberCore11RenderStyle16adjustAnimationsEv
__ZN7CyberCore11RenderStyle17adjustTransitionsEv
__ZNK7CyberCore7Element20isFormControlElementEv
__ZN7CyberCore13StyleResolver5State5clearEv
__ZN7CyberCore8Document22didAccessStyleResolverEv
__ZN7CyberCore20ElementRuleCollectorD2Ev
__ZN7CyberCore13StyleResolver11MatchResultD2Ev
__ZN7CyberCore19MediaQueryEvaluatorC1ERKN3WTF6StringEPNS_5FrameEPNS_11RenderStyleE
__ZN7CyberCore19MediaQueryEvaluatorD1Ev
__ZN7CyberCore16DocumentRuleSets16resetAuthorStyleEv
__ZN7CyberCore16DocumentRuleSets13initUserStyleEPNS_28DocumentStyleSheetCollectionERKNS_19MediaQueryEvaluatorERNS_13StyleResolverE
__ZN7CyberCore28DocumentStyleSheetCollection13pageUserSheetEv
__ZNK7CyberCore4Page14userStyleSheetEv
__ZNK7CyberCore28DocumentStyleSheetCollection23injectedUserStyleSheetsEv
__ZN7CyberCore7RuleSetD2Ev
__ZN7CyberCore14RuleFeatureSetD2Ev
__ZN3WTF9HashTableIPNS_16AtomicStringImplENS_12KeyValuePairIS2_NS_6OwnPtrINS_6VectorIN7CyberCore8RuleDataELm0ENS_15CrashOnOverflowEEEEEEENS_24KeyValuePairKeyExtractorISB_EENS_7PtrHashIS2_EENS_18HashMapValueTraitsINS_10HashTraitsIS2_EENSH_ISA_EEEESI_E16lookupForWritingINS_22IdentityHashTranslatorISF_EES2_EENSt3__14pairIPSB_bEERKT0_
__ZN3WTF9HashTableIPNS_16AtomicStringImplENS_12KeyValuePairIS2_NS_6OwnPtrINS_6VectorIN7CyberCore8RuleDataELm0ENS_15CrashOnOverflowEEEEEEENS_24KeyValuePairKeyExtractorISB_EENS_7PtrHashIS2_EENS_18HashMapValueTraitsINS_10HashTraitsIS2_EENSH_ISA_EEEESI_E3addINS_17HashMapTranslatorISK_SF_EES2_NS_10PassOwnPtrIS9_EEEENS_18HashTableAddResultINS_17HashTableIteratorIS2_SB_SD_SF_SK_SI_EEEERKT0_RKT1_
__ZN3WTF9HashTableIPNS_16AtomicStringImplENS_12KeyValuePairIS2_NS_6OwnPtrINS_6VectorIN7CyberCore8RuleDataELm0ENS_15CrashOnOverflowEEEEEEENS_24KeyValuePairKeyExtractorISB_EENS_7PtrHashIS2_EENS_18HashMapValueTraitsINS_10HashTraitsIS2_EENSH_ISA_EEEESI_E6lookupINS_22IdentityHashTranslatorISF_EES2_EEPSB_RKT0_
__ZN3WTF9HashTableIPNS_16AtomicStringImplENS_12KeyValuePairIS2_NS_6OwnPtrINS_6VectorIN7CyberCore8RuleDataELm0ENS_15CrashOnOverflowEEEEEEENS_24KeyValuePairKeyExtractorISB_EENS_7PtrHashIS2_EENS_18HashMapValueTraitsINS_10HashTraitsIS2_EENSH_ISA_EEEESI_E6rehashEi
__ZN3WTF9HashTableIPNS_16AtomicStringImplENS_12KeyValuePairIS2_NS_6OwnPtrINS_6VectorIN7CyberCore8RuleDataELm0ENS_15CrashOnOverflowEEEEEEENS_24KeyValuePairKeyExtractorISB_EENS_7PtrHashIS2_EENS_18HashMapValueTraitsINS_10HashTraitsIS2_EENSH_ISA_EEEESI_ED2Ev
__ZN7CyberCore8Document13svgExtensionsEv
__ZN7CyberCore13StyleResolver23appendAuthorStyleSheetsEjRKN3WTF6VectorINS1_6RefPtrINS_13CSSStyleSheetEEELm0ENS1_15CrashOnOverflowEEE
__ZN7CyberCore16DocumentRuleSets23appendAuthorStyleSheetsEjRKN3WTF6VectorINS1_6RefPtrINS_13CSSStyleSheetEEELm0ENS1_15CrashOnOverflowEEEPNS_19MediaQueryEvaluatorERNS_22InspectorCSSOMWrappersEbPNS_13StyleResolverE
__ZN7CyberCore16DocumentRuleSets15collectFeaturesEbPNS_18StyleScopeResolverE
__ZN7CyberCore14RuleFeatureSet5clearEv
__ZN7CyberCore14RuleFeatureSet3addERKS0_
__ZN7CyberCoreL11makeRuleSetERKN3WTF6VectorINS_11RuleFeatureELm0ENS0_15CrashOnOverflowEEE
__ZNK7CyberCore15CSSFontSelector8uniqueIdEv
__ZNK7CyberCore15CSSFontSelector7versionEv
__ZNK7CyberCore15CSSFontSelector17resolvesFamilyForERKNS_15FontDescriptionE
__ZN7CyberCore28DocumentStyleSheetCollection22combineCSSFeatureFlagsEv
__ZNK7CyberCore8Document21haveStylesheetsLoadedEv
__ZN7CyberCore13StyleResolver17locateSharedStyleEv
__ZNK7CyberCore11HTMLElement16hasDirectionAutoEv
__ZN7CyberCore20ElementRuleCollector13matchAllRulesEbb
__ZN7CyberCore20ElementRuleCollector14matchUserRulesEb
__ZN7CyberCore13StyledElement36additionalPresentationAttributeStyleEv
__ZNK7CyberCore11HTMLElement35directionalityIfhasDirAutoAttributeERb
__ZN7CyberCore20ElementRuleCollector16matchAuthorRulesEb
__ZNK7CyberCore9TreeScope17applyAuthorStylesEv
__ZN7CyberCore20ElementRuleCollector29collectMatchingRulesForRegionERKNS_12MatchRequestERNS_13StyleResolver9RuleRangeE
__ZNK7CyberCore7Element22shouldMoveToFlowThreadEPNS_11RenderStyleE
__ZN7CyberCore11HTMLElement16rendererIsNeededERKNS_20NodeRenderingContextE
__ZN7CyberCore7Element16rendererIsNeededERKNS_20NodeRenderingContextE
__ZNK7CyberCore20NodeRenderingContext12nextRendererEv
__ZN7CyberCore11HTMLElement14createRendererEPNS_11RenderArenaEPNS_11RenderStyleE
__ZN7CyberCore12RenderObject12createObjectEPNS_7ElementEPNS_11RenderStyleE
__ZNK7CyberCore8Document17cssRegionsEnabledEv
__ZN7CyberCore11RenderBlockC1EPNS_13ContainerNodeE
__ZNK7CyberCore10RenderView14isChildAllowedEPNS_12RenderObjectEPNS_11RenderStyleE
__ZN7CyberCore12RenderObject18setAnimatableStyleEN3WTF10PassRefPtrINS_11RenderStyleEEE
__ZN7CyberCore19AnimationController16updateAnimationsEPNS_12RenderObjectEPNS_11RenderStyleE
__ZNK7CyberCore21RenderLayerCompositor38supportsFixedRootBackgroundCompositingEv
__ZNK7CyberCore12RenderObject12isRenderViewEv
__ZNK7CyberCore9RenderBox13requiresLayerEv
__ZNK7CyberCore7Element22savedLayerScrollOffsetEv
__ZN7CyberCore7Element25setSavedLayerScrollOffsetERKNS_7IntSizeE
__ZNK7CyberCore8Document4bodyEv
__ZNK7CyberCore5Color5blendERKS0_
__ZNK7CyberCore5Color6getHSLERdS1_S1_
__ZN7CyberCore10RenderView8addChildEPNS_12RenderObjectES2_
__ZNK7CyberCore12RenderObject18isRenderFlowThreadEv
__ZN7CyberCore11RenderBlock8addChildEPNS_12RenderObjectES2_
__ZN7CyberCore11RenderBlock28addChildIgnoringContinuationEPNS_12RenderObjectES2_
__ZN7CyberCore11RenderBlock37addChildIgnoringAnonymousColumnBlocksEPNS_12RenderObjectES2_
__ZN7CyberCore11RenderBlock30columnsBlockForSpanningElementEPNS_12RenderObjectE
__ZN7CyberCore11RenderBlock21makeChildrenNonInlineEPNS_12RenderObjectE
__ZN7CyberCore12RenderObject8addChildEPS0_S1_
__ZN7CyberCore11RenderBlock15virtualChildrenEv
__ZNK7CyberCore12RenderObject16isRenderTableColEv
__ZNK7CyberCore12RenderObject14isTableCaptionEv
__ZNK7CyberCore12RenderObject14isTableSectionEv
__ZNK7CyberCore12RenderObject10isTableRowEv
__ZNK7CyberCore12RenderObject11isTableCellEv
__ZN7CyberCore21RenderObjectChildList15insertChildNodeEPNS_12RenderObjectES2_S2_b
__ZN7CyberCore12RenderObject16insertedIntoTreeEv
__ZN7CyberCoreL9addLayersEPNS_12RenderObjectEPNS_11RenderLayerERS1_RS3_
__ZN7CyberCore12RenderObject13findNextLayerEPNS_11RenderLayerEPS0_b
__ZN7CyberCore11RenderLayer8addChildEPS0_S1_
__ZN7CyberCore11RenderLayer9setParentEPS0_
__ZN7CyberCore21RenderLayerCompositor13layerWasAddedEPNS_11RenderLayerES2_
__ZN7CyberCore11RenderLayer16dirtyZOrderListsEv
__ZN7CyberCore21RenderLayerCompositor31setCompositingLayersNeedRebuildEb
__ZNK7CyberCore12RenderObject28renderNamedFlowThreadWrapperEv
__ZNK7CyberCore12RenderObject23isRenderNamedFlowThreadEv
__ZN7CyberCore13RenderCounter23rendererSubtreeAttachedEPNS_12RenderObjectE
__ZN7CyberCore12RenderObject29markContainingBlocksForLayoutEbPS0_
__ZNK7CyberCore12RenderObject9containerEPKNS_22RenderLayerModelObjectEPb
__ZNK7CyberCore12RenderObject13isTextControlEv
__ZN7CyberCore9FrameView16scheduleRelayoutEv
__ZN7CyberCore8Document20shouldScheduleLayoutEv
__ZN7CyberCore12RenderObject24setLayerNeedsFullRepaintEv
__ZN7CyberCore12RenderObject41invalidateContainerPreferredLogicalWidthsEv
__ZN7CyberCore16SVGRenderSupport10childAddedEPNS_12RenderObjectES2_
__ZN7CyberCore7Element19updatePseudoElementENS_8PseudoIdENS_4Node11StyleChangeE
__ZN7CyberCore7Element27createPseudoElementIfNeededENS_8PseudoIdE
__ZN7CyberCore7Element20beginParsingChildrenEv
__ZN7CyberCore13StyleResolver17pushParentElementEPNS_7ElementE
__ZNK7CyberCore4Node25parentOrShadowHostElementEv
__ZN7CyberCore14SelectorFilter16setupParentStackEPNS_7ElementE
__ZN7CyberCore14SelectorFilter20pushParentStackFrameEPNS_7ElementE
__ZN3WTF6VectorIN7CyberCore14SelectorFilter16ParentStackFrameELm0ENS_15CrashOnOverflowEE14appendSlowCaseIS3_EEvRKT_
__ZN3WTF6VectorIN7CyberCore14SelectorFilter16ParentStackFrameELm0ENS_15CrashOnOverflowEE14expandCapacityEmPKS3_
__ZN3WTF6VectorIN7CyberCore14SelectorFilter16ParentStackFrameELm0ENS_15CrashOnOverflowEE15reserveCapacityEm
__ZN3WTF6VectorIN7CyberCore24HTMLConstructionSiteTaskELm1ENS_15CrashOnOverflowEED1Ev
__ZN7CyberCore15HTMLHtmlElement16insertedByParserEv
__ZN7CyberCore20ApplicationCacheHost26selectCacheWithoutManifestEv
__ZN7CyberCore21ApplicationCacheGroup29selectCacheWithoutManifestURLEPNS_5FrameE
__ZN7CyberCore11FrameLoader32dispatchDocumentElementAvailableEv
__ZN7CyberCore5Frame17injectUserScriptsENS_23UserScriptInjectionTimeE
__ZN3WTF6OwnPtrIN7CyberCore11DoctypeDataEED2Ev
__ZN7CyberCore15HTMLTreeBuilder20defaultForBeforeHeadEv
__ZN7CyberCore15HTMLTreeBuilder15processStartTagEPNS_15AtomicHTMLTokenE
__ZN7CyberCore20HTMLConstructionSite21insertHTMLHeadElementEPNS_15AtomicHTMLTokenE
__ZN7CyberCore20HTMLConstructionSite17createHTMLElementEPNS_15AtomicHTMLTokenE
__ZN7CyberCore18HTMLElementFactory17createHTMLElementERKNS_13QualifiedNameEPNS_8DocumentEPNS_15HTMLFormElementEb
__ZN3WTF9HashTableIPNS_16AtomicStringImplENS_12KeyValuePairIS2_PFNS_10PassRefPtrIN7CyberCore11HTMLElementEEERKNS5_13QualifiedNameEPNS5_8DocumentEPNS5_15HTMLFormElementEbEEENS_24KeyValuePairKeyExtractorISH_EENS_7PtrHashIS2_EENS_18HashMapValueTraitsINS_10HashTraitsIS2_EENSN_ISG_EEEESO_E16lookupForWritingINS_22IdentityHashTranslatorISL_EES2_EENSt3__14pairIPSH_bEERKT0_
__ZN3WTF9HashTableIPNS_16AtomicStringImplENS_12KeyValuePairIS2_PFNS_10PassRefPtrIN7CyberCore11HTMLElementEEERKNS5_13QualifiedNameEPNS5_8DocumentEPNS5_15HTMLFormElementEbEEENS_24KeyValuePairKeyExtractorISH_EENS_7PtrHashIS2_EENS_18HashMapValueTraitsINS_10HashTraitsIS2_EENSN_ISG_EEEESO_E3addINS_17HashMapTranslatorISQ_SL_EES2_SG_EENS_18HashTableAddResultINS_17HashTableIteratorIS2_SH_SJ_SL_SQ_SO_EEEERKT0_RKT1_
__ZN3WTF9HashTableIPNS_16AtomicStringImplENS_12KeyValuePairIS2_PFNS_10PassRefPtrIN7CyberCore11HTMLElementEEERKNS5_13QualifiedNameEPNS5_8DocumentEPNS5_15HTMLFormElementEbEEENS_24KeyValuePairKeyExtractorISH_EENS_7PtrHashIS2_EENS_18HashMapValueTraitsINS_10HashTraitsIS2_EENSN_ISG_EEEESO_E6lookupINS_22IdentityHashTranslatorISL_EES2_EEPSH_RKT0_
__ZN7CyberCoreL15headConstructorERKNS_13QualifiedNameEPNS_8DocumentEPNS_15HTMLFormElementEb
__ZN7CyberCore15HTMLHeadElement6createERKNS_13QualifiedNameEPNS_8DocumentE
__ZN7CyberCore15HTMLHeadElementC2ERKNS_13QualifiedNameEPNS_8DocumentE
__ZN3WTF6RefPtrIN7CyberCore13HTMLStackItemEEaSERKNS_10PassRefPtrIS2_EE
__ZN7CyberCore16HTMLElementStack19pushHTMLHeadElementEN3WTF10PassRefPtrINS_13HTMLStackItemEEE
__ZN7CyberCore15HTMLTreeBuilder16defaultForInHeadEv
__ZN7CyberCore15HTMLTreeBuilder13processEndTagEPNS_15AtomicHTMLTokenE
__ZN7CyberCore16HTMLElementStack18popHTMLHeadElementEv
__ZN7CyberCore7Element21finishParsingChildrenEv
__ZNK7CyberCore4Node16nonRendererStyleEv
__ZN7CyberCoreL27checkForSiblingStyleChangesEPNS_7ElementEPNS_11RenderStyleEbPNS_4NodeES5_i
__ZN7CyberCore13StyleResolver16popParentElementEPNS_7ElementE
__ZN7CyberCore16HTMLElementStack13ElementRecordD2Ev
__ZN7CyberCore15HTMLTreeBuilder19defaultForAfterHeadEv
__ZN7CyberCore20HTMLConstructionSite21insertHTMLBodyElementEPNS_15AtomicHTMLTokenE
__ZN7CyberCoreL15bodyConstructorERKNS_13QualifiedNameEPNS_8DocumentEPNS_15HTMLFormElementEb
__ZN7CyberCore15HTMLBodyElement6createERKNS_13QualifiedNameEPNS_8DocumentE
__ZN7CyberCore15HTMLBodyElementC2ERKNS_13QualifiedNameEPNS_8DocumentE
__ZN3WTF6VectorIN7CyberCore24HTMLConstructionSiteTaskELm1ENS_15CrashOnOverflowEE14appendSlowCaseIS2_EEvRKT_
__ZN3WTF6VectorIN7CyberCore24HTMLConstructionSiteTaskELm1ENS_15CrashOnOverflowEE14expandCapacityEmPKS2_
__ZN3WTF6VectorIN7CyberCore24HTMLConstructionSiteTaskELm1ENS_15CrashOnOverflowEE15reserveCapacityEm
__ZN7CyberCore16HTMLElementStack19pushHTMLBodyElementEN3WTF10PassRefPtrINS_13HTMLStackItemEEE
__ZN7CyberCore16HTMLElementStack6popAllEv
__ZN3WTF6VectorIN7CyberCore9AttributeELm0ENS_15CrashOnOverflowEED2Ev
__ZN7CyberCore14SelectorFilter19popParentStackFrameEv
__ZN7CyberCore11HTMLElement15childrenChangedEbPNS_4NodeES2_i
__ZN7CyberCore7Element15childrenChangedEbPNS_4NodeES2_i
__ZN7CyberCore11HTMLElement48adjustDirectionalityIfNeededAfterChildrenChangedEPNS_4NodeEi
__ZNK7CyberCore7Element25childShouldCreateRendererERKNS_20NodeRenderingContextE
__ZNK7CyberCore7Element34hasFlagsSetDuringStylingOfChildrenEv
__ZN7CyberCore11RenderStyleD2Ev
__ZN7CyberCore15HTMLBodyElement12insertedIntoEPNS_13ContainerNodeE
__ZN3WTF6VectorINS_6RefPtrIN7CyberCore4NodeEEELm0ENS_15CrashOnOverflowEE15reserveCapacityEm
__ZN7CyberCore15HTMLBodyElement26didNotifySubtreeInsertionsEPNS_13ContainerNodeE
__ZNK7CyberCore8Document12ownerElementEv
__ZNK7CyberCore5Frame13ownerRendererEv
__ZN7CyberCore8Document18minimumLayoutDelayEv
__ZNK7CyberCore13StyleResolver24canShareStyleWithElementEPNS_13StyledElementE
__ZNK7CyberCore13StyleResolver16locateCousinListEPNS_7ElementERj
__ZN7CyberCoreL12compareRulesEPKNS_8RuleDataES2_
__ZN7CyberCore19ApplyPropertyLengthIXadL_ZNKS_11RenderStyle9marginTopEvEEXadL_ZNS1_12setMarginTopENS_6LengthEEEXadL_ZNS1_13initialMarginEvEELNS_10LengthAutoE1ELNS_21LengthLegacyIntrinsicE0ELNS_15LengthIntrinsicE0ELNS_10LengthNoneE0ELNS_15LengthUndefinedE0EE10applyValueENS_13CSSPropertyIDEPNS_13StyleResolverEPNS_8CSSValueE
__ZNK7CyberCore17CSSPrimitiveValue13primitiveTypeEv
__ZNK7CyberCore17CSSPrimitiveValue13computeLengthINS_6LengthEEET_PKNS_11RenderStyleES6_fb
__ZNK7CyberCore17CSSPrimitiveValue19computeLengthDoubleEPKNS_11RenderStyleES3_fb
__ZN7CyberCore11RenderStyle12setMarginTopENS_6LengthE
__Z12compareEqualIN7CyberCore6LengthES1_EbRKT_RKT0_
__ZNK7CyberCore6Length17isCalculatedEqualERKS0_
__ZN7CyberCore17StyleSurroundDataC1ERKS0_
__ZN7CyberCore17StyleSurroundDataC2ERKS0_
__ZN7CyberCore10BorderDataC2ERKS0_
__ZN7CyberCore19ApplyPropertyLengthIXadL_ZNKS_11RenderStyle11marginRightEvEEXadL_ZNS1_14setMarginRightENS_6LengthEEEXadL_ZNS1_13initialMarginEvEELNS_10LengthAutoE1ELNS_21LengthLegacyIntrinsicE0ELNS_15LengthIntrinsicE0ELNS_10LengthNoneE0ELNS_15LengthUndefinedE0EE10applyValueENS_13CSSPropertyIDEPNS_13StyleResolverEPNS_8CSSValueE
__ZN7CyberCore11RenderStyle14setMarginRightENS_6LengthE
__ZN7CyberCore19ApplyPropertyLengthIXadL_ZNKS_11RenderStyle12marginBottomEvEEXadL_ZNS1_15setMarginBottomENS_6LengthEEEXadL_ZNS1_13initialMarginEvEELNS_10LengthAutoE1ELNS_21LengthLegacyIntrinsicE0ELNS_15LengthIntrinsicE0ELNS_10LengthNoneE0ELNS_15LengthUndefinedE0EE10applyValueENS_13CSSPropertyIDEPNS_13StyleResolverEPNS_8CSSValueE
__ZN7CyberCore11RenderStyle15setMarginBottomENS_6LengthE
__ZN7CyberCore19ApplyPropertyLengthIXadL_ZNKS_11RenderStyle10marginLeftEvEEXadL_ZNS1_13setMarginLeftENS_6LengthEEEXadL_ZNS1_13initialMarginEvEELNS_10LengthAutoE1ELNS_21LengthLegacyIntrinsicE0ELNS_15LengthIntrinsicE0ELNS_10LengthNoneE0ELNS_15LengthUndefinedE0EE10applyValueENS_13CSSPropertyIDEPNS_13StyleResolverEPNS_8CSSValueE
__ZN7CyberCore11RenderStyle13setMarginLeftENS_6LengthE
__ZNK7CyberCore12RenderObject14isChildAllowedEPS0_PNS_11RenderStyleE
__ZNK7CyberCore12RenderObject7repaintEb
__ZNK7CyberCore10RenderView8printingEv
__ZNK7CyberCore12RenderObject19containerForRepaintEv
__ZNK7CyberCore10RenderView15usesCompositingEv
__ZNK7CyberCore9RenderBox29clippedOverflowRectForRepaintEPKNS_22RenderLayerModelObjectE
__ZNK7CyberCore9RenderBox18visualOverflowRectEv
__ZNK7CyberCore10RenderView21computeRectForRepaintEPKNS_22RenderLayerModelObjectERNS_10LayoutRectEb
__ZN7CyberCore7IntRectC1ERKNS_10LayoutRectE
__ZNK7CyberCore12RenderObject21repaintUsingContainerEPKNS_22RenderLayerModelObjectERKNS_7IntRectEb
__ZNK7CyberCore10RenderView20repaintViewRectangleERKNS_10LayoutRectEb
__ZN7CyberCore14SelectorFilter10pushParentEPNS_7ElementE
__ZN7CyberCore11PumpSessionD1Ev
__ZN7CyberCore8Document26decrementActiveParserCountEv
__ZN7CyberCore11FrameLoader17checkLoadCompleteEv
__ZN7CyberCore11FrameLoader29checkLoadCompleteForThisFrameEv
__ZNK7CyberCore14DocumentLoader19isLoadingInAPISenseEv
__ZN3WTF6VectorINS_6RefPtrIN7CyberCore5FrameEEELm10ENS_15CrashOnOverflowEED2Ev
__ZN7CyberCore14DocumentParser20prepareToStopParsingEv
__ZN7CyberCore16HTMLScriptRunner31executeScriptsWaitingForParsingEv
__ZN7CyberCore15HTMLTreeBuilder8finishedEv
__ZN7CyberCore20HTMLConstructionSite15finishedParsingEv
__ZN7CyberCore8Document15finishedParsingEv
__ZN7CyberCore8Document19updateStyleIfNeededEv
__ZN7CyberCore19AnimationController20beginAnimationUpdateEv
__ZNK7CyberCore25StyleRareNonInheritedData21contentDataEquivalentERKS0_
__ZNK7CyberCore11RenderStyleeqERKS0_
__ZNK7CyberCore18StyleInheritedDataeqERKS0_
__ZNK7CyberCore4FonteqERKS0_
__ZNK7CyberCore11RenderStyle24hasAnyPublicPseudoStylesEv
__ZN7CyberCore18StyleInheritedDataD1Ev
__ZN7CyberCore7Element11recalcStyleENS_4Node11StyleChangeE
__ZN7CyberCore4Node30parentNodeForRenderingAndStyleEv
__ZNK7CyberCore12StyleBoxDataeqERKS0_
__ZN7CyberCore7Element25pseudoStyleCacheIsInvalidEPKNS_11RenderStyleEPS1_
__ZNK7CyberCore12RenderObject36requiresForcedStyleRecalcPropagationEv
__ZN7CyberCore12StyleBoxDataD2Ev
__ZN7CyberCore7Element6detachERKNS_4Node13AttachContextE
__ZN7CyberCore13ContainerNode6detachERKNS_4Node13AttachContextE
__ZN7CyberCore4Node6detachERKNS0_13AttachContextE
__ZNK7CyberCore17StyleSurroundDataeqERKS0_
__ZNK7CyberCore9LengthBoxeqERKS0_
__ZNK7CyberCore10BorderDataeqERKS0_
__ZNK7CyberCore10LengthSizeeqERKS0_
__ZN7CyberCore17StyleSurroundDataD2Ev
__ZN7CyberCore10BorderDataD2Ev
__ZN3WTF7HashSetIPN7CyberCore8DocumentENS_7PtrHashIS3_EENS_10HashTraitsIS3_EEE6removeERKS3_
__ZN3WTF9HashTableIPN7CyberCore8DocumentES3_NS_17IdentityExtractorENS_7PtrHashIS3_EENS_10HashTraitsIS3_EES8_E6lookupINS_22IdentityHashTranslatorIS6_EES3_EEPS3_RKT0_
__ZNSt3__117__push_heap_frontIRN7CyberCore25TimerHeapLessThanFunctionENS1_17TimerHeapIteratorEEEvT0_S5_T_NS_15iterator_traitsIS5_E15difference_typeE
__ZN7CyberCore28DocumentStyleSheetCollection20resetCSSFeatureFlagsEv
__ZN7CyberCore19AnimationController18endAnimationUpdateEv
__ZN7CyberCore26AnimationControllerPrivate14styleAvailableEv
__ZN7CyberCore26AnimationControllerPrivate17startTimeResponseEd
__ZN7CyberCore11FrameLoader15finishedParsingEv
__ZN7CyberCore24InspectorInstrumentation26instrumentingAgentsForPageEPNS_4PageE
__ZN7CyberCore22instrumentationForPageEPNS_4PageE
__ZN7CyberCore24InspectorInstrumentation30domContentLoadedEventFiredImplEPNS_19InstrumentingAgentsEPNS_5FrameE
__ZN7CyberCore14InspectorAgent26domContentLoadedEventFiredEv
__ZN7CyberCore18InjectedScriptHost21clearInspectedObjectsEv
__ZN7CyberCore20CachedResourceLoader13clearPreloadsEv
__ZN7CyberCore9DOMWindow15finishedLoadingEv
__ZN7CyberCore20ApplicationCacheHost27finishedLoadingMainResourceEv
__ZN7CyberCore18HTMLDocumentParser6detachEv
__ZN7CyberCore14DocumentParser6detachEv
__ZN7CyberCore16HTMLScriptRunner6detachEv
__ZN7CyberCore15HTMLTreeBuilder6detachEv
__ZN7CyberCore20HTMLConstructionSite6detachEv
__ZN7CyberCore19HTMLParserSchedulerD1Ev
__ZN7CyberCore9TimerBaseD2Ev
__ZN7CyberCore18HTMLDocumentParserD0Ev
__ZN7CyberCore18HTMLDocumentParserD2Ev
__ZN7CyberCore10XSSAuditorD2Ev
__ZN7CyberCore17HTMLSourceTrackerD2Ev
__ZN7CyberCore15HTMLTreeBuilderD1Ev
__ZN7CyberCore15HTMLTreeBuilderD2Ev
__ZN7CyberCore20HTMLConstructionSiteD1Ev
__ZN7CyberCore20HTMLConstructionSiteD2Ev
__ZN7CyberCore25HTMLFormattingElementListD1Ev
__ZN7CyberCore16HTMLElementStackD1Ev
__ZN7CyberCore16HTMLScriptRunnerD1Ev
__ZN7CyberCore16HTMLScriptRunnerD2Ev
__ZNK7CyberCore13PendingScript12cachedScriptEv
__ZN7CyberCore13PendingScriptD1Ev
__ZN7CyberCore24CachedResourceHandleBaseD2Ev
__ZN7CyberCore13HTMLTokenizerD1Ev
__ZN7CyberCore13HTMLTokenizerD2Ev
__ZN3WTF6OwnPtrIN7CyberCore9HTMLTokenEED2Ev
__ZN7CyberCore14DocumentParserD2Ev
__ZN7CyberCore11FrameLoader14checkCompletedEv
__ZN7CyberCore9FrameView19handleLoadCompletedEv
__ZN7CyberCore9FrameView17autoSizeIfEnabledEv
__ZN7CyberCore8Document13implicitCloseEv
__ZN7CyberCore19NavigationScheduler10startTimerEv
__ZN7CyberCore11FrameLoader9completedEv
__ZN7CyberCore9FrameView30maintainScrollPositionAtAnchorEPNS_4NodeE
__ZN7CyberCore26PageActivityAssertionTokenD1Ev
__ZN7CyberCore13PageThrottler19removeActivityTokenEPNS_26PageActivityAssertionTokenE
__ZN3WTF9HashTableIPN7CyberCore26PageActivityAssertionTokenES3_NS_17IdentityExtractorENS_7PtrHashIS3_EENS_10HashTraitsIS3_EES8_E6lookupINS_22IdentityHashTranslatorIS6_EES3_EEPS3_RKT0_
__ZN3WTF9HashTableIPN7CyberCore26PageActivityAssertionTokenES3_NS_17IdentityExtractorENS_7PtrHashIS3_EENS_10HashTraitsIS3_EES8_E6rehashEi
__ZN3WTF7HashSetIPN7CyberCore26PageActivityAssertionTokenENS_7PtrHashIS3_EENS_10HashTraitsIS3_EEE6removeERKS3_
__ZN7CyberCore8Document15hasActiveParserEv
__ZNK7CyberCore11FrameLoader17subframeIsLoadingEv
__ZN7CyberCore11FrameLoader18frameLoadCompletedEv
__ZN7CyberCore17HistoryController27updateForFrameLoadCompletedEv
__ZNK7CyberCore23FrameLoaderStateMachine30committedFirstRealDocumentLoadEv
__ZN7CyberCore14DocumentLoader22stopRecordingResponsesEv
__ZN3WTF6VectorIN7CyberCore16ResourceResponseELm0ENS_15CrashOnOverflowEE14shrinkCapacityEm
__ZN7CyberCore23FrameLoaderStateMachine9advanceToENS0_5StateE
__ZN7CyberCore4Page13setPaginationERKNS_10PaginationE
__ZN7CyberCore15FocusController9setActiveEb
__ZN7CyberCore9FrameView37updateLayoutAndStyleIfNeededRecursiveEv
__ZN7CyberCore9FrameView6layoutEb
__ZNK7CyberCore9FrameView33isInChildFrameWithFrameFlatteningEv
__ZNK7CyberCore13StyleResolver24affectedByViewportChangeEv
__ZN7CyberCore8Document22evaluateMediaQueryListEv
__ZN7CyberCore9FrameView25applyPaginationToViewportEv
__ZN7CyberCore9FrameView32calculateScrollbarModesForLayoutERNS_13ScrollbarModeES2_NS0_33ScrollbarModesCalculationStrategyE
__ZN7CyberCore9FrameView23applyOverflowToViewportEPNS_12RenderObjectERNS_13ScrollbarModeES4_
__ZNK7CyberCore9FrameView12headerHeightEv
__ZNK7CyberCore9FrameView12footerHeightEv
__ZNK7CyberCore10ScrollView14scrollbarModesERNS_13ScrollbarModeES2_
__ZN7CyberCore10ScrollView23setScrollbarsSuppressedEbb
__ZNK7CyberCore10ScrollView14useFixedLayoutEv
__ZN7CyberCore10ScrollView16updateScrollbarsERKNS_7IntSizeE
__ZNK7CyberCore10ScrollView16scrollCornerRectEv
__ZNK7CyberCore14ScrollableArea20hasOverlayScrollbarsEv
__ZThn64_NK7CyberCore10ScrollView17verticalScrollbarEv
__ZThn64_NK7CyberCore10ScrollView19horizontalScrollbarEv
__ZN7CyberCore10ScrollView23setHasVerticalScrollbarEb
__ZN7CyberCore9FrameView15createScrollbarENS_20ScrollbarOrientationE
__ZN7CyberCore10ScrollView15createScrollbarENS_20ScrollbarOrientationE
__ZN7CyberCore9Scrollbar21createNativeScrollbarEPNS_14ScrollableAreaENS_20ScrollbarOrientationENS_20ScrollbarControlSizeE
__ZN7CyberCore9ScrollbarC2EPNS_14ScrollableAreaENS_20ScrollbarOrientationENS_20ScrollbarControlSizeEPNS_14ScrollbarThemeE
__ZN7CyberCore14ScrollbarTheme5themeEv
__ZN7CyberCore8Settings21mockScrollbarsEnabledEv
__ZN7CyberCore14ScrollbarTheme11nativeThemeEv
+[WebScrollbarPrefsObserver registerAsObserver]
__ZN7CyberCore17ScrollbarThemeMac17registerScrollbarEPNS_20ScrollbarThemeClientE
__ZThn64_NK7CyberCore9Scrollbar11orientationEv
__ZN7CyberCore24recommendedScrollerStyleEv
__ZN7CyberCore8Settings21usesOverlayScrollbarsEv
__ZThn64_NK7CyberCore9Scrollbar11controlSizeEv
__ZN7CyberCore17ScrollbarThemeMac18updateEnabledStateEPNS_20ScrollbarThemeClientE
__ZNK3WTF7HashMapIPN7CyberCore20ScrollbarThemeClientENS_9RetainPtrIP11objc_objectEENS_7PtrHashIS3_EENS_10HashTraitsIS3_EENSA_IS7_EEE3getERKS3_
__ZN3WTF9HashTableIPN7CyberCore20ScrollbarThemeClientENS_12KeyValuePairIS3_NS_9RetainPtrIP11objc_objectEEEENS_24KeyValuePairKeyExtractorIS9_EENS_7PtrHashIS3_EENS_18HashMapValueTraitsINS_10HashTraitsIS3_EENSF_IS8_EEEESG_E16lookupForWritingINS_22IdentityHashTranslatorISD_EES3_EENSt3__14pairIPS9_bEERKT0_
__ZN3WTF9HashTableIPN7CyberCore20ScrollbarThemeClientENS_12KeyValuePairIS3_NS_9RetainPtrIP11objc_objectEEEENS_24KeyValuePairKeyExtractorIS9_EENS_7PtrHashIS3_EENS_18HashMapValueTraitsINS_10HashTraitsIS3_EENSF_IS8_EEEESG_E3addINS_17HashMapTranslatorISI_SD_EES3_S8_EENS_18HashTableAddResultINS_17HashTableIteratorIS3_S9_SB_SD_SI_SG_EEEERKT0_RKT1_
__ZN3WTF9HashTableIPN7CyberCore20ScrollbarThemeClientENS_12KeyValuePairIS3_NS_9RetainPtrIP11objc_objectEEEENS_24KeyValuePairKeyExtractorIS9_EENS_7PtrHashIS3_EENS_18HashMapValueTraitsINS_10HashTraitsIS3_EENSF_IS8_EEEESG_E6lookupINS_22IdentityHashTranslatorISD_EES3_EEPS9_RKT0_
__ZN3WTF9HashTableIPN7CyberCore20ScrollbarThemeClientENS_12KeyValuePairIS3_NS_9RetainPtrIP11objc_objectEEEENS_24KeyValuePairKeyExtractorIS9_EENS_7PtrHashIS3_EENS_18HashMapValueTraitsINS_10HashTraitsIS3_EENSF_IS8_EEEESG_E6rehashEi
__ZThn64_NK7CyberCore9Scrollbar7enabledEv
__ZN7CyberCore17ScrollbarThemeMac27updateScrollbarOverlayStyleEPNS_20ScrollbarThemeClientE
__ZThn64_NK7CyberCore9Scrollbar21scrollbarOverlayStyleEv
__ZN7CyberCore17ScrollbarThemeMac18scrollbarThicknessENS_20ScrollbarControlSizeE
__ZThn64_NK7CyberCore10ScrollView14scrollPositionEPNS_9ScrollbarE
__ZNK7CyberCore9Scrollbar11orientationEv
__ZNK7CyberCore10ScrollView14scrollPositionEv
__ZN7CyberCore10ScrollView8addChildEN3WTF10PassRefPtrINS_6WidgetEEE
__ZN7CyberCore9Scrollbar9setParentEPNS_10ScrollViewE
__ZN7CyberCore6Widget9setParentEPNS_10ScrollViewE
__ZN7CyberCore6Widget16setParentVisibleEb
__ZN3WTF9HashTableINS_6RefPtrIN7CyberCore6WidgetEEES4_NS_17IdentityExtractorENS_7PtrHashIS4_EENS_10HashTraitsIS4_EES9_E3addINS_22IdentityHashTranslatorIS7_EES4_S4_EENS_18HashTableAddResultINS_17HashTableIteratorIS4_S4_S5_S7_S9_S9_EEEERKT0_RKT1_
__ZN3WTF9HashTableINS_6RefPtrIN7CyberCore6WidgetEEES4_NS_17IdentityExtractorENS_7PtrHashIS4_EENS_10HashTraitsIS4_EES9_E6rehashEi
__ZThn64_N7CyberCore9FrameView15didAddScrollbarEPNS_9ScrollbarENS_20ScrollbarOrientationE
__ZN7CyberCore14ScrollableArea15didAddScrollbarEPNS_9ScrollbarENS_20ScrollbarOrientationE
__ZN7CyberCore14ScrollAnimator6createEPNS_14ScrollableAreaE
__ZN7CyberCore17ScrollAnimatorMacC2EPNS_14ScrollableAreaE
__ZN7CyberCore14ScrollAnimatorC2EPNS_14ScrollableAreaE
__ZN7CyberCore26ScrollControllerC1EPNS_32ScrollControllerClientE
-[WebScrollAnimationHelperDelegate initWithScrollAnimator:]
-[WebScrollbarPainterControllerDelegate initWithScrollableArea:]
__ZN7CyberCore17ScrollAnimatorMac23didAddVerticalScrollbarEPNS_9ScrollbarE
__ZNK7CyberCore14ScrollbarTheme11isMockThemeEv
__ZN7CyberCore17ScrollbarThemeMac19painterForScrollbarEPNS_20ScrollbarThemeClientE
-[WebScrollbarPainterDelegate .cxx_construct]
-[WebScrollbarPainterDelegate initWithScrollbar:]
__ZThn64_N7CyberCore10ScrollView24setScrollbarOverlayStyleENS_21ScrollbarOverlayStyleE
__ZN7CyberCore14ScrollableArea24setScrollbarOverlayStyleENS_21ScrollbarOverlayStyleE
__ZN7CyberCore9Scrollbar10invalidateEv
__ZN7CyberCore9Scrollbar14invalidateRectERKNS_7IntRectE
__ZN7CyberCore14ScrollableArea19invalidateScrollbarEPNS_9ScrollbarERKNS_7IntRectE
__ZThn64_NK7CyberCore9FrameView25layerForVerticalScrollbarEv
__ZThn64_N7CyberCore9FrameView23invalidateScrollbarRectEPNS_9ScrollbarERKNS_7IntRectE
__ZNK7CyberCore9Scrollbar8locationEv
__ZN7CyberCore9FrameView14invalidateRectERKNS_7IntRectE
__ZNK7CyberCore9FrameView10hostWindowEv
__ZN7CyberCore6Chrome29invalidateContentsAndRootViewERKNS_7IntRectEb
__ZN7CyberCore10ScrollView32platformSetScrollbarOverlayStyleENS_21ScrollbarOverlayStyleE
__ZNK7CyberCore9FrameView13axObjectCacheEv
__ZNK7CyberCore8Document21existingAXObjectCacheEv
__ZN7CyberCore9Scrollbar12styleChangedEv
__ZNK7CyberCore10ScrollView13visibleHeightEv
__ZNK7CyberCore9Scrollbar18isOverlayScrollbarEv
__ZNK7CyberCore17ScrollbarThemeMac21usesOverlayScrollbarsEv
__ZN7CyberCore9Scrollbar22maxOverlapBetweenPagesEv
__ZN7CyberCore17ScrollbarThemeMac22maxOverlapBetweenPagesEv
__ZNK7CyberCore9Scrollbar9frameRectEv
__ZNK7CyberCore9Scrollbar5widthEv
__ZN7CyberCore9Scrollbar12setFrameRectERKNS_7IntRectE
__ZNK7CyberCore9Scrollbar6parentEv
__ZNK7CyberCore9FrameView17windowResizerRectEv
__ZNK7CyberCore6Chrome17windowResizerRectEv
__ZNK7CyberCore14ScrollableArea17totalContentsSizeEv
__ZThn64_NK7CyberCore10ScrollView12contentsSizeEv
__ZThn64_NK7CyberCore9FrameView12headerHeightEv
__ZThn64_NK7CyberCore9FrameView12footerHeightEv
__ZN7CyberCore9Scrollbar10setEnabledEb
__ZN7CyberCore9Scrollbar8setStepsEiii
__ZN7CyberCore9Scrollbar13setProportionEii
__ZN7CyberCore9Scrollbar21updateThumbProportionEv
__ZN7CyberCore23ScrollbarThemeComposite14invalidatePartEPNS_20ScrollbarThemeClientENS_13ScrollbarPartE
__ZN7CyberCore17ScrollbarThemeMac9trackRectEPNS_20ScrollbarThemeClientEb
__ZN7CyberCore17ScrollbarThemeMac10hasButtonsEPNS_20ScrollbarThemeClientE
__ZThn64_NK7CyberCore9Scrollbar9frameRectEv
__ZN7CyberCore23ScrollbarThemeComposite10splitTrackEPNS_20ScrollbarThemeClientERKNS_7IntRectERS3_S6_S6_
__ZN7CyberCore23ScrollbarThemeComposite31constrainTrackRectToTrackPiecesEPNS_20ScrollbarThemeClientERKNS_7IntRectE
__ZThn64_NK7CyberCore9Scrollbar5widthEv
__ZN7CyberCore23ScrollbarThemeComposite13thumbPositionEPNS_20ScrollbarThemeClientE
__ZN7CyberCore23ScrollbarThemeComposite11thumbLengthEPNS_20ScrollbarThemeClientE
__ZThn64_NK7CyberCore9Scrollbar8locationEv
__ZThn64_N7CyberCore9Scrollbar14invalidateRectERKNS_7IntRectE
__ZN7CyberCore10ScrollView17frameRectsChangedEv
__ZN7CyberCore6Widget17frameRectsChangedEv
__ZN7CyberCore10ScrollView23positionScrollbarLayersEv
__ZThn64_NK7CyberCore9FrameView27layerForHorizontalScrollbarEv
__ZN7CyberCoreL22positionScrollbarLayerEPNS_13GraphicsLayerEPNS_9ScrollbarE
__ZThn64_NK7CyberCore9FrameView20layerForScrollCornerEv
__ZN7CyberCore9FrameView18updateScrollCornerEv
__ZN7CyberCore10ScrollView18updateScrollCornerEv
__ZThn64_NK7CyberCore9FrameView22isRubberBandInProgressEv
__ZNK7CyberCore9FrameView21maximumScrollPositionEv
__ZNK7CyberCore10ScrollView12visibleWidthEv
__ZNK7CyberCore9FrameView21minimumScrollPositionEv
__ZNK7CyberCore10ScrollView21minimumScrollPositionEv
__ZN7CyberCore9Scrollbar15offsetDidChangeEv
__ZNK7CyberCore10ScrollView10layoutSizeEv
__ZNK7CyberCore4Node9renderBoxEv
__ZNK7CyberCore9RenderBox19stretchesToViewportEv
__ZNK7CyberCore12RenderObject14enclosingLayerEv
__ZN7CyberCore9FrameView29forceLayoutParentViewIfNeededEv
__ZN7CyberCore10RenderView6layoutEv
__ZNK7CyberCore10RenderView9viewWidthEv
__ZNK7CyberCore9RenderBox24hasRelativeLogicalHeightEv
__ZNK7CyberCore9RenderBox34hasViewportPercentageLogicalHeightEv
__ZN7CyberCore10RenderView21initializeLayoutStateERNS_11LayoutStateE
__ZN7CyberCore11RenderBlock6layoutEv
__ZN7CyberCore23OverflowEventDispatcherC2EPKNS_11RenderBlockE
__ZN7CyberCore11RenderBlock17updateFirstLetterEv
__ZN7CyberCore11RenderBlock11layoutBlockEbNS_10LayoutUnitE
__ZN7CyberCore11RenderBlock16simplifiedLayoutEv
__ZNK7CyberCore12RenderObject27checkForRepaintDuringLayoutEv
__ZN7CyberCore15LayoutRepainterC1ERNS_12RenderObjectEb
__ZN7CyberCore11RenderBlock32updateLogicalWidthAndColumnWidthEv
__ZNK7CyberCore11RenderBlock18desiredColumnWidthEv
__ZNK7CyberCore9RenderBox11clientWidthEv
__ZNK7CyberCore20RenderBoxModelObject10borderLeftEv
__ZNK7CyberCore20RenderBoxModelObject11borderRightEv
__ZNK7CyberCore9RenderBox22verticalScrollbarWidthEv
__ZNK7CyberCore20RenderBoxModelObject11paddingLeftEv
__ZNK7CyberCore20RenderBoxModelObject18computedCSSPaddingENS_6LengthE
__ZN7CyberCore21minimumValueForLengthERKNS_6LengthENS_10LayoutUnitEPNS_10RenderViewEb
__ZNK7CyberCore20RenderBoxModelObject12paddingRightEv
__ZN7CyberCore10RenderView18updateLogicalWidthEv
__ZN7CyberCore10RenderView15calcColumnWidthEv
__ZN7CyberCore11RenderBlock29setDesiredColumnCountAndWidthEiNS_10LayoutUnitE
__ZNK7CyberCore10RenderView15requiresColumnsEi
__ZN7CyberCore11RenderBlock11clearFloatsEv
__ZN7CyberCore11RenderBlock37checkForPaginationLogicalHeightChangeERNS_10LayoutUnitERbS3_
__ZN7CyberCore10RenderView15pushLayoutStateEPNS_9RenderBoxERKNS_10LayoutSizeENS_10LayoutUnitEbPNS_10ColumnInfoE
__ZNK7CyberCore11RenderBlock13isRenderBlockEv
__ZN7CyberCore11RenderBlock43updateRegionsAndExclusionsBeforeChildLayoutEPNS_16RenderFlowThreadE
__ZNK7CyberCore11RenderBlock21layoutShapeInsideInfoEv
__ZN7CyberCore11RenderBlock19initMaxMarginValuesEv
__ZNK7CyberCore9LengthBox6beforeENS_11WritingModeE
__ZNK7CyberCore9LengthBox5afterENS_11WritingModeE
__ZN7CyberCore11RenderBlock18setPaginationStrutENS_10LayoutUnitE
__ZN7CyberCore11RenderBlock19layoutBlockChildrenEbRNS_10LayoutUnitE
__ZN7CyberCore11RenderBlock45dirtyForLayoutFromPercentageHeightDescendantsEv
__ZNK7CyberCore20RenderBoxModelObject12borderBeforeEv
__ZNK7CyberCore11RenderStyle17borderBeforeWidthEv
__ZNK7CyberCore20RenderBoxModelObject13paddingBeforeEv
__ZNK7CyberCore20RenderBoxModelObject11borderAfterEv
__ZNK7CyberCore11RenderStyle16borderAfterWidthEv
__ZNK7CyberCore20RenderBoxModelObject12paddingAfterEv
__ZNK7CyberCore9RenderBox25horizontalScrollbarHeightEv
__ZN7CyberCore11RenderBlock10MarginInfoC2EPS0_NS_10LayoutUnitES3_
__ZN7CyberCore11RenderBlock26layoutSpecialExcludedChildEb
__ZNK7CyberCore9RenderBox33needsPreferredWidthsRecalculationEv
__ZNK7CyberCore9LengthBox5startENS_11WritingModeENS_13TextDirectionE
__ZNK7CyberCore9LengthBox3endENS_11WritingModeENS_13TextDirectionE
__ZN7CyberCore11RenderBlock16layoutBlockChildEPNS_9RenderBoxERNS0_10MarginInfoERNS_10LayoutUnitES6_
__ZNK7CyberCore9RenderBox12marginBeforeEPKNS_11RenderStyleE
__ZNK7CyberCore15LayoutBoxExtent6beforeENS_11WritingModeE
__ZN7CyberCore9RenderBox34computeAndSetBlockDirectionMarginsEPKNS_11RenderBlockE
__ZNK7CyberCore9RenderBox28computeBlockDirectionMarginsEPKNS_11RenderBlockERNS_10LayoutUnitES5_
__ZNK7CyberCore9RenderBox37containingBlockLogicalWidthForContentEv
__ZNK7CyberCore12RenderObject15containingBlockEv
__ZNK7CyberCore11RenderBlock21availableLogicalWidthEv
__ZN7CyberCore15LayoutBoxExtent9setBeforeENS_11WritingModeENS_10LayoutUnitE
__ZN7CyberCore15LayoutBoxExtent8setAfterENS_11WritingModeENS_10LayoutUnitE
__ZN7CyberCore11RenderBlock26estimateLogicalTopPositionEPNS_9RenderBoxERKNS0_10MarginInfoERNS_10LayoutUnitE
__ZNK7CyberCore11RenderBlock28marginBeforeEstimateForChildEPNS_9RenderBoxERNS_10LayoutUnitES4_Rb
__ZNK7CyberCore11RenderBlock19hasMarginAfterQuirkEPKNS_9RenderBoxE
__ZN7CyberCore11RenderBlock13getClearDeltaEPNS_9RenderBoxENS_10LayoutUnitE
__ZNK7CyberCore12RenderObject13isFlexibleBoxEv
__ZNK7CyberCore12RenderObject23isDeprecatedFlexibleBoxEv
__ZN7CyberCore9RenderBox18updateLogicalWidthEv
__ZNK7CyberCore9RenderBox27computeLogicalWidthInRegionERNS0_27LogicalExtentComputedValuesEPNS_12RenderRegionE
__ZNK7CyberCore9RenderBox11marginStartEPKNS_11RenderStyleE
__ZNK7CyberCore15LayoutBoxExtent5startENS_11WritingModeENS_13TextDirectionE
__ZNK7CyberCore9RenderBox9marginEndEPKNS_11RenderStyleE
__ZNK7CyberCore15LayoutBoxExtent3endENS_11WritingModeENS_13TextDirectionE
__ZNK7CyberCore9FrameView10layoutRootEb
__ZNK7CyberCore9RenderBox27shouldComputeSizeAsReplacedEv
__ZNK7CyberCore9RenderBox45containingBlockLogicalWidthForContentInRegionEPNS_12RenderRegionE
__ZNK7CyberCore9RenderBox32computeLogicalWidthInRegionUsingENS_8SizeTypeENS_6LengthENS_10LayoutUnitEPKNS_11RenderBlockEPNS_12RenderRegionE
__ZNK7CyberCore9RenderBox20fillAvailableMeasureENS_10LayoutUnitERS1_S2_
__ZNK7CyberCore9RenderBox19shrinkToAvoidFloatsEv
__ZNK7CyberCore9RenderBox29sizesLogicalWidthToFitContentENS_8SizeTypeE
__ZNK7CyberCore11RenderBlock26isInlineBlockOrInlineTableEv
__ZNK7CyberCore9RenderBox37constrainLogicalWidthInRegionByMinMaxENS_10LayoutUnitES1_PNS_11RenderBlockEPNS_12RenderRegionE
__ZN7CyberCore14valueForLengthERKNS_6LengthENS_10LayoutUnitEPNS_10RenderViewEb
__ZNK7CyberCore20RenderBoxModelObject11borderStartEv
__ZNK7CyberCore11RenderStyle16borderStartWidthEv
__ZNK7CyberCore20RenderBoxModelObject9borderEndEv
__ZNK7CyberCore11RenderStyle14borderEndWidthEv
__ZNK7CyberCore20RenderBoxModelObject12paddingStartEv
__ZNK7CyberCore20RenderBoxModelObject10paddingEndEv
__ZNK7CyberCore9RenderBox29computeInlineDirectionMarginsEPNS_11RenderBlockENS_10LayoutUnitES3_RS3_S4_
__ZN7CyberCore15LayoutBoxExtent8setStartENS_11WritingModeENS_13TextDirectionENS_10LayoutUnitE
__ZN7CyberCore15LayoutBoxExtent6setEndENS_11WritingModeENS_13TextDirectionENS_10LayoutUnitE
__ZN7CyberCore11RenderBlock15calcColumnWidthEv
__ZNK7CyberCore8Document25regionBasedColumnsEnabledEv
__ZNK7CyberCore11RenderBlock15requiresColumnsEi
__ZN7CyberCore11RenderBlock20layoutInlineChildrenEbRNS_10LayoutUnitES2_
__ZN7CyberCore17RenderLineBoxList15deleteLineBoxesEPNS_11RenderArenaE
__ZNK7CyberCore11RenderBlock14hasLineIfEmptyEv
__ZNK7CyberCore4Node21isRootEditableElementEv
__ZNK7CyberCore4Node18rendererIsEditableENS0_13EditableLevelENS0_22UserSelectAllTreatmentE
__ZN7CyberCore11RenderBlock21relayoutForPaginationEbNS_10LayoutUnitERNS_21LayoutStateMaintainerE
__ZNK7CyberCore9RenderBox12clientHeightEv
__ZNK7CyberCore20RenderBoxModelObject9borderTopEv
__ZNK7CyberCore20RenderBoxModelObject12borderBottomEv
__ZN7CyberCore9RenderBox19updateLogicalHeightEv
__ZNK7CyberCore9RenderBox20computeLogicalHeightENS_10LayoutUnitES1_RNS0_27LogicalExtentComputedValuesE
__ZNK7CyberCore12RenderObject7isTableEv
__ZNK7CyberCore9RenderBox44computeContentAndScrollbarLogicalHeightUsingERKNS_6LengthE
__ZNK7CyberCore9RenderBox30constrainLogicalHeightByMinMaxENS_10LayoutUnitE
__ZNK7CyberCore11RenderBlock21collapsedMarginBeforeEv
__ZNK7CyberCore11RenderBlock20collapsedMarginAfterEv
__ZNK7CyberCore9RenderBox11marginAfterEPKNS_11RenderStyleE
__ZNK7CyberCore15LayoutBoxExtent5afterENS_11WritingModeE
__ZNK7CyberCore10RenderView23pageOrViewLogicalHeightEv
__ZNK7CyberCore10RenderView10viewHeightEv
__ZN7CyberCore11RenderBlock23layoutPositionedObjectsEbb
__ZN7CyberCore11RenderBlock15computeOverflowENS_10LayoutUnitEb
__ZN7CyberCore11RenderBlock23addOverflowFromChildrenEv
__ZN7CyberCore11RenderBlock29addOverflowFromInlineChildrenEv
__ZNK7CyberCore11RenderBlock33expandsToEncloseOverhangingFloatsEv
__ZNK7CyberCore12RenderObject10isFieldsetEv
__ZNK7CyberCore22RenderLayerModelObject20hasSelfPaintingLayerEv
__ZN7CyberCore11RenderBlock32addOverflowFromPositionedObjectsEv
__ZNK7CyberCore11RenderBlock16textIndentOffsetEv
__ZN7CyberCore9RenderBox23addVisualEffectOverflowEv
__ZN7CyberCore11RenderBlock26addVisualOverflowFromThemeEv
__ZN7CyberCore11RenderBlock24fitBorderToLinesIfNeededEv
__ZN7CyberCore9RenderBox20updateLayerTransformEv
__ZN7CyberCore15LayoutRepainter18repaintAfterLayoutEv
__ZNK7CyberCore9RenderBox14hasControlClipEv
__ZN7CyberCore23OverflowEventDispatcherD2Ev
__ZN7CyberCore11RenderBlock15collapseMarginsEPNS_9RenderBoxERNS0_10MarginInfoE
__ZNK7CyberCore11RenderBlock31mustDiscardMarginBeforeForChildEPKNS_9RenderBoxE
__ZNK7CyberCore11RenderBlock30mustDiscardMarginAfterForChildEPKNS_9RenderBoxE
__ZNK7CyberCore11RenderBlock21isSelfCollapsingBlockEv
__ZNK7CyberCore11RenderBlock20marginValuesForChildEPNS_9RenderBoxE
__ZNK7CyberCore11RenderBlock20hasMarginBeforeQuirkEPKNS_9RenderBoxE
__ZN7CyberCore11RenderBlock19clearFloatsIfNeededEPNS_9RenderBoxERNS0_10MarginInfoENS_10LayoutUnitES5_S5_
__ZN7CyberCore11RenderBlock36determineLogicalLeftPositionForChildEPNS_9RenderBoxENS0_20ApplyLayoutDeltaModeE
__ZN7CyberCore11RenderBlock22handleAfterSideOfBlockENS_10LayoutUnitES1_RNS0_10MarginInfoE
__ZN7CyberCore11RenderBlock24setCollapsedBottomMarginERKNS0_10MarginInfoE
__ZN7CyberCore9RenderBox20addOverflowFromChildEPS0_RKNS_10LayoutSizeE
__ZNK7CyberCore9RenderBox32layoutOverflowRectForPropagationEPNS_11RenderStyleE
__ZNK7CyberCore9RenderBox13clientBoxRectEv
__ZN7CyberCore10LayoutRect5uniteERKS0_
__ZN7CyberCore9RenderBox17addLayoutOverflowERKNS_10LayoutRectE
__ZNK7CyberCore10LayoutRect8containsERKS0_
__ZN7CyberCore9RenderBox17addVisualOverflowERKNS_10LayoutRectE
__ZN7CyberCore11RenderBlock21addOverflowFromFloatsEv
__ZNK7CyberCore10RenderView20computeLogicalHeightENS_10LayoutUnitES1_RNS_9RenderBox27LogicalExtentComputedValuesE
__ZN7CyberCore9FrameView14adjustViewSizeEv
__ZNK7CyberCore10RenderView12documentRectEv
__ZNK7CyberCore10RenderView20unscaledDocumentRectEv
__ZNK7CyberCore9RenderBox18flipForWritingModeERNS_10LayoutRectE
__ZN7CyberCore9FloatRectC1ERKNS_7IntRectE
__ZN7CyberCore10FloatPointC1ERKNS_8IntPointE
__ZN7CyberCore7IntRectC1ERKNS_9FloatRectE
__ZN7CyberCore10ScrollView15setScrollOriginERKNS_8IntPointEbb
__ZN7CyberCore10ScrollView15setContentsSizeERKNS_7IntSizeE
__ZN7CyberCore9FrameView22visibleContentsResizedEv
__ZThn64_N7CyberCore9FrameView19willRemoveScrollbarEPNS_9ScrollbarENS_20ScrollbarOrientationE
__ZN7CyberCore14ScrollableArea19willRemoveScrollbarEPNS_9ScrollbarENS_20ScrollbarOrientationE
__ZN7CyberCore17ScrollAnimatorMac27willRemoveVerticalScrollbarEPNS_9ScrollbarE
-[WebScrollbarPainterDelegate invalidate]
-[WebScrollbarPainterDelegate .cxx_destruct]
__ZN7CyberCore9FrameView11removeChildEPNS_6WidgetE
__ZNK7CyberCore6Widget11isFrameViewEv
__ZN7CyberCore10ScrollView11removeChildEPNS_6WidgetE
__ZN3WTF9HashTableINS_6RefPtrIN7CyberCore6WidgetEEES4_NS_17IdentityExtractorENS_7PtrHashIS4_EENS_10HashTraitsIS4_EES9_E6lookupINS_22IdentityHashTranslatorIS7_EES4_EEPS4_RKT0_
__ZN7CyberCore9ScrollbarD0Ev
__ZN7CyberCore17ScrollbarThemeMac19unregisterScrollbarEPNS_20ScrollbarThemeClientE
__ZN7CyberCore6WidgetD2Ev
__ZThn64_N7CyberCore9FrameView15contentsResizedEv
__ZN7CyberCore9FrameView15contentsResizedEv
__ZN7CyberCore14ScrollableArea15contentsResizedEv
__ZNK7CyberCore17ScrollAnimatorMac15contentsResizedEv
__ZThn64_NK7CyberCore9FrameView21scrollbarsCanBeActiveEv
-[WebScrollbarPainterControllerDelegate inLiveResizeForScrollerImpPair:]
__ZN7CyberCore11RenderLayer31updateLayerPositionsAfterLayoutEPKS0_j
__ZN7CyberCore17RenderGeometryMapC1Ej
__ZN7CyberCore11RenderLayer20updateLayerPositionsEPNS_17RenderGeometryMapEj
__ZN7CyberCore11RenderLayer19updateLayerPositionEv
__ZNK7CyberCore9RenderBox21topLeftLocationOffsetEv
__ZNK7CyberCore12RenderObject21isRenderScrollbarPartEv
__ZN7CyberCore17RenderGeometryMap22pushMappingsToAncestorEPKNS_11RenderLayerES3_
__ZNK7CyberCore10RenderView22pushMappingToContainerEPKNS_22RenderLayerModelObjectERNS_17RenderGeometryMapE
__ZNK7CyberCore9FrameView28scrollOffsetForFixedPositionEv
__ZN7CyberCore14ScrollableArea34constrainScrollPositionForOverhangERKNS_7IntRectERKNS_7IntSizeERKNS_8IntPointES9_ii
__ZN7CyberCore7IntRect9intersectERKS0_
__ZNK7CyberCore12RenderObject31shouldUseTransformFromContainerEPKS0_
__ZN7CyberCore17RenderGeometryMap8pushViewEPKNS_10RenderViewERKNS_10LayoutSizeEPKNS_20TransformationMatrixE
__ZN3WTF6VectorIN7CyberCore21RenderGeometryMapStepELm32ENS_15CrashOnOverflowEE6insertIS2_EEvmRKT_
__ZNK7CyberCore9RenderBox23outlineBoundsForRepaintEPKNS_22RenderLayerModelObjectEPKNS_17RenderGeometryMapE
__ZNK7CyberCore9RenderBox17borderBoundingBoxEv
__ZNK7CyberCore12RenderObject29adjustRectForOutlineAndShadowERNS_10LayoutRectE
__ZNK7CyberCore11RenderBlock22outlineStyleForRepaintEv
__ZNK7CyberCore11RenderBlock28isAnonymousBlockContinuationEv
__ZN7CyberCore9FloatRectC1ERKNS_10LayoutRectE
__ZN7CyberCore10FloatPointC1ERKNS_11LayoutPointE
__ZN7CyberCore9FloatSizeC1ERKNS_10LayoutSizeE
__ZNK7CyberCore17RenderGeometryMap14mapToContainerERKNS_9FloatRectEPKNS_22RenderLayerModelObjectE
__ZNK7CyberCore9FloatQuad11boundingBoxEv
__ZN7CyberCore16enclosingIntRectERKNS_9FloatRectE
__ZN7CyberCore12RenderObject26repaintAfterLayoutIfNeededEPKNS_22RenderLayerModelObjectERKNS_10LayoutRectES6_PS5_S7_
__ZNK7CyberCore12RenderObject29mustRepaintBackgroundOrBorderEv
__ZN7CyberCoreL21mustRepaintFillLayersEPKNS_12RenderObjectEPKNS_9FillLayerE
__ZN7CyberCore9FrameView23repaintContentRectangleERKNS_7IntRectEb
__ZN3WTF6VectorIN7CyberCore10LayoutRectELm0ENS_15CrashOnOverflowEE15reserveCapacityEm
__ZNK7CyberCore11RenderStyle20getShadowInsetExtentEPKNS_10ShadowDataE
__ZNK7CyberCore11RenderStyle25getShadowHorizontalExtentEPKNS_10ShadowDataERNS_10LayoutUnitES5_
__ZNK7CyberCore11RenderStyle23getShadowVerticalExtentEPKNS_10ShadowDataERNS_10LayoutUnitES5_
__ZNK7CyberCore11RenderLayer20convertToLayerCoordsEPKS0_RNS_11LayoutPointE
__ZN7CyberCoreL31accumulateOffsetTowardsAncestorEPKNS_11RenderLayerES2_RNS_11LayoutPointE
__ZN7CyberCore17RenderGeometryMap4pushEPKNS_12RenderObjectERKNS_10LayoutSizeEbbbb
__ZNK7CyberCore9RenderBox21computeRectForRepaintEPKNS_22RenderLayerModelObjectERNS_10LayoutRectEb
__ZN7CyberCore17RenderGeometryMap21popMappingsToAncestorEPKNS_11RenderLayerE
__ZN7CyberCore17RenderGeometryMap21popMappingsToAncestorEPKNS_22RenderLayerModelObjectE
__ZN7CyberCore17RenderGeometryMapD1Ev
__ZN7CyberCore10ScrollView23repaintContentRectangleERKNS_7IntRectEb
__ZNK7CyberCore10ScrollView16contentsToWindowERKNS_7IntRectE
__ZNK7CyberCore6Widget25convertToContainingWindowERKNS_7IntRectE
__ZN7CyberCore6Widget33convertFromRootToContainingWindowEPKS0_RKNS_7IntRectE
__ZN7CyberCore9FrameView22updateAnnotatedRegionsEv
__ZNK7CyberCore9FrameView15useSlowRepaintsEb
__ZNK7CyberCore12RenderObject12isCompositedEv
__ZN7CyberCore10ScrollView18setCanBlitOnScrollEb
__ZN7CyberCore9FrameView22performPostLayoutTasksEv
__ZN7CyberCore14FrameSelection16updateAppearanceEv
__ZN7CyberCore14FrameSelection18recomputeCaretRectEv
__ZN7CyberCore14FrameSelection14localCaretRectEv
__ZNK7CyberCore9CaretBase26absoluteBoundsForLocalRectEPNS_4NodeERKNS_10LayoutRectE
__ZN7CyberCore15VisiblePositionC1ERKNS_8PositionENS_9EAffinityE
__ZN7CyberCore15VisiblePosition4initERKNS_8PositionENS_9EAffinityE
__ZN7CyberCore15VisiblePosition17canonicalPositionERKNS_8PositionE
__ZN7CyberCore16VisibleSelectionC1ERKNS_15VisiblePositionES3_b
__ZN7CyberCore16VisibleSelection8validateENS_15TextGranularityE
__ZN7CyberCore16VisibleSelection33setBaseAndExtentToDeepEquivalentsEv
__ZN7CyberCore16VisibleSelection52setStartAndEndFromBaseAndExtentRespectingGranularityENS_15TextGranularityE
__ZN7CyberCore16VisibleSelection46adjustSelectionToAvoidCrossingShadowBoundariesEv
__ZN7CyberCore16VisibleSelection47adjustSelectionToAvoidCrossingEditingBoundariesEv
__ZN7CyberCore16VisibleSelection19updateSelectionTypeEv
__ZN7CyberCore10RenderView14clearSelectionEv
__ZN7CyberCore11RenderLayer25repaintBlockSelectionGapsEv
__ZN7CyberCore10RenderView12setSelectionEPNS_12RenderObjectEiS2_iNS0_20SelectionRepaintModeE
__ZN7CyberCore16VisibleSelectionD2Ev
__ZNK7CyberCore4Page14renderTreeSizeEv
__ZNK7CyberCore4Page9pageCountEv
__ZN7CyberCore10RenderView21updateWidgetPositionsEv
__ZN7CyberCore10RenderView18getRetainedWidgetsERN3WTF6VectorIPNS_12RenderWidgetELm0ENS1_15CrashOnOverflowEEE
__ZN3WTF6VectorIPN7CyberCore12RenderWidgetELm0ENS_15CrashOnOverflowEE15reserveCapacityEm
__ZN7CyberCore9FrameView13updateWidgetsEv
__ZN7CyberCore9FrameView14scrollToAnchorEv
__ZN7CyberCore9FrameView23sendResizeEventIfNeededEv
__ZN7CyberCore10ScrollView26invalidateScrollCornerRectERKNS_7IntRectE
__ZNK7CyberCore17ScrollAnimatorMac22isRubberBandInProgressEv
__ZNK7CyberCore26ScrollController22isRubberBandInProgressEv
__ZN7CyberCore10ScrollView19updateOverhangAreasEv
__ZN7CyberCore10ScrollView33calculateOverhangAreasForPaintingERNS_7IntRectES2_
__ZNK7CyberCore6Chrome19contentsSizeChangedEPNS_5FrameERKNS_7IntSizeE
__ZNK7CyberCore12HTMLDocument10isFrameSetEv
__ZN7CyberCore11FrameLoader14didFirstLayoutEv
__ZN7CyberCore4Page37startCountingRelevantRepaintedObjectsEv
__ZN7CyberCore4Page33resetRelevantPaintedObjectCounterEv
__ZN3WTF12VectorBufferIiLm32EE4swapERS1_
__ZN3WTF12VectorBufferIN7CyberCore6Region4SpanELm16EE4swapERS4_
__ZN7CyberCore9FrameView18updateControlTintsEv
__ZN7CyberCore14FrameSelection21pageActivationChangedEv
__ZN7CyberCore14FrameSelection27focusedOrActiveStateChangedEv
__ZNK7CyberCore10RenderView16repaintSelectionEv
__ZN7CyberCore12EventHandler27capsLockStateMayHaveChangedEv
__ZN7CyberCore15FocusController10setFocusedEb
__ZN7CyberCore4Page13setIsInWindowEb
__ZN7CyberCore9FrameView13setIsInWindowEb
__ZN7CyberCore21RenderLayerCompositor13setIsInWindowEb
__ZN7CyberCore4Page17willMoveOffscreenEv
__ZN7CyberCore9FrameView17willMoveOffscreenEv
__ZNK7CyberCore14ScrollableArea18contentAreaDidHideEv
__ZNK7CyberCore17ScrollAnimatorMac18contentAreaDidHideEv
__ZN7CyberCore8Document43suspendScriptedAnimationControllerCallbacksEv
__ZN7CyberCore9FrameView24setScrollPinningBehaviorENS_21ScrollPinningBehaviorE
__ZN7CyberCore4Page14setMediaVolumeEf
__ZN7CyberCore4Page19addLayoutMilestonesEj
__ZN7CyberCore4Page11PageClientsD1Ev
__ZN7CyberCore4Page18setVisibilityStateENS_19PageVisibilityStateEb
__ZN7CyberCore19AnimationController17suspendAnimationsEv
__ZN7CyberCore26AnimationControllerPrivate17suspendAnimationsEv
__ZN7CyberCore26AnimationControllerPrivate28suspendAnimationsForDocumentEPNS_8DocumentE
__ZN7CyberCore26AnimationControllerPrivate20updateAnimationTimerENS_10SetChangedE
__ZN7CyberCore26AnimationControllerPrivate16updateAnimationsENS_10SetChangedE
__ZN7CyberCore10ScrollView4hideEv
__ZN7CyberCore6Widget4hideEv
__ZN7CyberCore8Document29storageBlockingStateDidChangeEv
__ZN7CyberCore9FrameView37setScrollingPerformanceLoggingEnabledEb
__ZN7CyberCore9FrameView12tiledBackingEv
__ZN7CyberCore15ScrollingThread8dispatchERKN3WTF8FunctionIFvvEEE
__ZN7CyberCore15ScrollingThread14threadCallbackEPv
__ZN7CyberCore15ScrollingThread17initializeRunLoopEv
__ZN3WTF6VectorINS_8FunctionIFvvEEELm0ENS_15CrashOnOverflowEE14expandCapacityEmPKS3_
__ZN3WTF6VectorINS_8FunctionIFvvEEELm0ENS_15CrashOnOverflowEE15reserveCapacityEm
__ZN7CyberCore15ScrollingThread13wakeUpRunLoopEv
__ZN7CyberCore15ScrollingThread27threadRunLoopSourceCallbackEPv
__ZN7CyberCore15ScrollingThread36dispatchFunctionsFromScrollingThreadEv
__ZN7CyberCore13ScrollingTree37setScrollingPerformanceLoggingEnabledEb
__ZN7CyberCore9PageCache31canCachePageContainingThisFrameEPNS_5FrameE
__ZN7CyberCore21RenderLayerCompositor15ensureRootLayerEv
__ZNK7CyberCore21RenderLayerCompositor42shouldPropagateCompositingToEnclosingFrameEv
__ZN7CyberCore13GraphicsLayer6createEPNS_20GraphicsLayerFactoryEPNS_19GraphicsLayerClientE
__ZN7CyberCore15GraphicsLayerCAC2EPNS_19GraphicsLayerClientE
__ZN7CyberCore13GraphicsLayerC2EPNS_19GraphicsLayerClientE
__ZNK7CyberCore19GraphicsLayerClient21shouldUseTiledBackingEPKNS_13GraphicsLayerE
__ZN7CyberCore15PlatformCALayer6createENS0_9LayerTypeEPNS_21PlatformCALayerClientE
__ZN7CyberCore15PlatformCALayerC2ENS0_9LayerTypeEP7CALayerPNS_21PlatformCALayerClientE
-[WebLayer actionForKey:]
__ZNK7CyberCore15GraphicsLayerCA21canThrottleLayerFlushEv
__ZN7CyberCore21RenderLayerCompositor19notifyFlushRequiredEPKNS_13GraphicsLayerE
__ZN7CyberCore19LayerFlushScheduler8scheduleEv
__ZNK7CyberCore10RenderView30pixelSnappedLayoutOverflowRectEv
__ZN7CyberCore15GraphicsLayerCA7setSizeERKNS_9FloatSizeE
__ZN7CyberCore15GraphicsLayerCA11setPositionERKNS_10FloatPointE
__ZN7CyberCore15GraphicsLayerCA16setMasksToBoundsEb
__ZN7CyberCore20ScrollingCoordinator41setLayerIsContainerForFixedPositionLayersEPNS_13GraphicsLayerEb
__ZN7CyberCore15GraphicsLayerCA8addChildEPNS_13GraphicsLayerE
__ZN7CyberCore13GraphicsLayer8addChildEPS0_
__ZN3WTF6VectorIPN7CyberCore13GraphicsLayerELm0ENS_15CrashOnOverflowEE14expandCapacityEmPKS3_
__ZN3WTF6VectorIPN7CyberCore13GraphicsLayerELm0ENS_15CrashOnOverflowEE15reserveCapacityEm
__ZN7CyberCore15GraphicsLayerCA20noteSublayersChangedEv
__ZN7CyberCore21RenderLayerCompositor22frameViewDidChangeSizeEv
__ZN7CyberCore21RenderLayerCompositor18frameViewDidScrollEv
__ZNK7CyberCore20ScrollingCoordinator32coordinatesScrollingForFrameViewEPNS_9FrameViewE
__ZN7CyberCore21RenderLayerCompositor28updateOverflowControlsLayersEv
__ZNK7CyberCore21RenderLayerCompositor26requiresOverhangAreasLayerEv
__ZNK7CyberCore9FrameView19hasOpaqueBackgroundEv
__ZN7CyberCore15GraphicsLayerCA15setDrawsContentEb
__ZN7CyberCore17ScrollbarThemeMac31setUpOverhangAreasLayerContentsEPNS_13GraphicsLayerERKNS_5ColorE
__ZNK7CyberCore15GraphicsLayerCA13platformLayerEv
__ZNK7CyberCore15PlatformCALayer13platformLayerEv
__ZN7CyberCore15GraphicsLayerCA13addChildBelowEPNS_13GraphicsLayerES2_
__ZN7CyberCore13GraphicsLayer13addChildBelowEPS0_S1_
__ZN7CyberCore15GraphicsLayerCA16removeFromParentEv
__ZN7CyberCore13GraphicsLayer16removeFromParentEv
__ZNK7CyberCore21RenderLayerCompositor26requiresContentShadowLayerEv
__ZNK7CyberCore9FrameView13isTransparentEv
__ZN7CyberCore17ScrollbarThemeMac23setUpContentShadowLayerEPNS_13GraphicsLayerE
__ZNK7CyberCore21RenderLayerCompositor31shouldCompositeOverflowControlsEv
__ZNK7CyberCore10ScrollView21isScrollCornerVisibleEv
__ZN7CyberCore21RenderLayerCompositor15attachRootLayerENS0_19RootLayerAttachmentE
__ZN7CyberCore9FrameView26adjustTiledBackingCoverageEv
__ZN7CyberCore21RenderLayerCompositor32notifyIFramesOfCompositingChangeEv
__ZN7CyberCore21RenderLayerCompositor10OverlapMap24pushCompositingContainerEv
__ZN3WTF6VectorINS0_IN7CyberCore7IntRectELm0ENS_15CrashOnOverflowEEELm0ES3_E14expandCapacityEmPKS4_
__ZN3WTF6VectorINS0_IN7CyberCore7IntRectELm0ENS_15CrashOnOverflowEEELm0ES3_E15reserveCapacityEm
__ZN3WTF6VectorIN7CyberCore7IntRectELm0ENS_15CrashOnOverflowEEC1ERKS4_
__ZN7CyberCore21RenderLayerCompositor30computeCompositingRequirementsEPNS_11RenderLayerES2_PNS0_10OverlapMapERNS_16CompositingStateERbS7_
__ZN7CyberCore11RenderLayer24updateLayerListsIfNeededEv
__ZN7CyberCore11RenderLayer17updateZOrderListsEv
__ZN7CyberCore11RenderLayer18rebuildZOrderListsENS0_21CollectLayersBehaviorERN3WTF6OwnPtrINS2_6VectorIPS0_Lm0ENS2_15CrashOnOverflowEEEEES9_
__ZN7CyberCore11RenderLayer20updateNormalFlowListEv
__ZN7CyberCore11RenderLayer45updateDescendantsAreContiguousInStackingOrderEv
__ZNK7CyberCore11RenderLayer15reflectionLayerEv
__ZNK7CyberCore11RenderLayer35enclosingCompositingLayerForRepaintENS_16IncludeSelfOrNotE
__ZN7CyberCore11RenderLayer41repaintIncludingNonCompositingDescendantsEPNS_22RenderLayerModelObjectE
__ZN7CyberCore9FrameView37setNeedsOneShotDrawingSynchronizationEv
__ZN7CyberCore11RenderLayer13ensureBackingEv
__ZN7CyberCore18RenderLayerBackingC1EPNS_11RenderLayerE
__ZN7CyberCore18RenderLayerBackingC2EPNS_11RenderLayerE
__ZN7CyberCore18RenderLayerBacking26createPrimaryGraphicsLayerEv
__ZN7CyberCore18RenderLayerBacking19createGraphicsLayerERKN3WTF6StringE
__ZNK7CyberCore18RenderLayerBacking21shouldUseTiledBackingEPKNS_13GraphicsLayerE
-[WebTiledBackingLayer .cxx_construct]
-[WebTiledBackingLayer init]
__ZN7CyberCore14TileController6createEP20WebTiledBackingLayer
__ZN7CyberCore14TileControllerC2EP20WebTiledBackingLayer
-[WebTiledBackingLayer actionForKey:]
__ZN3WTF6OwnPtrINS_6VectorINS_6RefPtrIN7CyberCore15PlatformCALayerEEELm0ENS_15CrashOnOverflowEEEEaSERKNS_10PassOwnPtrIS7_EE
__ZN3WTF10PassOwnPtrINS_6VectorINS_6RefPtrIN7CyberCore15PlatformCALayerEEELm0ENS_15CrashOnOverflowEEEED2Ev
-[WebTiledBackingLayer tileContainerLayer]
__ZN7CyberCore8Document20mediaVolumeDidChangeEv
__ZN7CyberCore16FrameLoadRequestC1EPNS_5FrameERKNS_15ResourceRequestERKNS_14SubstituteDataE
__ZN7CyberCore16FrameLoadRequestC2EPNS_5FrameERKNS_15ResourceRequestERKNS_14SubstituteDataE
__ZN7CyberCore11FrameLoader4loadERKNS_16FrameLoadRequestE
__ZN7CyberCore16FrameLoadRequestC2ERKS0_
__ZN7CyberCore11FrameLoader27defaultSubstituteDataForURLERKNS_4KURLE
__ZNK7CyberCore11FrameLoader30shouldTreatURLAsSrcdocDocumentERKNS_4KURLE
__ZN7CyberCore14SubstituteDataaSERKS0_
__ZN7CyberCore11FrameLoader4loadEPNS_14DocumentLoaderE
__ZN7CyberCore11FrameLoader23addExtraFieldsToRequestERNS_15ResourceRequestENS_13FrameLoadTypeEb
__ZN7CyberCore19ResourceRequestBase23setFirstPartyForCookiesERKNS_4KURLE
__ZN7CyberCore11FrameLoader14applyUserAgentERNS_15ResourceRequestE
__ZN7CyberCore19ResourceRequestBase18setHTTPHeaderFieldEPKcRKN3WTF6StringE
__ZN7CyberCore19ResourceRequestBase18setHTTPHeaderFieldERKN3WTF12AtomicStringERKNS1_6StringE
__ZNK7CyberCore19ResourceRequestBase13isConditionalEv
__ZNK7CyberCore13HTTPHeaderMap8containsEPKc
__ZN7CyberCore11FrameLoader21addHTTPOriginIfNeededERNS_15ResourceRequestERKN3WTF6StringE
__ZNK7CyberCore19ResourceRequestBase15httpHeaderFieldEPKc
__ZNK7CyberCore8Document8encodingEv
__ZNK7CyberCore12TextEncoding7domNameEv
__ZN7CyberCore30noExtendedTextEncodingNameUsedEv
__ZNK7CyberCore14DocumentLoader15originalRequestEv
__ZNK7CyberCore11FrameLoader29shouldTreatURLAsSameAsCurrentERKNS_4KURLE
__ZNK7CyberCore14DocumentLoader14unreachableURLEv
__ZN7CyberCore11FrameLoader34shouldReloadToHandleUnreachableURLEPNS_14DocumentLoaderE
__ZN7CyberCore11FrameLoader22loadWithDocumentLoaderEPNS_14DocumentLoaderENS_13FrameLoadTypeEN3WTF10PassRefPtrINS_9FormStateEEE
__ZNK7CyberCore4KURL21hasFragmentIdentifierEv
__ZN7CyberCore13PolicyChecker9stopCheckEv
__ZN7CyberCore14PolicyCallbackC2ERKS0_
__ZN7CyberCore14PolicyCallback5clearEv
__ZN7CyberCore14PolicyCallback12clearRequestEv
__ZN7CyberCore19ResourceRequestBaseaSERKS0_
__ZN7CyberCore14PolicyCallback6cancelEv
__ZN7CyberCore14PolicyCallbackD1Ev
__ZN7CyberCore14PolicyCallbackD2Ev
__ZN7CyberCore16NavigationActionC1ERKNS_15ResourceRequestENS_13FrameLoadTypeEb
__ZN3WTF22IdentityHashTranslatorINS_15CaseFoldingHashEE9translateINS_12KeyValuePairINS_12AtomicStringENS_6StringEEES5_EEvRT_RKT0_RKS8_
__ZN7CyberCore16NavigationActionaSERKS0_
__ZN7CyberCore13PolicyChecker21checkNavigationPolicyERKNS_15ResourceRequestEPNS_14DocumentLoaderEN3WTF10PassRefPtrINS_9FormStateEEEPFvPvS3_S9_bESA_
__ZN7CyberCore25equalIgnoringHeaderFieldsERKNS_19ResourceRequestBaseES2_
__ZN7CyberCore14DocumentLoader21setLastCheckedRequestERKNS_15ResourceRequestE
__ZN7CyberCore14PolicyCallback3setERKNS_15ResourceRequestEN3WTF10PassRefPtrINS_9FormStateEEEPFvPvS3_S7_bES8_
__ZNK7CyberCore19ResourceRequestBase7isEmptyEv
__ZN7CyberCore21findEventWithKeyStateEPNS_5EventE
__ZN7CyberCore14SchemeRegistry34shouldLoadURLSchemeAsEmptyDocumentERKN3WTF6StringE
__ZN7CyberCore13PolicyChecker29continueAfterNavigationPolicyENS_12PolicyActionE
__ZN7CyberCore14PolicyCallback4callEb
__ZN7CyberCore11FrameLoader37callContinueLoadAfterNavigationPolicyEPvRKNS_15ResourceRequestEN3WTF10PassRefPtrINS_9FormStateEEEb
__ZN7CyberCore11FrameLoader33continueLoadAfterNavigationPolicyERKNS_15ResourceRequestEN3WTF10PassRefPtrINS_9FormStateEEEb
__ZN7CyberCore11FrameLoader11shouldCloseEv
__ZN7CyberCore6Chrome30canRunBeforeUnloadConfirmPanelEv
__ZN7CyberCore11FrameLoader14stopAllLoadersENS_26ClearProvisionalItemPolicyE
__ZN7CyberCore14DocumentLoader11stopLoadingEv
__ZN7CyberCoreL9cancelAllERKN3WTF7HashSetINS0_6RefPtrINS_14ResourceLoaderEEENS0_7PtrHashIS4_EENS0_10HashTraitsIS4_EEEE
__ZN3WTF12copyToVectorINS_7HashSetINS_6RefPtrIN7CyberCore14ResourceLoaderEEENS_7PtrHashIS5_EENS_10HashTraitsIS5_EEEENS_6VectorIS5_Lm0ENS_15CrashOnOverflowEEEEEvRKT_RT0_
__ZN3WTF6VectorINS_6RefPtrIN7CyberCore14ResourceLoaderEEELm0ENS_15CrashOnOverflowEE6resizeEm
__ZN7CyberCore20ApplicationCacheHost18stopLoadingInFrameEPNS_5FrameE
__ZN7CyberCore19InspectorController6resumeEv
__ZN7CyberCore22InspectorDebuggerAgent6resumeEPN3WTF6StringE
__ZN7CyberCore22InspectorDebuggerAgent12assertPausedEPN3WTF6StringE
__ZNK7CyberCore23FrameLoaderStateMachine15firstLayoutDoneEv
__ZN7CyberCore11FrameLoader19prepareForLoadStartEv
__ZN7CyberCore15ProgressTracker15progressStartedEPNS_5FrameE
__ZN7CyberCore15ProgressTracker5resetEv
__ZN7CyberCore11FrameLoader28loadProgressingStatusChangedEv
__ZN7CyberCore9FrameView37updateLayerFlushThrottlingInAllFramesEv
__ZNK7CyberCore15ProgressTracker21isMainLoadProgressingEv
__ZN7CyberCore21RenderLayerCompositor30setLayerFlushThrottlingEnabledEb
__ZN7CyberCore24InspectorInstrumentation23frameStartedLoadingImplEPNS_19InstrumentingAgentsEPNS_5FrameE
__ZNK7CyberCore7Element25containsFullScreenElementEv
__ZN7CyberCore4Page20unmarkAllTextMatchesEv
__ZN7CyberCore24DocumentMarkerController13removeMarkersENS_14DocumentMarker11MarkerTypesE
__ZNK7CyberCore9FrameTree20traverseNextWithWrapEb
__ZNK7CyberCore14DocumentLoader3urlEv
__ZN7CyberCore11FrameLoader35addExtraFieldsToMainResourceRequestERNS_15ResourceRequestE
__ZN7CyberCore14DocumentLoader15willSendRequestERNS_15ResourceRequestERKNS_16ResourceResponseE
__ZNK7CyberCore11FrameLoader29checkIfFormActionAllowedByCSPERKNS_4KURLE
__ZNK7CyberCore11FrameLoader18isLoadingMainFrameEv
__ZNK7CyberCore20ResourceResponseBase14httpStatusCodeEv
__ZN7CyberCore14DocumentLoader10setRequestERKNS_15ResourceRequestE
__ZN7CyberCore20ApplicationCacheHost21maybeLoadMainResourceERNS_15ResourceRequestERNS_14SubstituteDataE
__ZN7CyberCore21ApplicationCacheGroup19cacheForMainRequestERKNS_15ResourceRequestEPNS_14DocumentLoaderE
__ZN7CyberCore16ApplicationCache23requestIsHTTPOrHTTPSGetERKNS_15ResourceRequestE
__ZN7CyberCore23ApplicationCacheStorage16cacheGroupForURLERKNS_4KURLE
__ZN7CyberCore23ApplicationCacheStorage22loadManifestHostHashesEv
__ZN7CyberCore23ApplicationCacheStorage12openDatabaseEb
__ZN7CyberCoreL11urlHostHashERKNS_4KURLE
__ZN7CyberCore21CachedResourceRequestC1ERKNS_15ResourceRequestERKNS_21ResourceLoaderOptionsE
__ZN7CyberCore20CachedResourceLoader19requestMainResourceERNS_21CachedResourceRequestE
__ZN7CyberCore20CachedResourceLoader15requestResourceENS_14CachedResource4TypeERNS_21CachedResourceRequestE
__ZN7CyberCore11MemoryCache32removeFragmentIdentifierIfNeededERKNS_4KURLE
__ZN7CyberCore20CachedResourceLoader10canRequestENS_14CachedResource4TypeERKNS_4KURLEb
__ZN7CyberCore16ScriptController42shouldBypassMainWorldContentSecurityPolicyEv
__ZN7CyberCore15JSDOMWindowBase8commonVMEv
__ZN7CyberCore15DOMWrapperWorldC1EPN3JSC2VMEb
__ZN3WTF9HashTableIPN7CyberCore15DOMWrapperWorldES3_NS_17IdentityExtractorENS_7PtrHashIS3_EENS_10HashTraitsIS3_EES8_E3addINS_22IdentityHashTranslatorIS6_EES3_S3_EENS_18HashTableAddResultINS_17HashTableIteratorIS3_S3_S4_S6_S8_S8_EEEERKT0_RKT1_
__ZN3WTF9HashTableIPN7CyberCore15DOMWrapperWorldES3_NS_17IdentityExtractorENS_7PtrHashIS3_EENS_10HashTraitsIS3_EES8_E6rehashEi
__ZN7CyberCore11MemoryCache18resourceForRequestERKNS_15ResourceRequestE
__ZN3WTF9HashTableINS_6StringENS_12KeyValuePairIS1_NS_6OwnPtrINS_7HashMapIS1_PN7CyberCore14CachedResourceENS_10StringHashENS_10HashTraitsIS1_EENS9_IS7_EEEEEEEENS_24KeyValuePairKeyExtractorISE_EES8_NS_18HashMapValueTraitsISA_NS9_ISD_EEEESA_E16lookupForWritingINS_22IdentityHashTranslatorIS8_EES1_EENSt3__14pairIPSE_bEERKT0_
__ZN3WTF9HashTableINS_6StringENS_12KeyValuePairIS1_NS_6OwnPtrINS_7HashMapIS1_PN7CyberCore14CachedResourceENS_10StringHashENS_10HashTraitsIS1_EENS9_IS7_EEEEEEEENS_24KeyValuePairKeyExtractorISE_EES8_NS_18HashMapValueTraitsISA_NS9_ISD_EEEESA_E3addINS_17HashMapTranslatorISJ_S8_EES1_NS_10PassOwnPtrISC_EEEENS_18HashTableAddResultINS_17HashTableIteratorIS1_SE_SG_S8_SJ_SA_EEEERKT0_RKT1_
__ZN3WTF9HashTableINS_6StringENS_12KeyValuePairIS1_NS_6OwnPtrINS_7HashMapIS1_PN7CyberCore14CachedResourceENS_10StringHashENS_10HashTraitsIS1_EENS9_IS7_EEEEEEEENS_24KeyValuePairKeyExtractorISE_EES8_NS_18HashMapValueTraitsISA_NS9_ISD_EEEESA_E6lookupINS_22IdentityHashTranslatorIS8_EES1_EEPSE_RKT0_
__ZN3WTF9HashTableINS_6StringENS_12KeyValuePairIS1_NS_6OwnPtrINS_7HashMapIS1_PN7CyberCore14CachedResourceENS_10StringHashENS_10HashTraitsIS1_EENS9_IS7_EEEEEEEENS_24KeyValuePairKeyExtractorISE_EES8_NS_18HashMapValueTraitsISA_NS9_ISD_EEEESA_E6rehashEi
__ZN3WTF9HashTableINS_6StringENS_12KeyValuePairIS1_NS_6OwnPtrINS_7HashMapIS1_PN7CyberCore14CachedResourceENS_10StringHashENS_10HashTraitsIS1_EENS9_IS7_EEEEEEEENS_24KeyValuePairKeyExtractorISE_EES8_NS_18HashMapValueTraitsISA_NS9_ISD_EEEESA_E6removeEPSE_
__ZN7CyberCore24CachedResourceHandleBase11setResourceEPNS_14CachedResourceE
__ZNK7CyberCore20CachedResourceLoader27determineRevalidationPolicyENS_14CachedResource4TypeERNS_15ResourceRequestEbPS1_NS_21CachedResourceRequest11DeferOptionE
__ZN7CyberCoreL14createResourceENS_14CachedResource4TypeERNS_15ResourceRequestERKN3WTF6StringE
__ZN7CyberCore17CachedRawResourceC1ERNS_15ResourceRequestENS_14CachedResource4TypeE
__ZN7CyberCore14CachedResourceC2ERKNS_15ResourceRequestENS0_4TypeE
__ZN7CyberCore24CachedResourceHandleBaseC2EPNS_14CachedResourceE
__ZN7CyberCore14CachedResource14registerHandleEPNS_24CachedResourceHandleBaseE
__ZN7CyberCore11MemoryCache3addEPNS_14CachedResourceE
__ZN3WTF7HashMapINS_6StringENS_6OwnPtrINS0_IS1_PN7CyberCore14CachedResourceENS_10StringHashENS_10HashTraitsIS1_EENS7_IS5_EEEEEES6_S8_NS7_ISB_EEE3setERKS1_NS_10PassOwnPtrISA_EE
__ZN3WTF6OwnPtrINS_7HashMapINS_6StringEPN7CyberCore14CachedResourceENS_10StringHashENS_10HashTraitsIS2_EENS7_IS5_EEEEEaSERKNS_10PassOwnPtrISA_EE
__ZN7CyberCore11MemoryCache16resourceAccessedEPNS_14CachedResourceE
__ZNK7CyberCore14CachedResource12overheadSizeEv
__ZN7CyberCore11MemoryCache10lruListForEPNS_14CachedResourceE
__ZN7CyberCore14CachedResource16unregisterHandleEPNS_24CachedResourceHandleBaseE
__ZN7CyberCore14CachedResource15setLoadPriorityENS_20ResourceLoadPriorityE
__ZN7CyberCore14CachedResource4loadEPNS_20CachedResourceLoaderERKNS_21ResourceLoaderOptionsE
__ZNK7CyberCore20CachedResourceLoader5frameEv
__ZN7CyberCore19ResourceRequestBase11setPriorityENS_20ResourceLoadPriorityE
__ZNK7CyberCore19ResourceRequestBase8priorityEv
__ZN7CyberCore21ResourceLoadScheduler23scheduleSubresourceLoadEPNS_5FrameEPNS_14CachedResourceERKNS_15ResourceRequestENS_20ResourceLoadPriorityERKNS_21ResourceLoaderOptionsE
__ZN7CyberCore17SubresourceLoader6createEPNS_5FrameEPNS_14CachedResourceERKNS_15ResourceRequestERKNS_21ResourceLoaderOptionsE
__ZN7CyberCore14ResourceLoaderC2EPNS_5FrameENS_21ResourceLoaderOptionsE
__ZN7CyberCore20ResourceHandleClientC2Ev
__ZN7CyberCore20CachedResourceLoader21incrementRequestCountEPKNS_14CachedResourceE
__ZN7CyberCore17SubresourceLoader4initERKNS_15ResourceRequestE
__ZN7CyberCore14ResourceLoader4initERKNS_15ResourceRequestE
__ZN7CyberCore17SubresourceLoader15willSendRequestERNS_15ResourceRequestERKNS_16ResourceResponseE
__ZN7CyberCore14ResourceLoader15willSendRequestERNS_15ResourceRequestERKNS_16ResourceResponseE
__ZN7CyberCore15ProgressTracker22createUniqueIdentifierEv
__ZN7CyberCore20ResourceLoadNotifier32assignIdentifierToInitialRequestEmPNS_14DocumentLoaderERKNS_15ResourceRequestE
__ZNK7CyberCore14DocumentLoader11frameLoaderEv
__ZN7CyberCore20ResourceLoadNotifier15willSendRequestEPNS_14ResourceLoaderERNS_15ResourceRequestERKNS_16ResourceResponseE
__ZN7CyberCore20ResourceLoadNotifier23dispatchWillSendRequestEPNS_14DocumentLoaderEmRNS_15ResourceRequestERKNS_16ResourceResponseE
__ZN7CyberCore15ResourceRequest39updateFromDelegatePreservingOldHTTPBodyERKS0_
__ZNK7CyberCore19ResourceRequestBase8httpBodyEv
__ZN7CyberCore19ResourceRequestBase11setHTTPBodyEN3WTF10PassRefPtrINS_8FormDataEEE
__ZN7CyberCore24InspectorInstrumentation19willSendRequestImplEPNS_19InstrumentingAgentsEmPNS_14DocumentLoaderERNS_15ResourceRequestERKNS_16ResourceResponseE
__ZNK7CyberCore14DocumentLoader10requestURLEv
__ZN7CyberCore14DocumentLoader20addSubresourceLoaderEPNS_14ResourceLoaderE
__ZN7CyberCore21ResourceLoadScheduler12scheduleLoadEPNS_14ResourceLoaderENS_20ResourceLoadPriorityE
__ZNK7CyberCore14DocumentLoader21archiveResourceForURLERKNS_4KURLE
__ZN7CyberCore21ResourceLoadScheduler10hostForURLERKNS_4KURLENS0_16CreateHostPolicyE
__ZN3WTF9HashTableINS_6StringENS_12KeyValuePairIS1_PN7CyberCore21ResourceLoadScheduler15HostInformationEEENS_24KeyValuePairKeyExtractorIS7_EENS_10StringHashENS_18HashMapValueTraitsINS_10HashTraitsIS1_EENSC_IS6_EEEESD_E16lookupForWritingINS_22IdentityHashTranslatorISA_EES1_EENSt3__14pairIPS7_bEERKT0_
__ZN3WTF9HashTableINS_6StringENS_12KeyValuePairIS1_PN7CyberCore21ResourceLoadScheduler15HostInformationEEENS_24KeyValuePairKeyExtractorIS7_EENS_10StringHashENS_18HashMapValueTraitsINS_10HashTraitsIS1_EENSC_IS6_EEEESD_E3addINS_17HashMapTranslatorISF_SA_EES1_S6_EENS_18HashTableAddResultINS_17HashTableIteratorIS1_S7_S9_SA_SF_SD_EEEERKT0_RKT1_
__ZN3WTF9HashTableINS_6StringENS_12KeyValuePairIS1_PN7CyberCore21ResourceLoadScheduler15HostInformationEEENS_24KeyValuePairKeyExtractorIS7_EENS_10StringHashENS_18HashMapValueTraitsINS_10HashTraitsIS1_EENSC_IS6_EEEESD_E6lookupINS_22IdentityHashTranslatorISA_EES1_EEPS7_RKT0_
__ZN3WTF9HashTableINS_6StringENS_12KeyValuePairIS1_PN7CyberCore21ResourceLoadScheduler15HostInformationEEENS_24KeyValuePairKeyExtractorIS7_EENS_10StringHashENS_18HashMapValueTraitsINS_10HashTraitsIS1_EENSC_IS6_EEEESD_E6rehashEi
__ZN3WTF5DequeINS_6RefPtrIN7CyberCore14ResourceLoaderEEELm0EE14expandCapacityEv
__ZN7CyberCore21ResourceLoadScheduler20servePendingRequestsEPNS0_15HostInformationENS_20ResourceLoadPriorityE
__ZNK7CyberCore14ResourceLoader11frameLoaderEv
__ZN3WTF9HashTableINS_6RefPtrIN7CyberCore14ResourceLoaderEEES4_NS_17IdentityExtractorENS_7PtrHashIS4_EENS_10HashTraitsIS4_EES9_E3addINS_22IdentityHashTranslatorIS7_EES4_S4_EENS_18HashTableAddResultINS_17HashTableIteratorIS4_S4_S5_S7_S9_S9_EEEERKT0_RKT1_
__ZN3WTF9HashTableINS_6RefPtrIN7CyberCore14ResourceLoaderEEES4_NS_17IdentityExtractorENS_7PtrHashIS4_EENS_10HashTraitsIS4_EES9_E6lookupINS_22IdentityHashTranslatorIS7_EES4_EEPS4_RKT0_
__ZN3WTF9HashTableINS_6RefPtrIN7CyberCore14ResourceLoaderEEES4_NS_17IdentityExtractorENS_7PtrHashIS4_EENS_10HashTraitsIS4_EES9_E6rehashEi
__ZN7CyberCore14ResourceLoader5startEv
__ZN7CyberCore14DocumentLoader19scheduleArchiveLoadEPNS_14ResourceLoaderERKNS_15ResourceRequestE
__ZN7CyberCore20ApplicationCacheHost17maybeLoadResourceEPNS_14ResourceLoaderERNS_15ResourceRequestERKNS_4KURLE
__ZN7CyberCore20ApplicationCacheHost38shouldLoadResourceFromApplicationCacheERKNS_15ResourceRequestERPNS_24ApplicationCacheResourceE
__ZNK7CyberCore11FrameLoader17networkingContextEv
__ZN7CyberCore14ResourceHandle6createEPNS_17NetworkingContextERKNS_15ResourceRequestEPNS_20ResourceHandleClientEbb
__ZN3WTF9HashTableINS_12AtomicStringENS_12KeyValuePairIS1_PFNS_10PassRefPtrIN7CyberCore14ResourceHandleEEERKNS4_15ResourceRequestEPNS4_20ResourceHandleClientEEEENS_24KeyValuePairKeyExtractorISE_EENS_16AtomicStringHashENS_18HashMapValueTraitsINS_10HashTraitsIS1_EENSJ_ISD_EEEESK_E3addINS_17HashMapTranslatorISM_SH_EES1_SD_EENS_18HashTableAddResultINS_17HashTableIteratorIS1_SE_SG_SH_SM_SK_EEEERKT0_RKT1_
__ZN3WTF9HashTableINS_12AtomicStringENS_12KeyValuePairIS1_PFNS_10PassRefPtrIN7CyberCore14ResourceHandleEEERKNS4_15ResourceRequestEPNS4_20ResourceHandleClientEEEENS_24KeyValuePairKeyExtractorISE_EENS_16AtomicStringHashENS_18HashMapValueTraitsINS_10HashTraitsIS1_EENSJ_ISD_EEEESK_E4findINS_22IdentityHashTranslatorISH_EES1_EENS_17HashTableIteratorIS1_SE_SG_SH_SM_SK_EERKT0_
__ZN3WTF9HashTableINS_12AtomicStringENS_12KeyValuePairIS1_PFNS_10PassRefPtrIN7CyberCore14ResourceHandleEEERKNS4_15ResourceRequestEPNS4_20ResourceHandleClientEEEENS_24KeyValuePairKeyExtractorISE_EENS_16AtomicStringHashENS_18HashMapValueTraitsINS_10HashTraitsIS1_EENSJ_ISD_EEEESK_E6rehashEi
__ZN3WTF9HashTableINS_12AtomicStringENS_12KeyValuePairIS1_PFNS_10PassRefPtrIN7CyberCore14ResourceHandleEEERKNS4_15ResourceRequestEPNS4_20ResourceHandleClientEEEENS_24KeyValuePairKeyExtractorISE_EENS_16AtomicStringHashENS_18HashMapValueTraitsINS_10HashTraitsIS1_EENSJ_ISD_EEEESK_E8reinsertERSE_
__ZN7CyberCore14ResourceHandleC2EPNS_17NetworkingContextERKNS_15ResourceRequestEPNS_20ResourceHandleClientEbb
__ZN7CyberCore22ResourceHandleInternalC2EPNS_14ResourceHandleEPNS_17NetworkingContextERKNS_15ResourceRequestEPNS_20ResourceHandleClientEbb
__ZN7CyberCore10CredentialC1Ev
__ZN7CyberCore27AuthenticationChallengeBaseC2Ev
__ZN7CyberCore15ProtectionSpaceC1Ev
__ZNK7CyberCore4KURL4userEv
__ZNK7CyberCore4KURL4passEv
__ZN7CyberCore19ResourceRequestBase17removeCredentialsEv
__ZN7CyberCore11portAllowedERKNS_4KURLE
__ZN7CyberCore14ResourceHandle5startEv
__ZN7CyberCore21NetworkStorageSession21defaultStorageSessionEv
__ZNK7CyberCore14ResourceHandle6clientEv
__ZN7CyberCore14ResourceLoader26shouldUseCredentialStorageEPNS_14ResourceHandleE
__ZN7CyberCore14ResourceLoader26shouldUseCredentialStorageEv
__ZN7CyberCore14ResourceHandle8delegateEv
__ZN7CyberCore20ResourceHandleClient18usesAsyncCallbacksEv
-[CyberCoreResourceHandleAsDelegate initWithHandle:]
__ZN7CyberCore14ResourceHandle21createNSURLConnectionEP11objc_objectbb
__ZNK7CyberCore10Credential7isEmptyEv
__ZN7CyberCore14ResourceHandle12firstRequestEv
__ZN7CyberCore15ResourceRequest24doUpdatePlatformHTTPBodyEv
__ZN3WTF9HashTableINS_6StringENS_12KeyValuePairIS1_N7CyberCore20CachedResourceHandleINS3_14CachedResourceEEEEENS_24KeyValuePairKeyExtractorIS7_EENS_10StringHashENS_18HashMapValueTraitsINS_10HashTraitsIS1_EENSC_IS6_EEEESD_E16lookupForWritingINS_22IdentityHashTranslatorISA_EES1_EENSt3__14pairIPS7_bEERKT0_
__ZN3WTF9HashTableINS_6StringENS_12KeyValuePairIS1_N7CyberCore20CachedResourceHandleINS3_14CachedResourceEEEEENS_24KeyValuePairKeyExtractorIS7_EENS_10StringHashENS_18HashMapValueTraitsINS_10HashTraitsIS1_EENSC_IS6_EEEESD_E3addINS_17HashMapTranslatorISF_SA_EES1_S6_EENS_18HashTableAddResultINS_17HashTableIteratorIS1_S7_S9_SA_SF_SD_EEEERKT0_RKT1_
__ZN3WTF9HashTableINS_6StringENS_12KeyValuePairIS1_N7CyberCore20CachedResourceHandleINS3_14CachedResourceEEEEENS_24KeyValuePairKeyExtractorIS7_EENS_10StringHashENS_18HashMapValueTraitsINS_10HashTraitsIS1_EENSC_IS6_EEEESD_E6lookupINS_22IdentityHashTranslatorISA_EES1_EEPS7_RKT0_
__ZN3WTF9HashTableINS_6StringENS_12KeyValuePairIS1_N7CyberCore20CachedResourceHandleINS3_14CachedResourceEEEEENS_24KeyValuePairKeyExtractorIS7_EENS_10StringHashENS_18HashMapValueTraitsINS_10HashTraitsIS1_EENSC_IS6_EEEESD_E6rehashEi
__ZN3WTF9HashTableINS_6StringENS_12KeyValuePairIS1_N7CyberCore20CachedResourceHandleINS3_14CachedResourceEEEEENS_24KeyValuePairKeyExtractorIS7_EENS_10StringHashENS_18HashMapValueTraitsINS_10HashTraitsIS1_EENSC_IS6_EEEESD_E6removeEPS7_
__ZN7CyberCore24CachedResourceHandleBaseC2ERKS0_
__ZN7CyberCore14CachedResource9addClientEPNS_20CachedResourceClientE
__ZN7CyberCore14CachedResource14addClientToSetEPNS_20CachedResourceClientE
__ZN7CyberCore11MemoryCache22addToLiveResourcesSizeEPNS_14CachedResourceE
__ZN7CyberCore17CachedRawResource12didAddClientEPNS_20CachedResourceClientE
__ZN3WTF9HashTableIPN7CyberCore20CachedResourceClientENS_12KeyValuePairIS3_jEENS_24KeyValuePairKeyExtractorIS5_EENS_7PtrHashIS3_EENS_18HashMapValueTraitsINS_10HashTraitsIS3_EENSB_IjEEEESC_E16lookupForWritingINS_22IdentityHashTranslatorIS9_EES3_EENSt3__14pairIPS5_bEERKT0_
__ZN3WTF9HashTableIPN7CyberCore20CachedResourceClientENS_12KeyValuePairIS3_jEENS_24KeyValuePairKeyExtractorIS5_EENS_7PtrHashIS3_EENS_18HashMapValueTraitsINS_10HashTraitsIS3_EENSB_IjEEEESC_E3addINS_17HashMapTranslatorISE_S9_EES3_jEENS_18HashTableAddResultINS_17HashTableIteratorIS3_S5_S7_S9_SE_SC_EEEERKT0_RKT1_
__ZN3WTF9HashTableIPN7CyberCore20CachedResourceClientENS_12KeyValuePairIS3_jEENS_24KeyValuePairKeyExtractorIS5_EENS_7PtrHashIS3_EENS_18HashMapValueTraitsINS_10HashTraitsIS3_EENSB_IjEEEESC_E6lookupINS_22IdentityHashTranslatorIS9_EES3_EEPS5_RKT0_
__ZN3WTF9HashTableIPN7CyberCore20CachedResourceClientENS_12KeyValuePairIS3_jEENS_24KeyValuePairKeyExtractorIS5_EENS_7PtrHashIS3_EENS_18HashMapValueTraitsINS_10HashTraitsIS3_EENSB_IjEEEESC_E6shrinkEv
__ZN7CyberCore14CachedResource12didAddClientEPNS_20CachedResourceClientE
__ZN7CyberCore31equalIgnoringFragmentIdentifierERKNS_4KURLES2_
__ZN7CyberCore19ResourceRequestBase6setURLERKNS_4KURLE
__ZN7CyberCore21CachedResourceRequestD1Ev
__ZN7CyberCore21CachedResourceRequestD2Ev
__ZN7CyberCore16FrameLoadRequestD2Ev
__ZN7CyberCore4Page12setThrottledEb
__ZN7CyberCore13PageThrottler12setThrottledEb
-[CyberCoreResourceHandleAsDelegate connection:willSendRequest:redirectResponse:]
__ZN7CyberCore37synthesizeRedirectResponseIfNecessaryEP15NSURLConnectionP12NSURLRequestP13NSURLResponse
__ZN7CyberCore5TimerINS_8SettingsEE5firedEv
__ZN7CyberCore8Settings30imageLoadingSettingsTimerFiredEPNS_5TimerIS0_EE
-[CyberCoreResourceHandleAsDelegate connectionShouldUseCredentialStorage:]
__ZN7CyberCore14ResourceHandle26shouldUseCredentialStorageEv
__ZN7CyberCore5TimerINS_15ProgressTrackerEE5firedEv
__ZN7CyberCore15ProgressTracker27progressHeartbeatTimerFiredEPNS_5TimerIS0_EE
-[CyberCoreResourceHandleAsDelegate connection:canAuthenticateAgainstProtectionSpace:]
__ZN7CyberCore4coreEP20NSURLProtectionSpace
__ZN7CyberCore15ProtectionSpaceC1ERKN3WTF6StringEiNS_25ProtectionSpaceServerTypeES4_NS_35ProtectionSpaceAuthenticationSchemeE
__ZN7CyberCore14ResourceHandle37canAuthenticateAgainstProtectionSpaceERKNS_15ProtectionSpaceE
__ZN7CyberCore14ResourceLoader37canAuthenticateAgainstProtectionSpaceEPNS_14ResourceHandleERKNS_15ProtectionSpaceE
__ZN7CyberCore14ResourceLoader37canAuthenticateAgainstProtectionSpaceERKNS_15ProtectionSpaceE
__ZNK7CyberCore15ProtectionSpace4hostEv
__ZNK7CyberCore15ProtectionSpace4portEv
__ZNK7CyberCore15ProtectionSpace5realmEv
__ZNK7CyberCore15ProtectionSpace20authenticationSchemeEv
__ZNK7CyberCore15ProtectionSpace10serverTypeEv
__ZN7CyberCore19ResourceRequestBaseC2Ev
__ZN7CyberCore14ResourceHandle15willSendRequestERNS_15ResourceRequestERKNS_16ResourceResponseE
__ZN7CyberCore27protocolHostAndPortAreEqualERKNS_4KURLES2_
__ZN7CyberCore17CredentialStorage3getERKNS_4KURLE
__ZN7CyberCoreL32findDefaultProtectionSpaceForURLERKNS_4KURLE
__ZN7CyberCoreL19originStringFromURLERKNS_4KURLE
__ZN3WTFplINS_12StringAppendINS_6StringEPKcEES2_cEENS1_INS1_IT_T0_EET1_EERKS8_S9_
__ZNK3WTF12StringAppendINS0_INS0_INS_6StringEPKcEES1_EEcEcvS1_Ev
__ZN3WTF13tryMakeStringINS_12StringAppendINS1_INS_6StringEPKcEES2_EEcEENS_10PassRefPtrINS_10StringImplEEET_T0_
__ZN7CyberCore14ResourceLoader15willSendRequestEPNS_14ResourceHandleERNS_15ResourceRequestERKNS_16ResourceResponseE
__ZN7CyberCore20ApplicationCacheHost28maybeLoadFallbackForRedirectEPNS_14ResourceLoaderERNS_15ResourceRequestERKNS_16ResourceResponseE
__ZN7CyberCore17CachedRawResource15willSendRequestERNS_15ResourceRequestERKNS_16ResourceResponseE
__ZN7CyberCore26CachedResourceClientWalkerINS_23CachedRawResourceClientEEC2ERKN3WTF14HashCountedSetIPNS_20CachedResourceClientENS3_7PtrHashIS6_EENS3_10HashTraitsIS6_EEEE
__ZN7CyberCore14DocumentLoader16redirectReceivedEPNS_14CachedResourceERNS_15ResourceRequestERKNS_16ResourceResponseE
__ZNK7CyberCore14SecurityOrigin10canDisplayERKNS_4KURLE
__ZN7CyberCore14SchemeRegistry26canDisplayOnlyIfCanRequestERKN3WTF6StringE
__ZN7CyberCoreL33canDisplayOnlyIfCanRequestSchemesEv
__ZN7CyberCore14SchemeRegistry37shouldTreatURLSchemeAsDisplayIsolatedERKN3WTF6StringE
__ZN7CyberCore14SecurityPolicy21restrictAccessToLocalEv
__ZN7CyberCore18DocumentLoadTiming11addRedirectERKNS_4KURLES3_
__ZN7CyberCore20ApplicationCacheHost32maybeLoadMainResourceForRedirectERNS_15ResourceRequestERNS_14SubstituteDataE
__ZN7CyberCore13PolicyChecker21checkNavigationPolicyERKNS_15ResourceRequestEPFvPvS3_N3WTF10PassRefPtrINS_9FormStateEEEbES4_
__ZN7CyberCore14DocumentLoader33callContinueAfterNavigationPolicyEPvRKNS_15ResourceRequestEN3WTF10PassRefPtrINS_9FormStateEEEb
__ZN7CyberCore14DocumentLoader29continueAfterNavigationPolicyERKNS_15ResourceRequestEb
__ZN7CyberCore17CachedRawResource12RedirectPairC2ERKNS_15ResourceRequestERKNS_16ResourceResponseE
__ZN7CyberCore20ResourceResponseBaseC2ERKS0_
__ZN3WTF6VectorIN7CyberCore17CachedRawResource12RedirectPairELm0ENS_15CrashOnOverflowEE14appendSlowCaseIS3_EEvRKT_
__ZN3WTF6VectorIN7CyberCore17CachedRawResource12RedirectPairELm0ENS_15CrashOnOverflowEE14expandCapacityEmPKS3_
__ZN3WTF6VectorIN7CyberCore17CachedRawResource12RedirectPairELm0ENS_15CrashOnOverflowEE15reserveCapacityEm
__ZN7CyberCore15ResourceRequest24doUpdateResourceHTTPBodyEv
__ZN7CyberCore21ResourceLoadScheduler27crossOriginRedirectReceivedEPNS_14ResourceLoaderERKNS_4KURLE
__ZN7CyberCore15ResourceRequest17setStorageSessionEPK21__CFURLStorageSession
-[CyberCoreResourceHandleAsDelegate connection:didReceiveResponse:]
__ZN7CyberCore25adjustMIMETypeIfNecessaryEP14_CFURLResponse
__ZN7CyberCore14ResourceLoader18didReceiveResponseEPNS_14ResourceHandleERKNS_16ResourceResponseE
__ZN7CyberCore20ApplicationCacheHost28maybeLoadFallbackForResponseEPNS_14ResourceLoaderERKNS_16ResourceResponseE
__ZN7CyberCore17SubresourceLoader18didReceiveResponseERKNS_16ResourceResponseE
__ZN7CyberCore17CachedRawResource16responseReceivedERKNS_16ResourceResponseE
__ZN7CyberCore14CachedResource16responseReceivedERKNS_16ResourceResponseE
__ZN7CyberCore14CachedResource11setResponseERKNS_16ResourceResponseE
__ZNK7CyberCore20ResourceResponseBase16textEncodingNameEv
__ZN7CyberCore14CachedResource11setEncodingERKN3WTF6StringE
__ZN7CyberCore14DocumentLoader16responseReceivedEPNS_14CachedResourceERKNS_16ResourceResponseE
__ZN7CyberCore20ApplicationCacheHost32maybeLoadFallbackForMainResponseERKNS_15ResourceRequestERKNS_16ResourceResponseE
__ZNK7CyberCore20ResourceResponseBase16httpHeaderFieldsEv
__ZN7CyberCore37extractReasonPhraseFromHTTPStatusLineERKN3WTF6StringE
__ZN7CyberCore11FrameLoader35shouldInterruptLoadForXFrameOptionsERKN3WTF6StringERKNS_4KURLEm
__ZN7CyberCore15FeatureObserver7observeEPNS_8DocumentENS0_7FeatureE
__ZN7CyberCore15FeatureObserver10didObserveENS0_7FeatureE
__ZN7CyberCore13ContentFilter9isEnabledEv
__ZN7CyberCore18RenderLayerBacking19notifyFlushRequiredEPKNS_13GraphicsLayerE
__ZNK7CyberCore11RenderLayer10compositorEv
__ZN7CyberCore21RenderLayerCompositor18scheduleLayerFlushEb
__ZNK7CyberCore21RenderLayerCompositor22keepLayersPixelAlignedEv
__ZN7CyberCore15GraphicsLayerCA26setMaintainsPixelAlignmentEb
__ZN7CyberCore15GraphicsLayerCA21setAcceleratesDrawingEb
__ZN7CyberCore15GraphicsLayerCA17setContentsOpaqueEb
__ZN7CyberCore13GraphicsLayer19setAppliesPageScaleEb
__ZN7CyberCore15GraphicsLayerCA10setOpacityEf
__ZN7CyberCore18RenderLayerBacking15updateTransformEPKNS_11RenderStyleE
__ZN7CyberCore15GraphicsLayerCA12setTransformERKNS_20TransformationMatrixE
__ZNK7CyberCore20TransformationMatrixeqERKS0_
__ZN7CyberCore18RenderLayerBacking13updateFiltersEPKNS_11RenderStyleE
__ZN7CyberCore16FilterOperationsaSERKS0_
__ZN3WTF6VectorINS_6RefPtrIN7CyberCore15FilterOperationEEELm0ENS_15CrashOnOverflowEEaSERKS6_
__ZN7CyberCore15GraphicsLayerCA10setFiltersERKNS_16FilterOperationsE
__ZN7CyberCore15PlatformCALayer22filtersCanBeCompositedERKNS_16FilterOperationsE
__ZNK7CyberCore16FilterOperationseqERKS0_
__ZNK7CyberCore15GraphicsLayerCA12tiledBackingEv
__ZN7CyberCore15PlatformCALayer12tiledBackingEv
-[WebTiledBackingLayer tiledBacking]
__ZN7CyberCore14TileController13setIsInWindowEb
__ZN7CyberCore14TileController15revalidateTilesEjj
__ZN7CyberCore15PlatformCALayer15platformCALayerEPv
__ZN7CyberCore14TileController26setUnparentsOffscreenTilesEb
__ZN7CyberCore14TileController37setScrollingPerformanceLoggingEnabledEb
__ZN7CyberCore18RenderLayerBacking26adjustTiledBackingCoverageEv
__ZNK7CyberCore20ScrollingCoordinator26mainThreadScrollingReasonsEv
__ZNK7CyberCore23ScrollingCoordinatorMac27supportsFixedPositionLayersEv
__ZNK7CyberCore23ScrollingCoordinatorMac47hasVisibleSlowRepaintViewportConstrainedObjectsEPNS_9FrameViewE
__ZN7CyberCore14TileController15setTileCoverageEj
__ZN7CyberCore18RenderLayerBacking38attachToScrollingCoordinatorWithParentEPS0_
__ZN7CyberCore20ScrollingCoordinator19uniqueScrollLayerIDEv
__ZN7CyberCore23ScrollingCoordinatorMac17attachToStateTreeENS_17ScrollingNodeTypeEyy
__ZN7CyberCore18ScrollingStateTree10attachNodeENS_17ScrollingNodeTypeEyy
__ZN7CyberCore18ScrollingStateTree10removeNodeEPNS_18ScrollingStateNodeE
__ZN7CyberCore27ScrollingStateScrollingNode6createEPNS_18ScrollingStateTreeEy
__ZN7CyberCore18ScrollingStateNodeC2EPNS_18ScrollingStateTreeEy
__ZN7CyberCore23ScrollingCoordinatorMac27frameViewRootLayerDidChangeEPNS_9FrameViewE
__ZNK7CyberCore9FrameView13scrollLayerIDEv
__ZN3WTF9HashTableIyNS_12KeyValuePairIyPN7CyberCore18ScrollingStateNodeEEENS_24KeyValuePairKeyExtractorIS5_EENS_7IntHashIyEENS_18HashMapValueTraitsINS_10HashTraitsIyEENSB_IS4_EEEESC_E16lookupForWritingINS_22IdentityHashTranslatorIS9_EEyEENSt3__14pairIPS5_bEERKT0_
__ZN3WTF9HashTableIyNS_12KeyValuePairIyPN7CyberCore18ScrollingStateNodeEEENS_24KeyValuePairKeyExtractorIS5_EENS_7IntHashIyEENS_18HashMapValueTraitsINS_10HashTraitsIyEENSB_IS4_EEEESC_E3addINS_17HashMapTranslatorISE_S9_EEyS4_EENS_18HashTableAddResultINS_17HashTableIteratorIyS5_S7_S9_SE_SC_EEEERKT0_RKT1_
__ZN3WTF9HashTableIyNS_12KeyValuePairIyPN7CyberCore18ScrollingStateNodeEEENS_24KeyValuePairKeyExtractorIS5_EENS_7IntHashIyEENS_18HashMapValueTraitsINS_10HashTraitsIyEENSB_IS4_EEEESC_E6lookupINS_22IdentityHashTranslatorIS9_EEyEEPS5_RKT0_
__ZN3WTF9HashTableIyNS_12KeyValuePairIyPN7CyberCore18ScrollingStateNodeEEENS_24KeyValuePairKeyExtractorIS5_EENS_7IntHashIyEENS_18HashMapValueTraitsINS_10HashTraitsIyEENSB_IS4_EEEESC_E6shrinkEv
__ZN7CyberCore20ScrollingCoordinator27frameViewRootLayerDidChangeEPNS_9FrameViewE
__ZN7CyberCore23ScrollingCoordinatorMac22frameViewLayoutUpdatedEPNS_9FrameViewE
__ZNK7CyberCore20ScrollingCoordinator30computeNonFastScrollableRegionEPKNS_5FrameERKNS_8IntPointE
__ZN7CyberCore27ScrollingStateScrollingNode26setNonFastScrollableRegionERKNS_6RegionE
__ZN7CyberCore18ScrollingStateTree14stateNodeForIDEy
__ZN7CyberCore23ScrollingCoordinatorMac26setScrollParametersForNodeERKNS0_16ScrollParametersEPNS_27ScrollingStateScrollingNodeE
__ZN7CyberCore27ScrollingStateScrollingNode29setHorizontalScrollElasticityENS_16ScrollElasticityE
__ZN7CyberCore27ScrollingStateScrollingNode27setVerticalScrollElasticityENS_16ScrollElasticityE
__ZN7CyberCore27ScrollingStateScrollingNode32setHasEnabledHorizontalScrollbarEb
__ZN7CyberCore27ScrollingStateScrollingNode30setHasEnabledVerticalScrollbarEb
__ZN7CyberCore27ScrollingStateScrollingNode26setHorizontalScrollbarModeENS_13ScrollbarModeE
__ZN7CyberCore27ScrollingStateScrollingNode24setVerticalScrollbarModeENS_13ScrollbarModeE
__ZN7CyberCore27ScrollingStateScrollingNode15setScrollOriginERKNS_8IntPointE
__ZN7CyberCore27ScrollingStateScrollingNode15setViewportRectERKNS_7IntRectE
__ZN7CyberCore27ScrollingStateScrollingNode20setTotalContentsSizeERKNS_7IntSizeE
__ZN7CyberCore27ScrollingStateScrollingNode19setFrameScaleFactorEf
__ZN7CyberCore27ScrollingStateScrollingNode15setHeaderHeightEi
__ZN7CyberCore27ScrollingStateScrollingNode15setFooterHeightEi
__ZN7CyberCore23ScrollingCoordinatorMac43recomputeWheelEventHandlerCountForFrameViewEPNS_9FrameViewE
__ZN7CyberCore20ScrollingCoordinator36computeCurrentWheelEventHandlerCountEv
__ZN7CyberCore27ScrollingStateScrollingNode25setWheelEventHandlerCountEj
__ZN7CyberCore23ScrollingCoordinatorMac46setShouldUpdateScrollLayerPositionOnMainThreadEj
__ZN7CyberCore27ScrollingStateScrollingNode46setShouldUpdateScrollLayerPositionOnMainThreadEj
__ZN7CyberCore20ScrollingCoordinator23scrollLayerForFrameViewEPNS_9FrameViewE
__ZNK7CyberCore21RenderLayerCompositor11scrollLayerEv
__ZN7CyberCore18ScrollingStateNode14setScrollLayerEPNS_13GraphicsLayerE
__ZN7CyberCore20ScrollingCoordinator33counterScrollingLayerForFrameViewEPNS_9FrameViewE
__ZNK7CyberCore21RenderLayerCompositor24fixedRootBackgroundLayerEv
__ZN7CyberCore27ScrollingStateScrollingNode24setCounterScrollingLayerEPNS_13GraphicsLayerE
__ZN7CyberCore20ScrollingCoordinator23headerLayerForFrameViewEPNS_9FrameViewE
__ZNK7CyberCore21RenderLayerCompositor11headerLayerEv
__ZN7CyberCore27ScrollingStateScrollingNode14setHeaderLayerEPNS_13GraphicsLayerE
__ZN7CyberCore20ScrollingCoordinator23footerLayerForFrameViewEPNS_9FrameViewE
__ZNK7CyberCore21RenderLayerCompositor11footerLayerEv
__ZN7CyberCore27ScrollingStateScrollingNode14setFooterLayerEPNS_13GraphicsLayerE
__ZN7CyberCore21RenderLayerCompositor20updateLayerForHeaderEb
__ZN7CyberCore21RenderLayerCompositor20updateLayerForFooterEb
__ZN7CyberCore18RenderLayerBacking21updateDebugIndicatorsEbb
__ZN7CyberCore15GraphicsLayerCA18setShowDebugBorderEb
__ZN7CyberCore15GraphicsLayerCA21setShowRepaintCounterEb
__ZN7CyberCore21RenderLayerCompositor27rebuildCompositingLayerTreeEPNS_11RenderLayerERN3WTF6VectorIPNS_13GraphicsLayerELm0ENS3_15CrashOnOverflowEEEi
__ZN7CyberCore18RenderLayerBacking22updateCompositedBoundsEv
__ZNK7CyberCore21RenderLayerCompositor25calculateCompositedBoundsEPKNS_11RenderLayerES3_
__ZNK7CyberCore11RenderLayer20calculateLayerBoundsEPKS0_PKNS_11LayoutPointEj
__ZN7CyberCore18RenderLayerBacking32updateGraphicsLayerConfigurationEv
__ZNK7CyberCore21RenderLayerCompositor29needsFixedRootBackgroundLayerEPKNS_11RenderLayerE
__ZNK7CyberCore10RenderView29rootBackgroundIsEntirelyFixedEv
__ZN7CyberCore18RenderLayerBacking21updateBackgroundLayerEb
__ZNK7CyberCore21RenderLayerCompositor29needsContentsCompositingLayerEPKNS_11RenderLayerE
__ZN7CyberCore18RenderLayerBacking21updateForegroundLayerEb
__ZNK7CyberCore21RenderLayerCompositor27clipsCompositingDescendantsEPKNS_11RenderLayerE
__ZNK7CyberCore21RenderLayerCompositor17clippedByAncestorEPNS_11RenderLayerE
__ZN7CyberCore18RenderLayerBacking20updateClippingLayersEbb
__ZN7CyberCore18RenderLayerBacking28updateOverflowControlsLayersEbbb
__ZN7CyberCore18RenderLayerBacking21updateScrollingLayersEb
__ZN7CyberCore18RenderLayerBacking15updateMaskLayerEb
__ZN7CyberCore15GraphicsLayerCA20setReplicatedByLayerEPNS_13GraphicsLayerE
__ZNK7CyberCore18RenderLayerBacking33isSimpleContainerCompositingLayerEv
__ZNK7CyberCore11RenderLayer24hasVisibleBoxDecorationsEv
__ZNK7CyberCore11RenderLayer29hasBoxDecorationsOrBackgroundEv
__ZNK7CyberCore10BorderData15hasBorderRadiusEv
__ZNK7CyberCore11RenderLayer25hasNonEmptyChildRenderersEv
__ZN7CyberCoreL34hasVisibleNonCompositingDescendantEPNS_11RenderLayerE
__ZNK7CyberCore12RenderObject14isRenderRegionEv
__ZN7CyberCore18RenderLayerBacking39updateDirectlyCompositedBackgroundColorEbRb
__ZN7CyberCore15GraphicsLayerCA23setContentsToSolidColorERKNS_5ColorE
__ZN7CyberCore18RenderLayerBacking28updateRootLayerConfigurationEv
__ZNK7CyberCore21RenderLayerCompositor28viewHasTransparentBackgroundEPNS_5ColorE
__ZN7CyberCore15GraphicsLayerCA18setBackgroundColorERKNS_5ColorE
__ZN7CyberCore13GraphicsLayer18setBackgroundColorERKNS_5ColorE
__ZNK7CyberCore18RenderLayerBacking25isDirectlyCompositedImageEv
__ZNK7CyberCore12RenderObject7isImageEv
__ZN7CyberCore18RenderLayerBacking27updateGraphicsLayerGeometryEv
__ZNK7CyberCore19AnimationController39isRunningAcceleratedAnimationOnRendererEPNS_12RenderObjectENS_13CSSPropertyIDEb
__ZN7CyberCore15GraphicsLayerCA18setContentsVisibleEb
__ZN7CyberCore15GraphicsLayerCA14setPreserves3DEb
__ZN7CyberCore15GraphicsLayerCA21setBackfaceVisibilityEb
__ZNK7CyberCore11RenderLayer25enclosingCompositingLayerENS_16IncludeSelfOrNotE
__ZNK7CyberCore11RenderLayer32convertToPixelSnappedLayerCoordsEPKS0_RNS_8IntPointE
__ZN7CyberCore13GraphicsLayer21setOffsetFromRendererERKNS_7IntSizeENS0_21ShouldSetNeedsDisplayE
__ZN7CyberCore15GraphicsLayerCA14setAnchorPointERKNS_12FloatPoint3DE
__ZNK7CyberCore21RenderLayerCompositor23requiresOwnBackingStoreEPKNS_11RenderLayerES3_RKNS_7IntRectES6_
__ZN7CyberCore18RenderLayerBacking26setRequiresOwnBackingStoreEb
__ZNK7CyberCore18RenderLayerBacking11contentsBoxEv
__ZNK7CyberCore20RenderBoxModelObject10paddingTopEv
__ZNK7CyberCore20RenderBoxModelObject13paddingBottomEv
__ZN7CyberCore15GraphicsLayerCA15setContentsRectERKNS_7IntRectE
__ZN7CyberCore13GraphicsLayer19setContentsTileSizeERKNS_7IntSizeE
__ZN7CyberCore13GraphicsLayer20setContentsTilePhaseERKNS_9FloatSizeE
__ZN7CyberCore18RenderLayerBacking18updateDrawsContentEb
__ZNK7CyberCore18RenderLayerBacking22containsPaintedContentEv
__ZN7CyberCore18RenderLayerBacking23registerScrollingLayersEv
__ZN7CyberCore21RenderLayerCompositor30updateViewportConstraintStatusEPNS_11RenderLayerE
__ZN7CyberCoreL39isViewportConstrainedFixedOrStickyLayerEPKNS_11RenderLayerE
__ZN7CyberCore20ScrollingCoordinator29updateLayerPositionConstraintEPNS_11RenderLayerE
__ZN7CyberCore21RenderLayerCompositor23updateRootLayerPositionEv
__ZN7CyberCore21RenderLayerCompositor29updateLayerForTopOverhangAreaEb
__ZN7CyberCore21RenderLayerCompositor32updateLayerForBottomOverhangAreaEb
__ZNK7CyberCore18RenderLayerBacking37hasUnpositionedOverflowControlsLayersEv
__ZNK7CyberCore18RenderLayerBacking18parentForSublayersEv
__ZN7CyberCore15GraphicsLayerCA11setChildrenERKN3WTF6VectorIPNS_13GraphicsLayerELm0ENS1_15CrashOnOverflowEEE
__ZN7CyberCore13GraphicsLayer11setChildrenERKN3WTF6VectorIPS0_Lm0ENS1_15CrashOnOverflowEEE
__ZNK7CyberCore18RenderLayerBacking19childForSuperlayersEv
__ZN7CyberCore24InspectorInstrumentation22layerTreeDidChangeImplEPNS_19InstrumentingAgentsE
__ZNK7CyberCore14SecurityOrigin16canAccessStorageEPKS0_NS0_25ShouldAllowFromThirdPartyE
__ZNK7CyberCore18RenderLayerBacking16paintsIntoWindowEv
__ZN7CyberCore11RenderLayer28setBackingNeedsRepaintInRectERKNS_10LayoutRectE
__ZN7CyberCore18RenderLayerBacking28setContentsNeedDisplayInRectERKNS_7IntRectE
__ZN7CyberCore15GraphicsLayerCA21setNeedsDisplayInRectERKNS_9FloatRectE
__ZN7CyberCore9FloatRect9intersectERKS0_
__ZN7CyberCore18RenderLayerBacking17updateAfterLayoutEj
__ZN7CyberCore18RenderLayerBacking22setContentsNeedDisplayEv
__ZN7CyberCore15GraphicsLayerCA15setNeedsDisplayEv
__ZN7CyberCore11RenderLayer13collectLayersEbNS0_21CollectLayersBehaviorERN3WTF6OwnPtrINS2_6VectorIPS0_Lm0ENS2_15CrashOnOverflowEEEEES9_
__ZN3WTF6VectorIPN7CyberCore11RenderLayerELm0ENS_15CrashOnOverflowEE14expandCapacityEmPKS3_
__ZN3WTF6VectorIPN7CyberCore11RenderLayerELm0ENS_15CrashOnOverflowEE15reserveCapacityEm
__ZNSt3__113__stable_sortIRPFbPN7CyberCore11RenderLayerES3_EPS3_EEvT0_S8_T_NS_15iterator_traitsIS8_E15difference_typeEPNSB_10value_typeEl
__ZN7CyberCore12RenderObject25rendererForRootBackgroundEv
__ZNK7CyberCore12RenderObject26hasEntirelyFixedBackgroundEv
__ZNK7CyberCore11RenderStyle26hasEntirelyFixedBackgroundEv
__ZNK7CyberCore6Widget16isPluginViewBaseEv
__ZNK7CyberCore9Scrollbar7enabledEv
__ZN7CyberCore21RenderLayerCompositor18frameViewDidLayoutEv
__ZNK7CyberCore18RenderLayerBacking12tiledBackingEv
__ZN7CyberCore21RenderLayerCompositor15detachRootLayerEv
__ZN7CyberCore14TileController27setAggressivelyRetainsTilesEb
__ZN7CyberCore14TileController14setExposedRectERKNS_9FloatRectE
__ZN7CyberCore14TileController21setClipsToExposedRectEb
__ZN7CyberCore18RenderLayerBacking18updateDrawsContentEv
__ZN7CyberCore23ScrollingCoordinatorMac24setScrollPinningBehaviorENS_21ScrollPinningBehaviorE
__ZN7CyberCore13ScrollingTree24setScrollPinningBehaviorENS_21ScrollPinningBehaviorE
__ZN7CyberCore23ScrollingCoordinatorMac37scrollableAreaScrollbarLayerDidChangeEPNS_14ScrollableAreaENS_20ScrollbarOrientationE
__ZNK7CyberCore15GraphicsLayerCA16hasContentsLayerEv
__ZN7CyberCore15GraphicsLayerCA23setContentsNeedsDisplayEv
__ZN7CyberCore10RenderView35pushLayoutStateForCurrentFlowThreadEPKNS_12RenderObjectE
__ZN7CyberCore11LayoutStatenwEmPNS_11RenderArenaE
__ZN7CyberCore11LayoutStateC1EPS0_PNS_9RenderBoxERKNS_10LayoutSizeENS_10LayoutUnitEbPNS_10ColumnInfoE
__ZN7CyberCore11LayoutStateC2EPS0_PNS_9RenderBoxERKNS_10LayoutSizeENS_10LayoutUnitEbPNS_10ColumnInfoE
__ZNK7CyberCore9RenderBox27isUnsplittableForPaginationEv
__ZNK7CyberCore9RenderBox32hasUnsplittableScrollingOverflowEv
__ZN7CyberCore11RenderBlock33markForPaginationRelayoutIfNeededEv
__ZN7CyberCore11LayoutState7destroyEPNS_11RenderArenaE
__ZN7CyberCore11RenderArena4freeEmPv
__ZN7CyberCore10RenderView34popLayoutStateForCurrentFlowThreadEv
__ZN7CyberCore21RenderLayerCompositor35updateCompositingDescendantGeometryEPNS_11RenderLayerES2_b
__ZN7CyberCore15GraphicsLayerCAD0Ev
__ZN7CyberCore15GraphicsLayerCAD2Ev
__ZN7CyberCore15GraphicsLayerCA15willBeDestroyedEv
__ZN7CyberCore15PlatformCALayer8setOwnerEPNS_21PlatformCALayerClientE
__ZN7CyberCore15GraphicsLayerCA17removeCloneLayersEv
__ZN7CyberCore13GraphicsLayer15willBeDestroyedEv
__ZN7CyberCore15PlatformCALayerD1Ev
__ZN7CyberCore15PlatformCALayerD2Ev
__ZN7CyberCore13GraphicsLayerD2Ev
__ZN7CyberCore13GraphicsLayer20resetTrackedRepaintsEv
__ZNK7CyberCore23ScrollingCoordinatorMac22isRubberBandInProgressEv
__ZN7CyberCore13ScrollingTree22isRubberBandInProgressEv
__ZN7CyberCore19LayerFlushScheduler23runLoopObserverCallbackEP19__CFRunLoopObservermPv
__ZN7CyberCore16enclosingIntRectERK6CGRect
__ZN7CyberCore9FrameView39flushCompositingStateIncludingSubframesEv
__ZN7CyberCore9FrameView33flushCompositingStateForThisFrameEPNS_5FrameE
__ZN7CyberCore21RenderLayerCompositor24flushPendingLayerChangesEb
__ZN7CyberCore9FrameView12setFrameRectERKNS_7IntRectE
__ZN7CyberCore10ScrollView12setFrameRectERKNS_7IntRectE
__ZN7CyberCore9DOMWindow14refEventTargetEv
__ZN7CyberCore8Document19dispatchWindowEventEN3WTF10PassRefPtrINS_5EventEEENS2_INS_11EventTargetEEE
__ZN7CyberCore9DOMWindow13dispatchEventEN3WTF10PassRefPtrINS_5EventEEENS2_INS_11EventTargetEEE
__ZN7CyberCore9DOMWindow16derefEventTargetEv
__ZN7CyberCore9FrameView14setNeedsLayoutEv
__ZNK7CyberCore12RenderObject12enclosingBoxEv
__ZN3WTF6VectorIN7CyberCore9FloatRectELm0ENS_15CrashOnOverflowEE14expandCapacityEmPKS2_
__ZN3WTF6VectorIN7CyberCore9FloatRectELm0ENS_15CrashOnOverflowEE15reserveCapacityEm
__ZN7CyberCore13GraphicsLayer14addRepaintRectERKNS_9FloatRectE
__ZNK7CyberCore18RenderLayerBacking18isTrackingRepaintsEv
__ZNK7CyberCore21RenderLayerCompositor18isTrackingRepaintsEv
__ZN7CyberCore4Page21windowScreenDidChangeEj
__ZN7CyberCore8Document21windowScreenDidChangeEj
__ZN7CyberCore21RenderLayerCompositor21windowScreenDidChangeEj
__ZN7CyberCore15FocusController28setContainingWindowIsVisibleEb
__ZN7CyberCore4Page15didMoveOnscreenEv
__ZN7CyberCore9FrameView15didMoveOnscreenEv
__ZNK7CyberCore14ScrollableArea18contentAreaDidShowEv
__ZNK7CyberCore17ScrollAnimatorMac18contentAreaDidShowEv
-[WebScrollbarPainterControllerDelegate scrollerImpPair:setContentAreaNeedsDisplayInRect:]
__ZNK7CyberCore14ScrollableArea14scrollAnimatorEv
__ZNK7CyberCore17ScrollAnimatorMac20contentAreaWillPaintEv
__ZN7CyberCore8Document42resumeScriptedAnimationControllerCallbacksEv
__ZN7CyberCore15GraphicsLayerCA21flushCompositingStateERKNS_9FloatRectE
__ZN7CyberCore15GraphicsLayerCA22recursiveCommitChangesERKNS0_11CommitStateERKNS_14TransformStateEfRKNS_10FloatPointEb
__ZN7CyberCore14TransformStateaSERKS0_
__ZNK7CyberCore15GraphicsLayerCA18computeVisibleRectERNS_14TransformStateEj
__ZNK7CyberCore21RenderLayerCompositor39customPositionForVisibleRectComputationEPKNS_13GraphicsLayerERNS_10FloatPointE
__ZN7CyberCore20TransformationMatrix9translateEdd
__ZNK7CyberCore19GraphicsLayerClient19getCurrentTransformEPKNS_13GraphicsLayerERNS_20TransformationMatrixE
__ZN7CyberCore14TransformState14applyTransformERKNS_20TransformationMatrixENS0_21TransformAccumulationEPb
__ZNK7CyberCore20TransformationMatrix20isIntegerTranslationEv
__ZN7CyberCore14TransformState4moveERKNS_10LayoutSizeENS0_21TransformAccumulationE
__ZNK7CyberCore14TransformState10mappedQuadEPb
__ZNK7CyberCore13GraphicsLayer16appliesPageScaleEv
__ZN7CyberCore15GraphicsLayerCA33commitLayerChangesBeforeSublayersERNS0_11CommitStateEfRKNS_10FloatPointERKNS_9FloatRectE
__ZNK7CyberCore21RenderLayerCompositor17deviceScaleFactorEv
__ZN7CyberCore15PlatformCALayer16setContentsScaleEf
__ZN7CyberCore15GraphicsLayerCA18updateSublayerListEb
__ZN3WTF6VectorINS_6RefPtrIN7CyberCore15PlatformCALayerEEELm0ENS_15CrashOnOverflowEE15reserveCapacityEm
__ZN7CyberCore15PlatformCALayer12setSublayersERKN3WTF6VectorINS1_6RefPtrIS0_EELm0ENS1_15CrashOnOverflowEEE
__ZNK7CyberCore20TransformationMatrix10isIdentityEv
__ZN7CyberCore15GraphicsLayerCA14updateGeometryEfRKNS_10FloatPointE
__ZNK7CyberCore15GraphicsLayerCA21computePixelAlignmentEfRKNS_10FloatPointERS1_RNS_9FloatSizeERNS_12FloatPoint3DES6_
__ZN7CyberCore15PlatformCALayer11setPositionERKNS_12FloatPoint3DE
__ZN7CyberCore15PlatformCALayer9setBoundsERKNS_9FloatRectE
__ZN7CyberCore15PlatformCALayer14setAnchorPointERKNS_12FloatPoint3DE
__ZNK7CyberCore21RenderLayerCompositor24didCommitChangesForLayerEPKNS_13GraphicsLayerE
__ZN7CyberCore15GraphicsLayerCA19updateMasksToBoundsEv
__ZN7CyberCore15PlatformCALayer16setMasksToBoundsEb
__ZN7CyberCore15PlatformCALayer14setBorderWidthEf
__ZN7CyberCore14ScrollableArea34constrainScrollPositionForOverhangERKNS_8IntPointE
__ZThn64_NK7CyberCore10ScrollView18visibleContentRectENS_14ScrollableArea36VisibleContentRectIncludesScrollbarsE
__ZNK7CyberCore19GraphicsLayerClient39customPositionForVisibleRectComputationEPKNS_13GraphicsLayerERNS_10FloatPointE
__ZNK7CyberCore18RenderLayerBacking19getCurrentTransformEPKNS_13GraphicsLayerERNS_20TransformationMatrixE
__ZNK7CyberCore18RenderLayerBacking15pageScaleFactorEv
__ZNK7CyberCore21RenderLayerCompositor15pageScaleFactorEv
-[WebTiledBackingLayer setBounds:]
__ZN7CyberCore14TileController27tileCacheLayerBoundsChangedEv
__ZN7CyberCore15GraphicsLayerCA23updateLayerDrawsContentEv
__ZN7CyberCore15PlatformCALayer15setNeedsDisplayEPKNS_9FloatRectE
-[WebTiledBackingLayer setNeedsDisplay]
__ZN7CyberCore14TileController15setNeedsDisplayEv
__ZN7CyberCore15PlatformCALayer18setBackgroundColorERKNS_5ColorE
__ZN7CyberCore15GraphicsLayerCA20updateContentsOpaqueEv
__ZN7CyberCore15PlatformCALayer9setOpaqueEb
-[WebTiledBackingLayer setOpaque:]
__ZN7CyberCore14TileController14setTilesOpaqueEb
__ZNK7CyberCore18RenderLayerBacking17deviceScaleFactorEv
-[WebTiledBackingLayer setContentsScale:]
__ZN7CyberCore14TileController8setScaleEd
__ZThn480_N7CyberCore15GraphicsLayerCA32platformCALayerDeviceScaleFactorEv
__ZThn480_N7CyberCore15GraphicsLayerCA29platformCALayerDidCreateTilesERKN3WTF6VectorINS_9FloatRectELm0ENS1_15CrashOnOverflowEEE
__ZN7CyberCore14TileController14setVisibleRectERKNS_9FloatRectE
__ZNK7CyberCore14TileController23computeTileCoverageRectERKNS_9FloatRectES3_
__ZN7CyberCore9FloatRect5scaleEff
__ZNK7CyberCore14TileController24getTileIndexRangeForRectERKNS_7IntRectERNS_8IntPointES5_
__ZN7CyberCore7IntRect5scaleEf
__ZNK7CyberCore14TileController16rectForTileIndexERKNS_8IntPointE
__ZN7CyberCore7IntRect5uniteERKS0_
__ZN3WTF9HashTableIN7CyberCore8IntPointENS_12KeyValuePairIS2_NS1_14TileController8TileInfoEEENS_24KeyValuePairKeyExtractorIS6_EENS_12IntPointHashENS_18HashMapValueTraitsINS_10HashTraitsIS2_EENSB_IS5_EEEESC_E16lookupForWritingINS_22IdentityHashTranslatorIS9_EES2_EENSt3__14pairIPS6_bEERKT0_
__ZN3WTF9HashTableIN7CyberCore8IntPointENS_12KeyValuePairIS2_NS1_14TileController8TileInfoEEENS_24KeyValuePairKeyExtractorIS6_EENS_12IntPointHashENS_18HashMapValueTraitsINS_10HashTraitsIS2_EENSB_IS5_EEEESC_E3addINS_17HashMapTranslatorISE_S9_EES2_S5_EENS_18HashTableAddResultINS_17HashTableIteratorIS2_S6_S8_S9_SE_SC_EEEERKT0_RKT1_
__ZN3WTF9HashTableIN7CyberCore8IntPointENS_12KeyValuePairIS2_NS1_14TileController8TileInfoEEENS_24KeyValuePairKeyExtractorIS6_EENS_12IntPointHashENS_18HashMapValueTraitsINS_10HashTraitsIS2_EENSB_IS5_EEEESC_E6rehashEi
__ZN3WTF22KeyValuePairHashTraitsINS_10HashTraitsIN7CyberCore8IntPointEEENS1_INS2_14TileController8TileInfoEEEE10emptyValueEv
__ZN7CyberCore14TileController15createTileLayerERKNS_7IntRectE
__ZN7CyberCore9LayerPool10sharedPoolEv
__ZN7CyberCore9LayerPoolC2Ev
__ZN7CyberCore9LayerPool17takeLayerWithSizeERKNS_7IntSizeE
__ZN7CyberCore9LayerPool20listOfLayersWithSizeERKNS_7IntSizeENS0_10AccessTypeE
__ZN3WTF7HashMapIN7CyberCore7IntSizeENS_5DequeINS_9RetainPtrI12WebTileLayerEELm0EEENS_7IntHashIS2_EENS_10HashTraitsIS2_EENSA_IS7_EEE4findERKS2_
__ZN3WTF7HashMapIN7CyberCore7IntSizeENS_5DequeINS_9RetainPtrI12WebTileLayerEELm0EEENS_7IntHashIS2_EENS_10HashTraitsIS2_EENSA_IS7_EEE6removeENS_24HashTableIteratorAdapterINS_9HashTableIS2_NS_12KeyValuePairIS2_S7_EENS_24KeyValuePairKeyExtractorISH_EES9_NS_18HashMapValueTraitsISB_SC_EESB_EESH_EE
__ZN3WTF9HashTableIN7CyberCore7IntSizeENS_12KeyValuePairIS2_NS_5DequeINS_9RetainPtrI12WebTileLayerEELm0EEEEENS_24KeyValuePairKeyExtractorIS9_EENS_7IntHashIS2_EENS_18HashMapValueTraitsINS_10HashTraitsIS2_EENSF_IS8_EEEESG_E16lookupForWritingINS_22IdentityHashTranslatorISD_EES2_EENSt3__14pairIPS9_bEERKT0_
__ZN3WTF9HashTableIN7CyberCore7IntSizeENS_12KeyValuePairIS2_NS_5DequeINS_9RetainPtrI12WebTileLayerEELm0EEEEENS_24KeyValuePairKeyExtractorIS9_EENS_7IntHashIS2_EENS_18HashMapValueTraitsINS_10HashTraitsIS2_EENSF_IS8_EEEESG_E3addINS_17HashMapTranslatorISI_SD_EES2_S8_EENS_18HashTableAddResultINS_17HashTableIteratorIS2_S9_SB_SD_SI_SG_EEEERKT0_RKT1_
__ZN3WTF9HashTableIN7CyberCore7IntSizeENS_12KeyValuePairIS2_NS_5DequeINS_9RetainPtrI12WebTileLayerEELm0EEEEENS_24KeyValuePairKeyExtractorIS9_EENS_7IntHashIS2_EENS_18HashMapValueTraitsINS_10HashTraitsIS2_EENSF_IS8_EEEESG_E6rehashEi
__ZN3WTF22KeyValuePairHashTraitsINS_10HashTraitsIN7CyberCore7IntSizeEEENS1_INS_5DequeINS_9RetainPtrI12WebTileLayerEELm0EEEEEE10emptyValueEv
__ZN3WTF5DequeINS_9RetainPtrI12WebTileLayerEELm0EEC2ERKS4_
__ZN3WTF5DequeINS_9RetainPtrI12WebTileLayerEELm0EE10destroyAllEv
__ZN3WTF6VectorIN7CyberCore7IntSizeELm0ENS_15CrashOnOverflowEE14expandCapacityEmPKS2_
__ZN3WTF6VectorIN7CyberCore7IntSizeELm0ENS_15CrashOnOverflowEE15reserveCapacityEm
-[WebTileLayer actionForKey:]
-[WebTileLayer setTileController:]
__ZN3WTF13hashTableSwapIN7CyberCore8IntPointENS1_14TileController8TileInfoEEEvRNS_12KeyValuePairIT_T0_EES9_
__ZN3WTF13hashTableSwapIN7CyberCore7IntSizeENS_5DequeINS_9RetainPtrI12WebTileLayerEELm0EEEEEvRNS_12KeyValuePairIT_T0_EESC_
__ZNK7CyberCore9FloatRect8containsERKS0_
-[WebTiledBackingLayer setNeedsDisplayInRect:]
__ZN7CyberCore14TileController21setNeedsDisplayInRectERKNS_7IntRectE
__ZN3WTF7HashMapIN7CyberCore8IntPointENS1_14TileController8TileInfoENS_12IntPointHashENS_10HashTraitsIS2_EENS6_IS4_EEE4findERKS2_
__ZN7CyberCore14TileController25setTileNeedsDisplayInRectERKNS_8IntPointERNS0_8TileInfoERKNS_7IntRectES8_
__ZNK7CyberCore7IntRect10intersectsERKS0_
__ZThn480_NK7CyberCore15GraphicsLayerCA33platformCALayerShowRepaintCounterEPNS_15PlatformCALayerE
__ZN7CyberCore15GraphicsLayerCA18updateContentsRectEv
__ZN7CyberCore15PlatformCALayer21setAcceleratesDrawingEb
-[WebTiledBackingLayer setAcceleratesDrawing:]
__ZN7CyberCore14TileController21setAcceleratesDrawingEb
-[WebTiledBackingLayer setBorderWidth:]
__ZN7CyberCore14TileController23setTileDebugBorderWidthEf
__ZN3WTF6VectorINS_6RefPtrIN7CyberCore15PlatformCALayerEEELm0ENS_15CrashOnOverflowEE6appendIS4_EEvPKT_m
__ZN3WTF6VectorINS_6RefPtrIN7CyberCore15PlatformCALayerEEELm0ENS_15CrashOnOverflowEE14expandCapacityEmPKS4_
__ZNK7CyberCore18RenderLayerBacking24didCommitChangesForLayerEPKNS_13GraphicsLayerE
__ZN7CyberCore21RenderLayerCompositor23didFlushChangesForLayerEPNS_11RenderLayerEPKNS_13GraphicsLayerE
__ZN7CyberCore11CachedImage30resumeAnimatingImagesForLoaderEPNS_20CachedResourceLoaderE
__ZNK7CyberCore9FrameTree14isDescendantOfEPKNS_5FrameE
__ZN7CyberCore11FrameLoader23handleBeforeUnloadEventERNS_6ChromeEPS0_
__ZN7CyberCore17BeforeUnloadEventC1Ev
__ZN7CyberCore17BeforeUnloadEventC2Ev
__ZN7CyberCore19JSBeforeUnloadEvent15createPrototypeEPN3JSC9ExecStateEPNS1_14JSGlobalObjectE
__ZN7CyberCore19JSBeforeUnloadEvent6s_infoE
__ZN7CyberCore19JSBeforeUnloadEventC1EPN3JSC9StructureEPNS_17JSDOMGlobalObjectEN3WTF10PassRefPtrINS_17BeforeUnloadEventEEE
__ZN7CyberCore19JSBeforeUnloadEvent14finishCreationERN3JSC2VME
__ZN7CyberCore19JSBeforeUnloadEvent14getConstructorEPN3JSC9ExecStateEPNS1_14JSGlobalObjectE
__ZN7CyberCore5EventC2ERKN3WTF12AtomicStringEbb
__ZN7CyberCore4Page44incrementFrameHandlingBeforeUnloadEventCountEv
__ZNK7CyberCore9DOMWindow8documentEv
__ZN7CyberCore4Page44decrementFrameHandlingBeforeUnloadEventCountEv
__ZN7CyberCore17BeforeUnloadEventD0Ev
__ZN7CyberCore19LayerFlushScheduler7suspendEv
__ZN7CyberCore19LayerFlushScheduler10invalidateEv
__ZN7CyberCore16ScriptController21processingUserGestureEv
__ZN7CyberCore20UserGestureIndicator21processingUserGestureEv
__ZNK7CyberCore16EventListenerMap8containsERKN3WTF12AtomicStringE
__ZN7CyberCore15DatabaseManager16hasOpenDatabasesEPNS_22ScriptExecutionContextE
__ZN3WTF9HashTableIPN7CyberCore22ScriptExecutionContextENS_12KeyValuePairIS3_PNS1_15DatabaseContextEEENS_24KeyValuePairKeyExtractorIS7_EENS_7PtrHashIS3_EENS_18HashMapValueTraitsINS_10HashTraitsIS3_EENSD_IS6_EEEESE_E16lookupForWritingINS_22IdentityHashTranslatorISB_EES3_EENSt3__14pairIPS7_bEERKT0_
__ZN3WTF9HashTableIPN7CyberCore22ScriptExecutionContextENS_12KeyValuePairIS3_PNS1_15DatabaseContextEEENS_24KeyValuePairKeyExtractorIS7_EENS_7PtrHashIS3_EENS_18HashMapValueTraitsINS_10HashTraitsIS3_EENSD_IS6_EEEESE_E3addINS_17HashMapTranslatorISG_SB_EES3_S6_EENS_18HashTableAddResultINS_17HashTableIteratorIS3_S7_S9_SB_SG_SE_EEEERKT0_RKT1_
__ZN3WTF9HashTableIPN7CyberCore22ScriptExecutionContextENS_12KeyValuePairIS3_PNS1_15DatabaseContextEEENS_24KeyValuePairKeyExtractorIS7_EENS_7PtrHashIS3_EENS_18HashMapValueTraitsINS_10HashTraitsIS3_EENSD_IS6_EEEESE_E6lookupINS_22IdentityHashTranslatorISB_EES3_EEPS7_RKT0_
__ZN3WTF9HashTableIPN7CyberCore22ScriptExecutionContextENS_12KeyValuePairIS3_PNS1_15DatabaseContextEEENS_24KeyValuePairKeyExtractorIS7_EENS_7PtrHashIS3_EENS_18HashMapValueTraitsINS_10HashTraitsIS3_EENSD_IS6_EEEESE_E6shrinkEv
__ZN7CyberCore17ScrollAnimatorMac16cancelAnimationsEv
__ZN7CyberCore17HistoryController17saveDocumentStateEv
__ZN7CyberCore11FrameLoader11stopLoadingENS_17UnloadEventPolicyE
__ZN7CyberCore19PageTransitionEventC1ERKN3WTF12AtomicStringEb
__ZN7CyberCore19PageTransitionEventD0Ev
__ZNK7CyberCore15SecurityContext20isSecureTransitionToERKNS_4KURLE
__ZN7CyberCore15DatabaseManager13stopDatabasesEPNS_22ScriptExecutionContextEPNS_24DatabaseTaskSynchronizerE
__ZN7CyberCore6Editor23clearUndoRedoOperationsEv
__ZN7CyberCore14DocumentLoader23stopLoadingSubresourcesEv
__ZN7CyberCore14DocumentLoader18stopLoadingPlugInsEv
__ZN7CyberCore14DocumentLoader15detachFromFrameEv
__ZN7CyberCore20ApplicationCacheHost22setDOMApplicationCacheEPNS_19DOMApplicationCacheE
__ZN7CyberCore24InspectorInstrumentation27loaderDetachedFromFrameImplEPNS_19InstrumentingAgentsEPNS_14DocumentLoaderE
__ZN7CyberCore14DocumentLoaderD0Ev
__ZN7CyberCore14DocumentLoaderD2Ev
__ZN7CyberCore14DocumentLoader17clearMainResourceEv
__ZN7CyberCore20ApplicationCacheHostD1Ev
__ZN7CyberCore20ApplicationCacheHostD2Ev
__ZN7CyberCore14DocumentWriterD2Ev
__ZN7CyberCore17HistoryController36updateBackForwardListClippedAtTargetEb
__ZN7CyberCore11FrameLoader30checkDidPerformFirstNavigationEv
__ZN7CyberCore21BackForwardController11itemAtIndexEi
__ZN7CyberCore17HistoryController14createItemTreeEPNS_5FrameEb
__ZN7CyberCore17HistoryController10createItemEv
__ZN7CyberCore11HistoryItemC1Ev
__ZN7CyberCore17HistoryController14initializeItemEPNS_11HistoryItemE
__ZNK7CyberCore14DocumentLoader11originalURLEv
__ZN7CyberCore11HistoryItem6setURLERKNS_4KURLE
__ZN7CyberCore9PageCache6removeEPNS_11HistoryItemE
__ZN7CyberCore11HistoryItem12setURLStringERKN3WTF6StringE
__ZN7CyberCore12iconDatabaseEv
__ZN7CyberCore11HistoryItem9setTargetERKN3WTF6StringE
__ZN7CyberCore11HistoryItem9setParentERKN3WTF6StringE
__ZN7CyberCore11HistoryItem8setTitleERKN3WTF6StringE
__ZN7CyberCore11HistoryItem20setOriginalURLStringERKN3WTF6StringE
__ZN7CyberCore11HistoryItem22setFormInfoFromRequestERKNS_15ResourceRequestE
__ZN7CyberCore17HistoryController36saveScrollPositionAndViewStateToItemEPNS_11HistoryItemE
__ZN7CyberCore11HistoryItem15setIsTargetItemEb
__ZN7CyberCore21BackForwardController7addItemEN3WTF10PassRefPtrINS_11HistoryItemEEE
__ZNK7CyberCore11HistoryItem21encodeBackForwardTreeERN3WTF7EncoderE
__ZNK7CyberCore11HistoryItem25encodeBackForwardTreeNodeERN3WTF7EncoderE
__ZNK7CyberCore11HistoryItem17originalURLStringEv
__ZNK7CyberCore11HistoryItem9urlStringEv
__ZNK7CyberCore11HistoryItem5titleEv
__ZNK7CyberCore14DocumentLoader19originalRequestCopyEv
__ZN7CyberCore9FrameView16prepareForDetachEv
__ZN7CyberCore9FrameView22detachCustomScrollbarsEv
__ZN7CyberCore20ScrollingCoordinator25willDestroyScrollableAreaEPNS_14ScrollableAreaE
__ZN7CyberCore8Document21prepareForDestructionEv
__ZN7CyberCore13ContainerNode26disconnectDescendantFramesEv
__ZNK7CyberCore4Node22connectedSubframeCountEv
__ZN7CyberCore9DOMWindow27willDetachDocumentFromFrameEv
__ZN3WTF12copyToVectorINS_7HashSetIPN7CyberCore17DOMWindowPropertyENS_7PtrHashIS4_EENS_10HashTraitsIS4_EEEENS_6VectorIS4_Lm0ENS_15CrashOnOverflowEEEEEvRKT_RT0_
__ZN7CyberCore8Document6detachERKNS_4Node13AttachContextE
__ZN7CyberCore22ScriptExecutionContext20stopActiveDOMObjectsEv
__ZThn48_N7CyberCore16SuspendableTimer4stopEv
__ZN7CyberCore18DocumentEventQueue5closeEv
__ZN7CyberCore16SuspendableTimer4stopEv
__ZN3WTF11ListHashSetINS_6RefPtrIN7CyberCore5EventEEELm16ENS_7PtrHashIS4_EEE5clearEv
__ZN3WTF5DequeINS_6RefPtrIN7CyberCore4NodeEEELm0EE10destroyAllEv
__ZNK7CyberCore9TimerBase16nextFireIntervalEv
__ZN7CyberCore12RenderObject34destroyAndCleanupAnonymousWrappersEv
__ZN7CyberCore12RenderObject7destroyEv
__ZN7CyberCore11RenderBlock15willBeDestroyedEv
__ZN7CyberCore21RenderObjectChildList23destroyLeftoverChildrenEv
__ZN7CyberCore9RenderBox15willBeDestroyedEv
__ZN7CyberCore11RenderBlock37removePercentHeightDescendantIfNeededEPNS_9RenderBoxE
__ZN7CyberCore10MappedInfoINS_9RenderBoxENS_16ShapeOutsideInfoEE10removeInfoEPKS1_
__ZN7CyberCore20RenderBoxModelObject15willBeDestroyedEv
__ZN7CyberCore22RenderLayerModelObject15willBeDestroyedEv
__ZN7CyberCore12RenderObject15willBeDestroyedEv
__ZNK7CyberCore12EventHandler18autoscrollRendererEv
__ZNK7CyberCore20AutoscrollController18autoscrollRendererEv
__ZN7CyberCore19AnimationController16cancelAnimationsEPNS_12RenderObjectE
__ZN7CyberCore11RenderBlock11removeChildEPNS_12RenderObjectE
__ZN7CyberCore12RenderObject11removeChildEPS0_
__ZN7CyberCore21RenderObjectChildList15removeChildNodeEPNS_12RenderObjectES2_b
__ZN7CyberCore9RenderBox20deleteLineBoxWrapperEv
__ZN7CyberCore12RenderObject11arenaDeleteEPNS_11RenderArenaEPv
__ZN7CyberCore11RenderBlockD0Ev
__ZN7CyberCore11RenderBlockD2Ev
__ZN7CyberCore9RenderBoxD2Ev
__ZN7CyberCore20RenderBoxModelObjectD2Ev
__ZN7CyberCore22RenderLayerModelObjectD2Ev
__ZN7CyberCore12RenderObjectD2Ev
__ZN7CyberCore12RenderObjectdlEPvm
__ZN7CyberCore22RenderLayerModelObject12destroyLayerEv
__ZN7CyberCore11RenderLayer7destroyEPNS_11RenderArenaE
__ZN7CyberCore11RenderLayerD0Ev
__ZN7CyberCore11RenderLayerD2Ev
__ZN7CyberCore9FrameView20removeScrollableAreaEPNS_14ScrollableAreaE
__ZN7CyberCore14ScrollableAreaD2Ev
__ZN7CyberCore18RenderLayerBackingD0Ev
__ZN7CyberCore18RenderLayerBackingD2Ev
__ZN7CyberCore23ScrollingCoordinatorMac19detachFromStateTreeEy
__ZN7CyberCore18ScrollingStateTree10detachNodeEy
__ZN3WTF6VectorIyLm0ENS_15CrashOnOverflowEE14expandCapacityEmPKy
__ZN3WTF6VectorIyLm0ENS_15CrashOnOverflowEE15reserveCapacityEm
__ZN7CyberCore27ScrollingStateScrollingNodeD0Ev
__ZN7CyberCore27ScrollingStateScrollingNodeD2Ev
__ZN7CyberCore18ScrollingStateNodeD2Ev
__ZN7CyberCore18RenderLayerBacking21destroyGraphicsLayersEv
-[WebTiledBackingLayer invalidate]
__ZN7CyberCore14TileControllerD0Ev
__ZN7CyberCore14TileControllerD2Ev
__ZN7CyberCore10RenderViewD0Ev
__ZN7CyberCore10RenderViewD2Ev
__ZN7CyberCore21RenderLayerCompositorD0Ev
__ZN7CyberCore21RenderLayerCompositorD2Ev
__ZN7CyberCore11RenderArenaD1Ev
__ZN7CyberCore15FinishArenaPoolEPNS_9ArenaPoolE
__ZN7CyberCore9FrameView18unscheduleRelayoutEv
__ZN7CyberCore9FrameViewD0Ev
__ZN7CyberCore9FrameViewD2Ev
__ZN7CyberCore9FrameView15resetScrollbarsEv
__ZN7CyberCore10ScrollView25setHasHorizontalScrollbarEb
__ZN7CyberCore20FrameActionSchedulerD1Ev
__ZN7CyberCore20FrameActionSchedulerD2Ev
__ZN7CyberCore10ScrollViewD2Ev
__ZN7CyberCore17ScrollAnimatorMacD0Ev
__ZN7CyberCore17ScrollAnimatorMacD2Ev
-[WebScrollbarPainterControllerDelegate invalidate]
-[WebScrollAnimationHelperDelegate invalidate]
__ZN7CyberCore14ScrollAnimatorD2Ev
__ZN7CyberCore9DOMWindow9setStatusERKN3WTF6StringE
__ZN7CyberCore6Chrome16setStatusbarTextEPNS_5FrameERKN3WTF6StringE
__ZNK7CyberCore5Frame31displayStringModifiedByEncodingERKN3WTF6StringE
__ZNK7CyberCore8Document31displayStringModifiedByEncodingERKN3WTF6StringE
__ZN7CyberCore9DOMWindow16setDefaultStatusERKN3WTF6StringE
__ZN7CyberCore8Document6setURLERKNS_4KURLE
__ZN7CyberCore8Document13updateBaseURLEv
__ZNK7CyberCore4KURL10protocolIsAboutEv
__ZN7CyberCore8Document17takeDOMWindowFromEPS0_
__ZN7CyberCore9DOMWindow21didSecureTransitionToEPNS_8DocumentE
__ZN7CyberCore26ContextDestructionObserver14observeContextEPNS_22ScriptExecutionContextE
__ZN7CyberCore22ScriptExecutionContext30willDestroyDestructionObserverEPNS_26ContextDestructionObserverE
__ZN3WTF7HashSetIPN7CyberCore26ContextDestructionObserverENS_7PtrHashIS3_EENS_10HashTraitsIS3_EEE6removeERKS3_
__ZN3WTF9HashTableIPN7CyberCore26ContextDestructionObserverES3_NS_17IdentityExtractorENS_7PtrHashIS3_EENS_10HashTraitsIS3_EES8_E6lookupINS_22IdentityHashTranslatorIS6_EES3_EEPS3_RKT0_
__ZN3WTF9HashTableIPN7CyberCore26ContextDestructionObserverES3_NS_17IdentityExtractorENS_7PtrHashIS3_EENS_10HashTraitsIS3_EES8_E6rehashEi
__ZN7CyberCore14FrameSelection21prepareForDestructionEv
__ZN7CyberCore14FrameSelection12setSelectionERKNS_16VisibleSelectionEjNS0_19CursorAlignOnScrollENS_15TextGranularityE
__ZN7CyberCore13TypingCommand11closeTypingEPNS_5FrameE
__ZN7CyberCoreeqERKNS_16VisibleSelectionES2_
__ZN7CyberCore24enclosingTextFormControlERKNS_8PositionE
__ZNK7CyberCore8Position13containerNodeEv
__ZN7CyberCore9FrameView5clearEv
__ZN7CyberCore4Node14removedLastRefEv
__ZThn80_N7CyberCore8Document7disposeEv
__ZN7CyberCore8Document7disposeEv
__ZN7CyberCore20UserActionElementSet24documentDidRemoveLastRefEv
__ZN3WTF6VectorINS_6RefPtrIN7CyberCore7ElementEEELm0ENS_15CrashOnOverflowEE14shrinkCapacityEm
__ZN7CyberCore9TreeScope20destroyTreeScopeDataEv
__ZN3WTF6OwnPtrIN7CyberCore18DocumentOrderedMapEE5clearEv
__ZN7CyberCore13ContainerNode22removeDetachedChildrenEv
__ZN7CyberCore7Private28addChildNodesToDeletionQueueINS_4NodeENS_13ContainerNodeEEEvRPT_S6_PT0_
__ZN7CyberCore15HTMLHtmlElementD0Ev
__ZN7CyberCore13StyledElementD2Ev
__ZN7CyberCore7ElementD2Ev
__ZN7CyberCore13ContainerNodeD2Ev
__ZN7CyberCore4Node17willBeDeletedFromEPNS_8DocumentE
__ZN7CyberCore4NodeD2Ev
__ZN7CyberCore11EventTargetD2Ev
__ZN7CyberCore15HTMLHeadElementD0Ev
__ZN7CyberCore15HTMLBodyElementD0Ev
__ZN7CyberCore24DocumentMarkerController6detachEv
__ZNK7CyberCore9TreeScope8refCountEv
__ZThn80_N7CyberCore12HTMLDocumentD0Ev
__ZN7CyberCore12HTMLDocumentD2Ev
__ZN7CyberCore8DocumentD2Ev
__ZN7CyberCore12ScriptRunnerD1Ev
__ZN7CyberCore12ScriptRunnerD2Ev
__ZN7CyberCore16HistogramSupport20histogramEnumerationEPKcii
__ZN7CyberCore8Document23removeAllEventListenersEv
__ZN7CyberCore11EventTarget23removeAllEventListenersEv
__ZN7CyberCore4Node15eventTargetDataEv
__ZN7CyberCore19TextResourceDecoderD1Ev
__ZN7CyberCore28DocumentStyleSheetCollectionD1Ev
__ZN7CyberCore28DocumentStyleSheetCollectionD2Ev
__ZN7CyberCore13StyleResolverD1Ev
__ZN7CyberCore13StyleResolverD2Ev
__ZN7CyberCore15CSSFontSelector13clearDocumentEv
__ZN7CyberCore13StyleResolver5StateD2Ev
__ZN7CyberCore9FillLayerD1Ev
__ZN7CyberCore9FillLayerD2Ev
__ZN7CyberCore22InspectorCSSOMWrappersD2Ev
__ZN7CyberCore16DocumentRuleSetsD1Ev
__ZN7CyberCore16DocumentRuleSetsD2Ev
__ZN7CyberCore20CachedResourceLoaderD1Ev
__ZN7CyberCore20CachedResourceLoaderD2Ev
__ZN3WTF5DequeIN7CyberCore20CachedResourceLoader14PendingPreloadELm0EE10destroyAllEv
__ZN3WTF6OwnPtrINS_11ListHashSetIPN7CyberCore14CachedResourceELm256ENS_7PtrHashIS4_EEEEED2Ev
__ZN7CyberCore9TreeScope18clearDocumentScopeEv
__ZN7CyberCore24DocumentSharedObjectPoolD1Ev
__ZN7CyberCore18DocumentEventQueueD0Ev
__ZN3WTF11ListHashSetINS_6RefPtrIN7CyberCore5EventEEELm16ENS_7PtrHashIS4_EEED2Ev
__ZN7CyberCore23DocumentEventQueueTimerD0Ev
__ZN7CyberCore16SuspendableTimerD2Ev
__ZN7CyberCore15ActiveDOMObjectD2Ev
__ZN7CyberCore22ScriptExecutionContext26willDestroyActiveDOMObjectEPNS_15ActiveDOMObjectE
__ZN3WTF7HashSetIPN7CyberCore15ActiveDOMObjectENS_7PtrHashIS3_EENS_10HashTraitsIS3_EEE6removeERKS3_
__ZN3WTF9HashTableIPN7CyberCore15ActiveDOMObjectES3_NS_17IdentityExtractorENS_7PtrHashIS3_EENS_10HashTraitsIS3_EES8_E6lookupINS_22IdentityHashTranslatorIS6_EES3_EEPS3_RKT0_
__ZN7CyberCore26ContextDestructionObserverD2Ev
__ZN7CyberCore24DocumentMarkerControllerD1Ev
__ZN7CyberCore24DocumentMarkerControllerD2Ev
__ZN7CyberCore20UserActionElementSetD1Ev
__ZN7CyberCore22ScriptExecutionContextD2Ev
__ZN3WTF6OwnPtrIN7CyberCore16PublicURLManagerEED2Ev
__ZN3WTF14deleteOwnedPtrINS_6VectorINS_6OwnPtrIN7CyberCore22ScriptExecutionContext16PendingExceptionEEELm0ENS_15CrashOnOverflowEEEEEvPT_
__ZN7CyberCore15SecurityContextD2Ev
__ZN7CyberCore21ContentSecurityPolicyD1Ev
__ZN7CyberCore9TreeScopeD2Ev
__ZN3WTF6OwnPtrIN7CyberCore24IdTargetObserverRegistryEED2Ev
__ZN3WTF6OwnPtrIN7CyberCore18DocumentOrderedMapEED2Ev
__ZN7CyberCore14SubframeLoader5clearEv
__ZN7CyberCore16ScriptController10enableEvalEv
__ZN7CyberCore21mainThreadNormalWorldEv
__ZN7CyberCore19NavigationScheduler5clearEv
__ZN7CyberCore11FrameLoader17receivedFirstDataEv
__ZN7CyberCore11FrameLoader21dispatchDidCommitLoadEv
__ZNK7CyberCore16ResourceResponse16certificateChainEv
__ZNK7CyberCore16ResourceResponse17initNSURLResponseEv
__ZN7CyberCore14SecurityOrigin16createFromStringERKN3WTF6StringE
__ZNK7CyberCore14SecurityOrigin11toRawStringEv
__ZN7CyberCore4Page16resetSeenPluginsEv
__ZN7CyberCore4Page21resetSeenMediaEnginesEv
__ZN7CyberCore24InspectorInstrumentation17didCommitLoadImplEPNS_19InstrumentingAgentsEPNS_4PageEPNS_14DocumentLoaderE
__ZNK7CyberCore14InspectorAgent22developerExtrasEnabledEv
__ZN7CyberCore15FeatureObserver13didCommitLoadEv
__ZN7CyberCore11FrameLoader40dispatchDidClearWindowObjectsInAllWorldsEv
__ZN7CyberCore16ScriptController12getAllWorldsERN3WTF6VectorINS1_6RefPtrINS_15DOMWrapperWorldEEELm0ENS1_15CrashOnOverflowEEE
__ZN3WTF12copyToVectorINS_7HashSetIPN7CyberCore15DOMWrapperWorldENS_7PtrHashIS4_EENS_10HashTraitsIS4_EEEENS_6VectorINS_6RefPtrIS3_EELm0ENS_15CrashOnOverflowEEEEEvRKT_RT0_
__ZN3WTF6VectorINS_6RefPtrIN7CyberCore15DOMWrapperWorldEEELm0ENS_15CrashOnOverflowEE6resizeEm
__ZN3WTF6VectorINS_6RefPtrIN7CyberCore15DOMWrapperWorldEEELm0ENS_15CrashOnOverflowEE15reserveCapacityEm
__ZN7CyberCore11FrameLoader35dispatchDidClearWindowObjectInWorldEPNS_15DOMWrapperWorldE
__ZN7CyberCore11FrameLoader40dispatchGlobalObjectAvailableInAllWorldsEv
__ZN7CyberCore21UserContentURLPattern5parseERKN3WTF6StringE
__ZNK7CyberCore21UserContentURLPattern7matchesERKNS_4KURLE
__ZN7CyberCore16ScriptController10initScriptEPNS_15DOMWrapperWorldE
__ZN7CyberCore16ScriptController17createWindowShellEPNS_15DOMWrapperWorldE
__ZN7CyberCore16JSDOMWindowShell6createEN3WTF10PassRefPtrINS_9DOMWindowEEEPN3JSC9StructureEPNS_15DOMWrapperWorldE
__ZN7CyberCore16JSDOMWindowShellC1EPN3JSC9StructureEPNS_15DOMWrapperWorldE
__ZN7CyberCore16JSDOMWindowShell14finishCreationERN3JSC2VMEN3WTF10PassRefPtrINS_9DOMWindowEEE
__ZN7CyberCore16JSDOMWindowShell9setWindowEN3WTF10PassRefPtrINS_9DOMWindowEEE
__ZN3JSC6StrongIN7CyberCore20JSDOMWindowPrototypeEEC2ERNS_2VMEPS2_
__ZN7CyberCore11JSDOMWindow6createERN3JSC2VMEPNS1_9StructureEN3WTF10PassRefPtrINS_9DOMWindowEEEPNS_16JSDOMWindowShellE
__ZN7CyberCore11JSDOMWindowC1ERN3JSC2VMEPNS1_9StructureEN3WTF10PassRefPtrINS_9DOMWindowEEEPNS_16JSDOMWindowShellE
__ZN7CyberCore15JSDOMWindowBaseC2ERN3JSC2VMEPNS1_9StructureEN3WTF10PassRefPtrINS_9DOMWindowEEEPNS_16JSDOMWindowShellE
__ZN7CyberCore17JSDOMGlobalObjectC2ERN3JSC2VMEPNS1_9StructureEN3WTF10PassRefPtrINS_15DOMWrapperWorldEEEPKNS1_23GlobalObjectMethodTableE
__ZN7CyberCore15JSDOMWindowBase14finishCreationERN3JSC2VMEPNS_16JSDOMWindowShellE
__ZN7CyberCore17JSDOMGlobalObject14finishCreationERN3JSC2VMEPNS1_8JSObjectE
__ZN7CyberCore12gcControllerEv
__ZN7CyberCore12GCController18garbageCollectSoonEv
__ZN3JSC6StrongIN7CyberCore16JSDOMWindowShellEEC2ERNS_2VMEPS2_
__ZN3JSC6StrongIN7CyberCore16JSDOMWindowShellEEC2ERKS3_
__ZN3JSC6StrongIN7CyberCore16JSDOMWindowShellEEaSERKS3_
__ZN3WTF9HashTableIPN7CyberCore16ScriptControllerES3_NS_17IdentityExtractorENS_7PtrHashIS3_EENS_10HashTraitsIS3_EES8_E3addINS_22IdentityHashTranslatorIS6_EES3_S3_EENS_18HashTableAddResultINS_17HashTableIteratorIS3_S3_S4_S6_S8_S8_EEEERKT0_RKT1_
__ZN3WTF9HashTableIPN7CyberCore16ScriptControllerES3_NS_17IdentityExtractorENS_7PtrHashIS3_EENS_10HashTraitsIS3_EES8_E6rehashEi
__ZN7CyberCore15JSDOMWindowBase14updateDocumentEv
__ZN3WTF9HashTableIPvNS_12KeyValuePairIS1_N3JSC4WeakIN7CyberCore12JSDOMWrapperEEEEENS_24KeyValuePairKeyExtractorIS8_EENS_7PtrHashIS1_EENS_18HashMapValueTraitsINS_10HashTraitsIS1_EENSE_IS7_EEEESF_E16lookupForWritingINS_22IdentityHashTranslatorISC_EES1_EENSt3__14pairIPS8_bEERKT0_
__ZN3WTF9HashTableIPvNS_12KeyValuePairIS1_N3JSC4WeakIN7CyberCore12JSDOMWrapperEEEEENS_24KeyValuePairKeyExtractorIS8_EENS_7PtrHashIS1_EENS_18HashMapValueTraitsINS_10HashTraitsIS1_EENSE_IS7_EEEESF_E3addINS_17HashMapTranslatorISH_SC_EES1_NS3_8PassWeakIS6_EEEENS_18HashTableAddResultINS_17HashTableIteratorIS1_S8_SA_SC_SH_SF_EEEERKT0_RKT1_
__ZN3WTF9HashTableIPvNS_12KeyValuePairIS1_N3JSC4WeakIN7CyberCore12JSDOMWrapperEEEEENS_24KeyValuePairKeyExtractorIS8_EENS_7PtrHashIS1_EENS_18HashMapValueTraitsINS_10HashTraitsIS1_EENSE_IS7_EEEESF_E6lookupINS_22IdentityHashTranslatorISC_EES1_EEPS8_RKT0_
__ZN3WTF9HashTableIPvNS_12KeyValuePairIS1_N3JSC4WeakIN7CyberCore12JSDOMWrapperEEEEENS_24KeyValuePairKeyExtractorIS8_EENS_7PtrHashIS1_EENS_18HashMapValueTraitsINS_10HashTraitsIS1_EENSE_IS7_EEEESF_E6rehashEi
__ZN7CyberCore13createWrapperEPN3JSC9ExecStateEPNS_17JSDOMGlobalObjectEPNS_4NodeE
__ZNK7CyberCore8Document8nodeTypeEv
__ZN7CyberCore4toJSEPN3JSC9ExecStateEPNS_17JSDOMGlobalObjectEPNS_8DocumentE
__ZN7CyberCore4toJSEPN3JSC9ExecStateEPNS_9DOMWindowE
__ZN3WTF9HashTableINS_6RefPtrIN7CyberCore15DOMWrapperWorldEEENS_12KeyValuePairIS4_N3JSC6StrongINS2_16JSDOMWindowShellEEEEENS_24KeyValuePairKeyExtractorISA_EENS_7PtrHashIS4_EENS_22KeyValuePairHashTraitsINS_10HashTraitsIS4_EENSG_IS9_EEEESH_E12deleteBucketERSA_
__ZN3WTF9HashTableINS_6RefPtrIN7CyberCore15DOMWrapperWorldEEENS_12KeyValuePairIS4_N3JSC6StrongINS2_16JSDOMWindowShellEEEEENS_24KeyValuePairKeyExtractorISA_EENS_7PtrHashIS4_EENS_22KeyValuePairHashTraitsINS_10HashTraitsIS4_EENSG_IS9_EEEESH_E15deallocateTableEPSA_i
__ZN3WTF9HashTableINS_6RefPtrIN7CyberCore15DOMWrapperWorldEEENS_12KeyValuePairIS4_N3JSC6StrongINS2_16JSDOMWindowShellEEEEENS_24KeyValuePairKeyExtractorISA_EENS_7PtrHashIS4_EENS_22KeyValuePairHashTraitsINS_10HashTraitsIS4_EENSG_IS9_EEEESH_E16lookupForWritingINS_22IdentityHashTranslatorISE_EES4_EENSt3__14pairIPSA_bEERKT0_
__ZN3WTF9HashTableINS_6RefPtrIN7CyberCore15DOMWrapperWorldEEENS_12KeyValuePairIS4_N3JSC6StrongINS2_16JSDOMWindowShellEEEEENS_24KeyValuePairKeyExtractorISA_EENS_7PtrHashIS4_EENS_22KeyValuePairHashTraitsINS_10HashTraitsIS4_EENSG_IS9_EEEESH_E3addINS_17HashMapTranslatorISJ_SE_EEPS3_S9_EENS_18HashTableAddResultINS_17HashTableIteratorIS4_SA_SC_SE_SJ_SH_EEEERKT0_RKT1_
__ZN3WTF9HashTableINS_6RefPtrIN7CyberCore15DOMWrapperWorldEEENS_12KeyValuePairIS4_N3JSC6StrongINS2_16JSDOMWindowShellEEEEENS_24KeyValuePairKeyExtractorISA_EENS_7PtrHashIS4_EENS_22KeyValuePairHashTraitsINS_10HashTraitsIS4_EENSG_IS9_EEEESH_E6lookupINS_17HashMapTranslatorISJ_SE_EEPS3_EEPSA_RKT0_
__ZN3WTF9HashTableINS_6RefPtrIN7CyberCore15DOMWrapperWorldEEENS_12KeyValuePairIS4_N3JSC6StrongINS2_16JSDOMWindowShellEEEEENS_24KeyValuePairKeyExtractorISA_EENS_7PtrHashIS4_EENS_22KeyValuePairHashTraitsINS_10HashTraitsIS4_EENSG_IS9_EEEESH_E6lookupINS_22IdentityHashTranslatorISE_EES4_EEPSA_RKT0_
__ZN3WTF9HashTableINS_6RefPtrIN7CyberCore15DOMWrapperWorldEEENS_12KeyValuePairIS4_N3JSC6StrongINS2_16JSDOMWindowShellEEEEENS_24KeyValuePairKeyExtractorISA_EENS_7PtrHashIS4_EENS_22KeyValuePairHashTraitsINS_10HashTraitsIS4_EENSG_IS9_EEEESH_E6rehashEi
__ZN7CyberCore13toJSDOMWindowEN3JSC7JSValueE
__ZN7CyberCore15getDOMStructureINS_14JSHTMLDocumentEEEPN3JSC9StructureEPNS2_9ExecStateEPNS_17JSDOMGlobalObjectE
__ZN7CyberCore21getCachedDOMStructureEPNS_17JSDOMGlobalObjectEPKN3JSC9ClassInfoE
__ZN7CyberCore14JSHTMLDocument15createPrototypeEPN3JSC9ExecStateEPNS1_14JSGlobalObjectE
__ZN7CyberCore19JSDocumentPrototype4selfEPN3JSC9ExecStateEPNS1_14JSGlobalObjectE
__ZN7CyberCore15getDOMStructureINS_10JSDocumentEEEPN3JSC9StructureEPNS2_9ExecStateEPNS_17JSDOMGlobalObjectE
__ZN7CyberCore10JSDocument15createPrototypeEPN3JSC9ExecStateEPNS1_14JSGlobalObjectE
__ZN7CyberCore15JSNodePrototype4selfEPN3JSC9ExecStateEPNS1_14JSGlobalObjectE
__ZN7CyberCore15getDOMStructureINS_6JSNodeEEEPN3JSC9StructureEPNS2_9ExecStateEPNS_17JSDOMGlobalObjectE
__ZN7CyberCore6JSNode15createPrototypeEPN3JSC9ExecStateEPNS1_14JSGlobalObjectE
__ZN7CyberCore17cacheDOMStructureEPNS_17JSDOMGlobalObjectEPN3JSC9StructureEPKNS2_9ClassInfoE
__ZN3WTF9HashTableIPKN3JSC9ClassInfoENS_12KeyValuePairIS4_NS1_12WriteBarrierINS1_9StructureEEEEENS_24KeyValuePairKeyExtractorIS9_EENS_7PtrHashIS4_EENS_18HashMapValueTraitsINS_10HashTraitsIS4_EENSF_IS8_EEEESG_E16lookupForWritingINS_22IdentityHashTranslatorISD_EES4_EENSt3__14pairIPS9_bEERKT0_
__ZN3WTF9HashTableIPKN3JSC9ClassInfoENS_12KeyValuePairIS4_NS1_12WriteBarrierINS1_9StructureEEEEENS_24KeyValuePairKeyExtractorIS9_EENS_7PtrHashIS4_EENS_18HashMapValueTraitsINS_10HashTraitsIS4_EENSF_IS8_EEEESG_E3addINS_17HashMapTranslatorISI_SD_EES4_S8_EENS_18HashTableAddResultINS_17HashTableIteratorIS4_S9_SB_SD_SI_SG_EEEERKT0_RKT1_
__ZN3WTF9HashTableIPKN3JSC9ClassInfoENS_12KeyValuePairIS4_NS1_12WriteBarrierINS1_9StructureEEEEENS_24KeyValuePairKeyExtractorIS9_EENS_7PtrHashIS4_EENS_18HashMapValueTraitsINS_10HashTraitsIS4_EENSF_IS8_EEEESG_E6lookupINS_22IdentityHashTranslatorISD_EES4_EEPS9_RKT0_
__ZN3WTF9HashTableIPKN3JSC9ClassInfoENS_12KeyValuePairIS4_NS1_12WriteBarrierINS1_9StructureEEEEENS_24KeyValuePairKeyExtractorIS9_EENS_7PtrHashIS4_EENS_18HashMapValueTraitsINS_10HashTraitsIS4_EENSF_IS8_EEEESG_E6rehashEi
__ZN7CyberCore14JSHTMLDocument6createEPN3JSC9StructureEPNS_17JSDOMGlobalObjectEN3WTF10PassRefPtrINS_12HTMLDocumentEEE
__ZN7CyberCore14JSHTMLDocumentC1EPN3JSC9StructureEPNS_17JSDOMGlobalObjectEN3WTF10PassRefPtrINS_12HTMLDocumentEEE
__ZN7CyberCore10JSDocumentC2EPN3JSC9StructureEPNS_17JSDOMGlobalObjectEN3WTF10PassRefPtrINS_8DocumentEEE
__ZN7CyberCore6JSNodeC2EPN3JSC9StructureEPNS_17JSDOMGlobalObjectEN3WTF10PassRefPtrINS_4NodeEEE
__ZN7CyberCore14JSHTMLDocument14finishCreationERN3JSC2VME
__ZN7CyberCore10JSDocument14finishCreationERN3JSC2VME
__ZN7CyberCore6JSNode14finishCreationERN3JSC2VME
__ZN7CyberCore12cacheWrapperINS_12HTMLDocumentEEEvPNS_15DOMWrapperWorldEPT_PNS_12JSDOMWrapperE
__ZN3JSC28symbolTablePutWithAttributesIN7CyberCore15JSDOMWindowBaseEEEbPT_RNS_2VMENS_12PropertyNameENS_7JSValueEj
__ZN3WTF9HashTableINS_6RefPtrINS_10StringImplEEENS_12KeyValuePairIS3_N3JSC16SymbolTableEntryEEENS_24KeyValuePairKeyExtractorIS7_EENS5_17IdentifierRepHashENS_22KeyValuePairHashTraitsINS_10HashTraitsIS3_EENS5_26SymbolTableIndexHashTraitsEEESD_E4findINS_17HashMapTranslatorISF_SA_EEPS2_EENS_17HashTableIteratorIS3_S7_S9_SA_SF_SD_EERKT0_
__ZNK7CyberCore21ContentSecurityPolicy9allowEvalEPN3JSC9ExecStateENS0_15ReportingStatusE
__ZNK7CyberCore21ContentSecurityPolicy24evalDisabledErrorMessageEv
__ZN3WTF6OwnPtrIN3JSC14JSGlobalObject22JSGlobalObjectRareDataEEaSERKNS_10PassOwnPtrIS3_EE
__ZN3WTF10PassOwnPtrIN3JSC14JSGlobalObject22JSGlobalObjectRareDataEED2Ev
__ZN7CyberCore19InspectorController27didClearWindowObjectInWorldEPNS_5FrameEPNS_15DOMWrapperWorldE
__ZN7CyberCore24InspectorInstrumentation31didClearWindowObjectInWorldImplEPNS_19InstrumentingAgentsEPNS_5FrameEPNS_15DOMWrapperWorldE
__ZN7CyberCore14InspectorAgent27didClearWindowObjectInWorldEPNS_5FrameEPNS_15DOMWrapperWorldE
__ZN7CyberCore16PageRuntimeAgent25didCreateMainWorldContextEPNS_5FrameE
__ZN7CyberCore11JSDOMWindow18getOwnPropertySlotEPN3JSC6JSCellEPNS1_9ExecStateENS1_12PropertyNameERNS1_12PropertySlotE
__ZN7CyberCore28shouldAllowAccessToDOMWindowEPN3JSC9ExecStateEPNS_9DOMWindowERN3WTF6StringE
__ZN7CyberCore15BindingSecurity28shouldAllowAccessToDOMWindowEPN3JSC9ExecStateEPNS_9DOMWindowENS_23SecurityReportingOptionE
__ZN7CyberCoreL17canAccessDocumentEPN3JSC9ExecStateEPNS_8DocumentENS_23SecurityReportingOptionE
__ZN7CyberCore15activeDOMWindowEPN3JSC9ExecStateE
__ZNK7CyberCore14SecurityOrigin9canAccessEPKS0_
__ZNK7CyberCore9FrameTree11scopedChildERKN3WTF12AtomicStringE
__ZN7CyberCore20JSDOMWindowPrototype18getOwnPropertySlotEPN3JSC6JSCellEPNS1_9ExecStateENS1_12PropertyNameERNS1_12PropertySlotE
__ZN3JSC21getStaticPropertySlotIN7CyberCore20JSDOMWindowPrototypeENS_8JSObjectEEEbPNS_9ExecStateEPKNS_9HashTableEPT_NS_12PropertyNameERNS_12PropertySlotE
__ZN3JSC9Structure3getERNS_2VMENS_12PropertyNameE
__ZN3JSC12PropertyName7asIndexEv
__ZNK7CyberCore9FrameTree16scopedChildCountEv
__ZN7CyberCore16findAtomicStringEN3JSC12PropertyNameE
__ZN7CyberCore16parseHTTPRefreshERKN3WTF6StringEbRdRS1_
__ZN7CyberCore14DocumentWriter11setEncodingERKN3WTF6StringEb
__ZN7CyberCore14DocumentWriter7addDataEPKcm
__ZN7CyberCore25DecodedDataDocumentParser11appendBytesEPNS_14DocumentWriterEPKcm
__ZN7CyberCoreL17fullyDecodeStringERKN3WTF6StringERKNS_12TextEncodingE
__ZN7CyberCore21decodeEscapeSequencesINS_26Unicode16BitEscapeSequenceEEEN3WTF6StringERKS3_RKNS_12TextEncodingE
__ZN7CyberCoreL23isNonCanonicalCharacterEt
__ZN7CyberCoreL22isRequiredForInjectionEt
__ZNK7CyberCore20ResourceResponseBase15httpHeaderFieldERKN3WTF12AtomicStringE
__ZNK7CyberCore13HTTPHeaderMap3getERKN3WTF12AtomicStringE
__ZN7CyberCore24parseXSSProtectionHeaderERKN3WTF6StringERS1_RjS4_
__ZNK7CyberCore21ContentSecurityPolicy23reflectedXSSDispositionEv
__ZN7CyberCore24ScriptableDocumentParser26asScriptableDocumentParserEv
__ZNK7CyberCore25DecodedDataDocumentParser10wellFormedEv
__ZN7CyberCore14IconController11startLoaderEv
__ZN7CyberCore14IconController3urlEv
__ZN7CyberCore14IconController12urlsForTypesEi
__ZN7CyberCore14IconController16appendToIconURLsENS_8IconTypeEPN3WTF6VectorINS_7IconURLELm1ENS2_15CrashOnOverflowEEE
__ZNK7CyberCore14IconController7iconURLENS_8IconTypeE
__ZN7CyberCore8Document8iconURLsEi
__ZN3WTF6VectorIN7CyberCore7IconURLELm0ENS_15CrashOnOverflowEE14shrinkCapacityEm
__ZN7CyberCore11HTMLElement8childrenEv
__ZN7CyberCore7Element26ensureCachedHTMLCollectionENS_14CollectionTypeE
__ZN7CyberCore7Element20cachedHTMLCollectionENS_14CollectionTypeE
__ZN7CyberCore4Node14ensureRareDataEv
__ZN7CyberCore17NodeListsNodeData22addCacheWithAtomicNameINS_14HTMLCollectionEEEN3WTF10PassRefPtrIT_EEPNS_4NodeENS_14CollectionTypeE
__ZN3WTF9HashTableINSt3__14pairIhNS_12AtomicStringEEENS_12KeyValuePairIS4_PN7CyberCore16LiveNodeListBaseEEENS_24KeyValuePairKeyExtractorIS9_EENS6_17NodeListsNodeData25NodeListCacheMapEntryHashIS3_EENS_18HashMapValueTraitsINS_10HashTraitsIS4_EENSG_IS8_EEEESH_E16lookupForWritingINS_22IdentityHashTranslatorISE_EES4_EENS2_IPS9_bEERKT0_
__ZN3WTF9HashTableINSt3__14pairIhNS_12AtomicStringEEENS_12KeyValuePairIS4_PN7CyberCore16LiveNodeListBaseEEENS_24KeyValuePairKeyExtractorIS9_EENS6_17NodeListsNodeData25NodeListCacheMapEntryHashIS3_EENS_18HashMapValueTraitsINS_10HashTraitsIS4_EENSG_IS8_EEEESH_E3addINS_17HashMapTranslatorISJ_SE_EES4_S8_EENS_18HashTableAddResultINS_17HashTableIteratorIS4_S9_SB_SE_SJ_SH_EEEERKT0_RKT1_
__ZN3WTF9HashTableINSt3__14pairIhNS_12AtomicStringEEENS_12KeyValuePairIS4_PN7CyberCore16LiveNodeListBaseEEENS_24KeyValuePairKeyExtractorIS9_EENS6_17NodeListsNodeData25NodeListCacheMapEntryHashIS3_EENS_18HashMapValueTraitsINS_10HashTraitsIS4_EENSG_IS8_EEEESH_E4findINS_22IdentityHashTranslatorISE_EES4_EENS_17HashTableIteratorIS4_S9_SB_SE_SJ_SH_EERKT0_
__ZN3WTF9HashTableINSt3__14pairIhNS_12AtomicStringEEENS_12KeyValuePairIS4_PN7CyberCore16LiveNodeListBaseEEENS_24KeyValuePairKeyExtractorIS9_EENS6_17NodeListsNodeData25NodeListCacheMapEntryHashIS3_EENS_18HashMapValueTraitsINS_10HashTraitsIS4_EENSG_IS8_EEEESH_E6rehashEi
__ZN7CyberCore14HTMLCollection6createEPNS_4NodeENS_14CollectionTypeE
__ZN7CyberCore14HTMLCollectionC2EPNS_4NodeENS_14CollectionTypeENS_16LiveNodeListBase21ItemAfterOverrideTypeE
__ZN7CyberCore8Document16registerNodeListEPNS_16LiveNodeListBaseE
__ZN7CyberCore14HTMLCollectionD0Ev
__ZN7CyberCore14HTMLCollectionD2Ev
__ZN7CyberCore4Node9nodeListsEv
__ZN7CyberCore17NodeListsNodeData25removeCacheWithAtomicNameEPNS_16LiveNodeListBaseENS_14CollectionTypeERKN3WTF12AtomicStringE
__ZN7CyberCore4Node14clearNodeListsEv
__ZN7CyberCore17NodeListsNodeDataD2Ev
__ZN7CyberCore16LiveNodeListBaseD2Ev
__ZN7CyberCore8Document18unregisterNodeListEPNS_16LiveNodeListBaseE
__ZNK7CyberCore4Node8rareDataEv
__ZNK7CyberCore16LiveNodeListBase6lengthEv
__ZNK7CyberCore16LiveNodeListBase4itemEj
__ZNK7CyberCore16LiveNodeListBase17rootContainerNodeEv
__ZNK7CyberCore14HTMLCollection20traverseFirstElementERjPNS_13ContainerNodeE
__ZN3WTF6VectorIN7CyberCore7IconURLELm0ENS_15CrashOnOverflowEE7reverseEv
__ZN7CyberCore14IconController10defaultURLENS_8IconTypeE
__ZN7CyberCore19AnimationController29startAnimationsIfNotSuspendedEPNS_8DocumentE
__ZN7CyberCore11ImageLoader31dispatchPendingBeforeLoadEventsEv
__ZN7CyberCore11EventSenderINS_11ImageLoaderEE21dispatchPendingEventsEv
__ZN7CyberCore11ImageLoader25dispatchPendingLoadEventsEv
__ZN7CyberCore11ImageLoader26dispatchPendingErrorEventsEv
__ZN7CyberCore15HTMLLinkElement25dispatchPendingLoadEventsEv
__ZN7CyberCore11EventSenderINS_15HTMLLinkElementEE21dispatchPendingEventsEv
__ZN7CyberCore16HTMLStyleElement25dispatchPendingLoadEventsEv
__ZN7CyberCore11EventSenderINS_16HTMLStyleElementEE21dispatchPendingEventsEv
__ZN7CyberCore9DOMWindow17dispatchLoadEventEv
__ZN7CyberCore24InspectorInstrumentation18loadEventFiredImplEPNS_19InstrumentingAgentsEPNS_5FrameE
__ZN7CyberCore8Document20enqueuePageshowEventENS_24PageshowEventPersistenceE
__ZN7CyberCore21SerializedScriptValue9nullValueEv
__ZN7CyberCore8Document20enqueuePopstateEventEN3WTF10PassRefPtrINS_21SerializedScriptValueEEE
__ZN7CyberCore15ContextFeatures16pushStateEnabledEPNS_8DocumentE
__ZN7CyberCore21ContextFeaturesClient9isEnabledEPNS_8DocumentENS_15ContextFeatures11FeatureTypeEb
__ZNK7CyberCore9DOMWindow7historyEv
__ZN7CyberCore7HistoryC1EPNS_5FrameE
__ZN7CyberCore17DOMWindowPropertyC2EPNS_5FrameE
__ZN7CyberCore9DOMWindow16registerPropertyEPNS_17DOMWindowPropertyE
__ZN3WTF9HashTableIPN7CyberCore17DOMWindowPropertyES3_NS_17IdentityExtractorENS_7PtrHashIS3_EENS_10HashTraitsIS3_EES8_E3addINS_22IdentityHashTranslatorIS6_EES3_S3_EENS_18HashTableAddResultINS_17HashTableIteratorIS3_S3_S4_S6_S8_S8_EEEERKT0_RKT1_
__ZN3WTF9HashTableIPN7CyberCore17DOMWindowPropertyES3_NS_17IdentityExtractorENS_7PtrHashIS3_EENS_10HashTraitsIS3_EES8_E6rehashEi
__ZN7CyberCore13PopStateEvent6createEN3WTF10PassRefPtrINS_21SerializedScriptValueEEENS2_INS_7HistoryEEE
__ZN7CyberCore13PopStateEventC2EN3WTF10PassRefPtrINS_21SerializedScriptValueEEENS2_INS_7HistoryEEE
__ZN7CyberCore13PopStateEventD0Ev
__ZN7CyberCore13PopStateEventD2Ev
__ZN7CyberCore21SerializedScriptValueD1Ev
__ZN7CyberCore21SerializedScriptValueD2Ev
__ZN7CyberCore11FrameLoader19handledOnloadEventsEv
__ZN7CyberCore14DocumentLoader19handledOnloadEventsEv
__ZN7CyberCore20ApplicationCacheHost19stopDeferringEventsEv
__ZN7CyberCore11FrameLoader22checkCallImplicitCloseEv
__ZN7CyberCore11FrameLoader9didLayoutEj
__ZN7CyberCore19LayerFlushScheduler6resumeEv
__ZNK7CyberCore9FrameView17wasScrolledByUserEv
__ZN7CyberCore9FrameView16restoreScrollbarEv
__ZN7CyberCore11FrameLoader34scrollToFragmentWithParentBoundaryERKNS_4KURLE
__ZN7CyberCore9FrameView16scrollToFragmentERKNS_4KURLE
__ZN7CyberCore15ProgressTracker17progressCompletedEPNS_5FrameE
__ZN7CyberCore15ProgressTracker21finalProgressCompleteEv
__ZNK7CyberCore15ProgressTracker17estimatedProgressEv
__ZN7CyberCore14TileController18clipsToExposedRectEv
__ZN7CyberCore24InspectorInstrumentation23frameStoppedLoadingImplEPNS_19InstrumentingAgentsEPNS_5FrameE
__ZN7CyberCore19InspectorController5closeEv
__ZNK7CyberCore12RenderObject5themeEv
__ZNK7CyberCore14RenderThemeMac20supportsControlTintsEv
__ZN7CyberCore9FrameView17paintControlTintsEv
__ZN7CyberCore15GraphicsContext23setUpdatingControlTintsEb
__ZN7CyberCore10ScrollView5paintEPNS_15GraphicsContextERKNS_7IntRectE
__ZNK7CyberCore15GraphicsContext20updatingControlTintsEv
__ZNK7CyberCore9FrameView34notifyPageThatContentAreaWillPaintEv
__ZNK7CyberCore14ScrollableArea20contentAreaWillPaintEv
__ZN7CyberCore15GraphicsContext4saveEv
__ZN7CyberCore15GraphicsContext9translateEff
__ZN7CyberCore15GraphicsContext4clipERKNS_7IntRectE
__ZN7CyberCore15GraphicsContext4clipERKNS_9FloatRectE
__ZN7CyberCore9FrameView13paintContentsEPNS_15GraphicsContextERKNS_7IntRectE
__ZN7CyberCore24DocumentMarkerController39invalidateRenderedRectsForMarkersInRectERKNS_10LayoutRectE
__ZN7CyberCore11RenderLayer5paintEPNS_15GraphicsContextERKNS_10LayoutRectEjPNS_12RenderObjectEPNS_12RenderRegionEj
__ZN7CyberCore16enclosingIntRectERKNS_10LayoutRectE
__ZN7CyberCore11RenderLayer10paintLayerEPNS_15GraphicsContextERKNS0_17LayerPaintingInfoEj
__ZNK7CyberCore4Node12namespaceURIEv
__ZN7CyberCore11RenderLayer18paintLayerContentsEPNS_15GraphicsContextERKNS0_17LayerPaintingInfoEj
__ZN7CyberCore11RenderLayer29setupFontSubpixelQuantizationEPNS_15GraphicsContextERb
__ZN7CyberCore11RenderLayer13setupClipPathEPNS_15GraphicsContextERKNS0_17LayerPaintingInfoERKNS_11LayoutPointERNS_7IntRectERb
__ZN7CyberCore11RenderLayer12setupFiltersEPNS_15GraphicsContextERNS0_17LayerPaintingInfoEjRKNS_11LayoutPointERNS_7IntRectERb
__ZNK7CyberCore11RenderLayer11boundingBoxEPKS0_jPKNS_11LayoutPointE
__ZNK7CyberCore11RenderLayer16localBoundingBoxEj
__ZN7CyberCore11RenderLayer16collectFragmentsERN3WTF6VectorINS_13LayerFragmentELm1ENS1_15CrashOnOverflowEEEPKS0_PNS_12RenderRegionERKNS_10LayoutRectENS_13ClipRectsTypeENS_29OverlayScrollbarSizeRelevancyENS_25ShouldRespectOverflowClipEPKNS_11LayoutPointEPSC_
__ZNK7CyberCore11RenderLayer14calculateRectsERKNS0_16ClipRectsContextERKNS_10LayoutRectERS4_RNS_8ClipRectES9_S9_PKNS_11LayoutPointE
__ZNK7CyberCore11RenderLayer20intersectsDamageRectERKNS_10LayoutRectES3_PKS0_PKNS_11LayoutPointE
__ZN7CyberCore11RenderLayer27paintBackgroundForFragmentsERKN3WTF6VectorINS_13LayerFragmentELm1ENS1_15CrashOnOverflowEEEPNS_15GraphicsContextES9_RKNS_10LayoutRectEbRKNS0_17LayerPaintingInfoEjPNS_12RenderObjectE
__ZN7CyberCore11RenderLayer10clipToRectEPS0_PNS_15GraphicsContextERKNS_10LayoutRectERKNS_8ClipRectENS_24BorderRadiusClippingRuleE
__ZN7CyberCore10RenderView5paintERNS_9PaintInfoERKNS_11LayoutPointE
__ZN7CyberCore11RenderBlock11paintObjectERNS_9PaintInfoERKNS_11LayoutPointE
__ZN7CyberCore10RenderView19paintBoxDecorationsERNS_9PaintInfoERKNS_11LayoutPointE
__ZN7CyberCore11RenderLayer9paintListEPN3WTF6VectorIPS0_Lm0ENS1_15CrashOnOverflowEEEPNS_15GraphicsContextERKNS0_17LayerPaintingInfoEj
__ZN7CyberCore11RenderLayer27paintForegroundForFragmentsERKN3WTF6VectorINS_13LayerFragmentELm1ENS1_15CrashOnOverflowEEEPNS_15GraphicsContextES9_RKNS_10LayoutRectEbRKNS0_17LayerPaintingInfoEjPNS_12RenderObjectEbb
__ZN7CyberCore11RenderLayer36paintForegroundForFragmentsWithPhaseENS_10PaintPhaseERKN3WTF6VectorINS_13LayerFragmentELm1ENS2_15CrashOnOverflowEEEPNS_15GraphicsContextERKNS0_17LayerPaintingInfoEjPNS_12RenderObjectE
__ZN7CyberCore11RenderBlock13paintContentsERNS_9PaintInfoERKNS_11LayoutPointE
__ZN7CyberCore11RenderBlock13paintChildrenERNS_9PaintInfoERKNS_11LayoutPointES2_b
__ZN7CyberCore11RenderBlock10paintChildEPNS_9RenderBoxERNS_9PaintInfoERKNS_11LayoutPointES4_b
__ZNK7CyberCore9RenderBox26flipForWritingModeForChildEPKS0_RKNS_11LayoutPointE
__ZN7CyberCore11RenderBlock14paintSelectionERNS_9PaintInfoERKNS_11LayoutPointE
__ZNK7CyberCore11RenderBlock24shouldPaintSelectionGapsEv
__ZN7CyberCore11RenderBlock11paintFloatsERNS_9PaintInfoERKNS_11LayoutPointEb
__ZN7CyberCore11RenderBlock10paintCaretERNS_9PaintInfoERKNS_11LayoutPointENS_9CaretTypeE
__ZNK7CyberCore14FrameSelection13caretRendererEv
__ZNK7CyberCore16VisibleSelection18rendererIsEditableEv
__ZN7CyberCore18isEditablePositionERKNS_8PositionENS_12EditableTypeENS_12EUpdateStyleE
__ZNK7CyberCore19DragCaretController13caretRendererEv
__ZN7CyberCore11RenderBlock25paintContinuationOutlinesERNS_9PaintInfoERKNS_11LayoutPointE
__ZN7CyberCore11RenderLayer24paintOutlineForFragmentsERKN3WTF6VectorINS_13LayerFragmentELm1ENS1_15CrashOnOverflowEEEPNS_15GraphicsContextERKNS0_17LayerPaintingInfoEjPNS_12RenderObjectE
__ZNK7CyberCore12RenderObject20hasOutlineAnnotationEv
__ZNK7CyberCore7Element12namespaceURIEv
__ZNK7CyberCore11RenderLayer18backgroundClipRectERKNS0_16ClipRectsContextE
__ZNK7CyberCore11RenderLayer15parentClipRectsERKNS0_16ClipRectsContextERNS_9ClipRectsE
__ZNK7CyberCore11RenderLayer18calculateClipRectsERKNS0_16ClipRectsContextERNS_9ClipRectsE
__ZN7CyberCore10LayoutRect9intersectERKS0_
__ZN7CyberCore11RenderBlock5paintERNS_9PaintInfoERKNS_11LayoutPointE
__ZN7CyberCore9RenderBox16pushContentsClipERNS_9PaintInfoERKNS_11LayoutPointE
__ZN7CyberCore9RenderBox19paintBoxDecorationsERNS_9PaintInfoERKNS_11LayoutPointE
__ZNK7CyberCore9RenderBox21borderBoxRectInRegionEPNS_12RenderRegionENS0_24RenderBoxRegionInfoFlagsE
__ZNK7CyberCore9RenderBox33determineBackgroundBleedAvoidanceEPNS_15GraphicsContextE
__ZNK7CyberCore20RenderBoxModelObject36boxShadowShouldBeAppliedToBackgroundENS_24BackgroundBleedAvoidanceEPNS_13InlineFlowBoxE
__ZN7CyberCore20RenderBoxModelObject14paintBoxShadowERKNS_9PaintInfoERKNS_10LayoutRectEPKNS_11RenderStyleENS_11ShadowStyleEbb
__ZN7CyberCore9RenderBox15paintBackgroundERKNS_9PaintInfoERKNS_10LayoutRectENS_24BackgroundBleedAvoidanceE
__ZN7CyberCore9RenderBox22paintRootBoxFillLayersERKNS_9PaintInfoE
__ZNK7CyberCore10RenderView14backgroundRectEPNS_9RenderBoxE
__ZN7CyberCore9RenderBox15paintFillLayersERKNS_9PaintInfoERKNS_5ColorEPKNS_9FillLayerERKNS_10LayoutRectENS_24BackgroundBleedAvoidanceENS_17CompositeOperatorEPNS_12RenderObjectE
__ZNK7CyberCore9FillLayer22clipOccludesNextLayersEb
__ZNK7CyberCore9FillLayer14computeClipMaxEv
__ZNK7CyberCore9FillLayer14hasOpaqueImageEPKNS_12RenderObjectE
__ZN7CyberCore20RenderBoxModelObject22paintFillLayerExtendedERKNS_9PaintInfoERKNS_5ColorEPKNS_9FillLayerERKNS_10LayoutRectENS_24BackgroundBleedAvoidanceEPNS_13InlineFlowBoxERKNS_10LayoutSizeENS_17CompositeOperatorEPNS_12RenderObjectE
__ZNK7CyberCore9RenderBox29overflowRectForPaintRejectionEv
__ZNK7CyberCore12RenderObject18maximalOutlineSizeENS_10PaintPhaseE
__ZNK7CyberCore10LayoutRect10intersectsERKS0_
__ZNK7CyberCore17RenderLineBoxList5paintEPNS_20RenderBoxModelObjectERNS_9PaintInfoERKNS_11LayoutPointE
__ZN7CyberCore15GraphicsContext7restoreEv
__ZThn64_NK7CyberCore9FrameView21layerForOverhangAreasEv
__ZNK7CyberCore11HistoryItem3urlEv
__ZNK7CyberCore11HistoryItem11originalURLEv
__ZN7CyberCore4Page16setDefersLoadingEb
__ZN7CyberCore11FrameLoader16setDefersLoadingEb
__ZN7CyberCore14DocumentLoader16setDefersLoadingEb
__ZN7CyberCoreL19setAllDefersLoadingERKN3WTF7HashSetINS0_6RefPtrINS_14ResourceLoaderEEENS0_7PtrHashIS4_EENS0_10HashTraitsIS4_EEEEb
__ZN7CyberCore17HistoryController16setDefersLoadingEb
__ZN7CyberCore21ResourceLoadScheduler32notifyDidScheduleResourceRequestEPNS_14ResourceLoaderE
__ZN7CyberCore4Page22allVisitedStateChangedEPNS_9PageGroupE
__ZN7CyberCore16VisitedLinkState26invalidateStyleForAllLinksEv
-[WebTileLayer drawInContext:]
__ZN7CyberCore4Page19visitedStateChangedEPNS_9PageGroupEy
__ZN7CyberCore16VisitedLinkState22invalidateStyleForLinkEy
__ZN7CyberCore14ResourceLoader16setDefersLoadingEb
__ZN7CyberCore5TimerINS_23ScrollingCoordinatorMacEE5firedEv
__ZN7CyberCore23ScrollingCoordinatorMac37scrollingStateTreeCommitterTimerFiredEPNS_5TimerIS0_EE
__ZN7CyberCore23ScrollingCoordinatorMac15commitTreeStateEv
__ZN7CyberCore18ScrollingStateTree6commitEv
__ZN3WTF10PassOwnPtrIN7CyberCore18ScrollingStateTreeEED2Ev
__ZN7CyberCore18ScrollingStateNode13cloneAndResetEv
__ZN7CyberCore27ScrollingStateScrollingNode5cloneEv
__ZN7CyberCore27ScrollingStateScrollingNodeC2ERKS0_
__ZN7CyberCore18ScrollingStateNodeC2ERKS0_
__ZNK7CyberCore18ScrollingStateNode19platformScrollLayerEv
__ZN7CyberCore18ScrollingStateNode22setScrollPlatformLayerEP7CALayer
__ZN7CyberCore6Region5ShapeC2ERKS1_
__ZN7CyberCore18ScrollingStateNode21cloneAndResetChildrenEPS0_
__ZN3WTF6OwnPtrIN7CyberCore18ScrollingStateTreeEED2Ev
__ZN7CyberCore14TileController26setScrollingModeIndicationENS_23ScrollingModeIndicationE
__ZN3WTF15FunctionWrapperIMN7CyberCore13ScrollingTreeEFvNS_10PassOwnPtrINS1_18ScrollingStateTreeEEEEEclEPS2_S5_
__ZN7CyberCore5TimerINS_14TileControllerEE5firedEv
__ZN7CyberCore14TileController26tileRevalidationTimerFiredEPNS_5TimerIS0_EE
__ZN7CyberCore13ScrollingTree18commitNewTreeStateEN3WTF10PassOwnPtrINS_18ScrollingStateTreeEEE
__ZN3WTF6VectorIiLm32ENS_15CrashOnOverflowEEaSERKS2_
__ZN3WTF6VectorIN7CyberCore6Region4SpanELm16ENS_15CrashOnOverflowEEaSERKS5_
__ZN7CyberCore13ScrollingTree20removeDestroyedNodesEPNS_18ScrollingStateTreeE
__ZN7CyberCore13ScrollingTree23updateTreeFromStateNodeEPNS_18ScrollingStateNodeE
__ZN7CyberCore26ScrollingTreeScrollingNode6createEPNS_13ScrollingTreeEy
__ZN7CyberCore29ScrollingTreeScrollingNodeMacC2EPNS_13ScrollingTreeEy
__ZN7CyberCore26ScrollingTreeScrollingNodeC2EPNS_13ScrollingTreeEy
-[CyberCoreResourceHandleAsOperationQueueDelegate .cxx_construct]
-[CyberCoreResourceHandleAsOperationQueueDelegate initWithHandle:]
__ZN7CyberCore17ScrollingTreeNodeC2EPNS_13ScrollingTreeEy
__ZN7CyberCore29ScrollingTreeScrollingNodeMac20updateBeforeChildrenEPNS_18ScrollingStateNodeE
__ZN7CyberCore26ScrollingTreeScrollingNode20updateBeforeChildrenEPNS_18ScrollingStateNodeE
__ZN7CyberCore8Document28takeAnyMediaCanStartListenerEv
__ZN7CyberCore29ScrollingTreeScrollingNodeMac19updateAfterChildrenEPNS_18ScrollingStateNodeE
__ZN7CyberCore29ScrollingTreeScrollingNodeMac23updateMainFramePinStateERKNS_8IntPointE
__ZN7CyberCore13ScrollingTree21scrollPinningBehaviorEv
__ZNK7CyberCore29ScrollingTreeScrollingNodeMac21maximumScrollPositionEv
__ZN7CyberCore13ScrollingTree20setMainFramePinStateEbbbb
__ZN7CyberCore18ScrollingStateTreeD1Ev
__ZN7CyberCore11JSDOMWindow13visitChildrenEPN3JSC6JSCellERNS1_11SlotVisitorE
__ZN7CyberCore17JSDOMGlobalObject13visitChildrenEPN3JSC6JSCellERNS1_11SlotVisitorE
__ZN7CyberCore21EventListenerIteratorC1EPNS_11EventTargetE
__ZN7CyberCore21EventListenerIterator12nextListenerEv
__ZN3WTF9HashTableIPvS1_NS_17IdentityExtractorENS_7PtrHashIS1_EENS_10HashTraitsIS1_EES6_E3addINS_22IdentityHashTranslatorIS4_EES1_S1_EENS_18HashTableAddResultINS_17HashTableIteratorIS1_S1_S2_S4_S6_S6_EEEERKT0_RKT1_
__ZN3WTF9HashTableIPvS1_NS_17IdentityExtractorENS_7PtrHashIS1_EENS_10HashTraitsIS1_EES6_E6rehashEi
__ZN7CyberCore6JSNode13visitChildrenEPN3JSC6JSCellERNS1_11SlotVisitorE
-[CyberCoreResourceHandleAsOperationQueueDelegate connection:willSendRequest:redirectResponse:]
-[CyberCoreResourceHandleAsOperationQueueDelegate connectionShouldUseCredentialStorage:]
___copy_helper_block_5
___86-[CyberCoreResourceHandleAsOperationQueueDelegate connectionShouldUseCredentialStorage:]_block_invoke
__ZN7CyberCore14ResourceHandle34continueShouldUseCredentialStorageEb
-[CyberCoreResourceHandleAsOperationQueueDelegate continueShouldUseCredentialStorage:]
___destroy_helper_block_6
-[CyberCoreResourceHandleAsOperationQueueDelegate connection:didReceiveResponse:]
___copy_helper_block_37
___79-[CyberCoreResourceHandleAsOperationQueueDelegate connection:didReceiveResponse:]_block_invoke
___destroy_helper_block_38
__ZN7CyberCore16ResourceResponse19setCertificateChainEPK9__CFArray
__ZN7CyberCore13PolicyChecker18checkContentPolicyERKNS_16ResourceResponseEPFvPvNS_12PolicyActionEES4_
__ZN7CyberCore14PolicyCallback3setEPFvPvNS_12PolicyActionEES1_
__ZN7CyberCore16MIMETypeRegistry15canShowMIMETypeERKN3WTF6StringE
__ZN7CyberCore16MIMETypeRegistry24isSupportedImageMIMETypeERKN3WTF6StringE
__ZN7CyberCore13PolicyChecker26continueAfterContentPolicyENS_12PolicyActionE
__ZN7CyberCore14PolicyCallback4callENS_12PolicyActionE
__ZN7CyberCore14DocumentLoader30callContinueAfterContentPolicyEPvNS_12PolicyActionE
__ZN7CyberCore14DocumentLoader26continueAfterContentPolicyENS_12PolicyActionE
__ZNK7CyberCore20ResourceResponseBase6isHTTPEv
__ZN7CyberCore14ResourceLoader18didReceiveResponseERKNS_16ResourceResponseE
__ZN7CyberCore20ResourceLoadNotifier18didReceiveResponseEPNS_14ResourceLoaderERKNS_16ResourceResponseE
__ZN7CyberCore14DocumentLoader11addResponseERKNS_16ResourceResponseE
__ZN3WTF6VectorIN7CyberCore16ResourceResponseELm0ENS_15CrashOnOverflowEE14appendSlowCaseIS2_EEvRKT_
__ZN3WTF6VectorIN7CyberCore16ResourceResponseELm0ENS_15CrashOnOverflowEE14expandCapacityEmPKS2_
__ZN3WTF6VectorIN7CyberCore16ResourceResponseELm0ENS_15CrashOnOverflowEE15reserveCapacityEm
__ZN3WTF11VectorMoverILb0EN7CyberCore16ResourceResponseEE4moveEPKS2_S5_PS2_
__ZN7CyberCore15ProgressTracker17incrementProgressEmRKNS_16ResourceResponseE
__ZNK7CyberCore20ResourceResponseBase21expectedContentLengthEv
__ZN3WTF9HashTableImNS_12KeyValuePairImNS_6OwnPtrIN7CyberCore12ProgressItemEEEEENS_24KeyValuePairKeyExtractorIS6_EENS_7IntHashImEENS_18HashMapValueTraitsINS_10HashTraitsImEENSC_IS5_EEEESD_E16lookupForWritingINS_22IdentityHashTranslatorISA_EEmEENSt3__14pairIPS6_bEERKT0_
__ZN3WTF9HashTableImNS_12KeyValuePairImNS_6OwnPtrIN7CyberCore12ProgressItemEEEEENS_24KeyValuePairKeyExtractorIS6_EENS_7IntHashImEENS_18HashMapValueTraitsINS_10HashTraitsImEENSC_IS5_EEEESD_E3addINS_17HashMapTranslatorISF_SA_EEmNS_10PassOwnPtrIS4_EEEENS_18HashTableAddResultINS_17HashTableIteratorImS6_S8_SA_SF_SD_EEEERKT0_RKT1_
__ZN3WTF9HashTableImNS_12KeyValuePairImNS_6OwnPtrIN7CyberCore12ProgressItemEEEEENS_24KeyValuePairKeyExtractorIS6_EENS_7IntHashImEENS_18HashMapValueTraitsINS_10HashTraitsImEENSC_IS5_EEEESD_E6lookupINS_22IdentityHashTranslatorISA_EEmEEPS6_RKT0_
__ZN3WTF9HashTableImNS_12KeyValuePairImNS_6OwnPtrIN7CyberCore12ProgressItemEEEEENS_24KeyValuePairKeyExtractorIS6_EENS_7IntHashImEENS_18HashMapValueTraitsINS_10HashTraitsImEENSC_IS5_EEEESD_E6rehashEi
__ZN7CyberCore20ResourceLoadNotifier26dispatchDidReceiveResponseEPNS_14DocumentLoaderEmRKNS_16ResourceResponseEPNS_14ResourceLoaderE
__ZN7CyberCore24InspectorInstrumentation31willReceiveResourceResponseImplEPNS_19InstrumentingAgentsEmRKNS_16ResourceResponseEPNS_5FrameE
__ZN7CyberCore24InspectorInstrumentation30didReceiveResourceResponseImplERKNS_30InspectorInstrumentationCookieEmPNS_14DocumentLoaderERKNS_16ResourceResponseEPNS_14ResourceLoaderE
__ZN7CyberCore21InspectorConsoleAgent18didReceiveResponseEmRKNS_16ResourceResponseE
__ZN7CyberCore16PageConsoleAgent22developerExtrasEnabledEv
__ZN7CyberCore17SubresourceLoader27checkForHTTPStatusCodeErrorEv
__ZN7CyberCore14ResourceHandle26continueDidReceiveResponseEv
-[CyberCoreResourceHandleAsOperationQueueDelegate continueDidReceiveResponse]
-[CyberCoreResourceHandleAsOperationQueueDelegate connection:didReceiveData:lengthReceived:]
___copy_helper_block_41
___90-[CyberCoreResourceHandleAsOperationQueueDelegate connection:didReceiveData:lengthReceived:]_block_invoke
__ZN7CyberCore12SharedBuffer10wrapNSDataEP6NSData
__ZN7CyberCore12SharedBufferC1EPK8__CFData
-[CyberCoreResourceHandleAsOperationQueueDelegate connection:willCacheResponse:]
___copy_helper_block_73
__ZNK7CyberCore12SharedBuffer16platformDataSizeEv
__ZNK7CyberCore12SharedBuffer12platformDataEv
___destroy_helper_block_42
___78-[CyberCoreResourceHandleAsOperationQueueDelegate connection:willCacheResponse:]_block_invoke
__ZN7CyberCore17SubresourceLoader14didReceiveDataEPKcixNS_15DataPayloadTypeE
___destroy_helper_block_74
__ZN7CyberCore17SubresourceLoader22didReceiveDataOrBufferEPKciN3WTF10PassRefPtrINS_12SharedBufferEEExNS_15DataPayloadTypeE
__ZN7CyberCore14ResourceLoader22didReceiveDataOrBufferEPKciN3WTF10PassRefPtrINS_12SharedBufferEEExNS_15DataPayloadTypeE
__ZN7CyberCore14ResourceLoader15addDataOrBufferEPKciPNS_12SharedBufferENS_15DataPayloadTypeE
__ZN7CyberCore14ResourceBufferC1EPKci
-[CyberCoreResourceHandleAsOperationQueueDelegate connectionDidFinishLoading:]
___copy_helper_block_56
___76-[CyberCoreResourceHandleAsOperationQueueDelegate connectionDidFinishLoading:]_block_invoke
__ZN7CyberCore20ResourceLoadNotifier14didReceiveDataEPNS_14ResourceLoaderEPKcii
__ZN7CyberCore15ProgressTracker17incrementProgressEmPKci
__ZNK7CyberCore11FrameLoader27numPendingOrLoadingRequestsEb
__ZN7CyberCore24InspectorInstrumentation18didReceiveDataImplEPNS_19InstrumentingAgentsEmPKcii
__ZN7CyberCore17CachedRawResource13addDataBufferEPNS_14ResourceBufferE
__ZNK7CyberCore14ResourceBuffer4sizeEv
__ZNK7CyberCore14ResourceBuffer4dataEv
__ZN7CyberCore14CachedResource14setEncodedSizeEj
__ZN7CyberCore14ResourceHandleD0Ev
__ZN7CyberCore11MemoryCache17removeFromLRUListEPNS_14CachedResourceE
__ZN7CyberCore14ResourceHandleD2Ev
__ZN7CyberCore11MemoryCache15insertInLRUListEPNS_14CachedResourceE
__ZN7CyberCore11MemoryCache10adjustSizeEbi
-[CyberCoreResourceHandleAsOperationQueueDelegate detachHandle]
__ZN7CyberCore17CachedRawResource28notifyClientsDataWasReceivedEPKcj
__ZN7CyberCore23AuthenticationChallenge23setAuthenticationClientEPNS_20AuthenticationClientE
__ZN7CyberCore14DocumentLoader12dataReceivedEPNS_14CachedResourceEPKci
__ZN7CyberCore20ApplicationCacheHost24mainResourceDataReceivedEPKcixb
__ZN7CyberCore22ResourceHandleInternalD2Ev
__ZN7CyberCore14DocumentLoader10commitLoadEPKci
__ZN7CyberCore22ScriptExecutionContext26canSuspendActiveDOMObjectsEv
__ZThn48_NK7CyberCore16SuspendableTimer10canSuspendEv
__ZN7CyberCore20ApplicationCacheHost19canCacheInPageCacheEv
__ZN7CyberCore21BackForwardController8isActiveEv
__ZN7CyberCore9PageCache3addEN3WTF10PassRefPtrINS_11HistoryItemEEEPNS_4PageE
__ZN7CyberCore10CachedPage6createEPNS_4PageE
__ZN7CyberCore11CachedFrameC1EPNS_5FrameE
__ZN7CyberCore11CachedFrameC2EPNS_5FrameE
__ZN7CyberCore15CachedFrameBaseC2EPNS_5FrameE
__ZNK7CyberCore12EventHandler14mousePressNodeEv
__ZNK7CyberCore9FrameView20hasCompositedContentEv
__ZN7CyberCore8Document14setInPageCacheEb
__ZN7CyberCore9FrameView35resetScrollbarsAndClearContentsSizeEv
__ZN7CyberCore23ScrollingCoordinatorMac14clearStateTreeEv
__ZN7CyberCore18ScrollingStateTree5clearEv
__ZN7CyberCore8Document31documentWillSuspendForPageCacheEv
__ZN7CyberCore8Document23suspendActiveDOMObjectsENS_15ActiveDOMObject19ReasonForSuspensionE
__ZN7CyberCore22ScriptExecutionContext23suspendActiveDOMObjectsENS_15ActiveDOMObject19ReasonForSuspensionE
__ZThn48_N7CyberCore16SuspendableTimer7suspendENS_15ActiveDOMObject19ReasonForSuspensionE
__ZN7CyberCore21ScriptCachedFrameDataC1EPNS_5FrameE
__ZN7CyberCore21ScriptCachedFrameDataC2EPNS_5FrameE
__ZN3JSC6StrongIN7CyberCore11JSDOMWindowEEC2ERNS_2VMEPS2_
__ZN3WTF9HashTableINS_6RefPtrIN7CyberCore15DOMWrapperWorldEEENS_12KeyValuePairIS4_N3JSC6StrongINS2_11JSDOMWindowEEEEENS_24KeyValuePairKeyExtractorISA_EENS_7PtrHashIS4_EENS_22KeyValuePairHashTraitsINS_10HashTraitsIS4_EENSG_IS9_EEEESH_E15deallocateTableEPSA_i
__ZN3WTF9HashTableINS_6RefPtrIN7CyberCore15DOMWrapperWorldEEENS_12KeyValuePairIS4_N3JSC6StrongINS2_11JSDOMWindowEEEEENS_24KeyValuePairKeyExtractorISA_EENS_7PtrHashIS4_EENS_22KeyValuePairHashTraitsINS_10HashTraitsIS4_EENSG_IS9_EEEESH_E16lookupForWritingINS_22IdentityHashTranslatorISE_EES4_EENSt3__14pairIPSA_bEERKT0_
__ZN3WTF9HashTableINS_6RefPtrIN7CyberCore15DOMWrapperWorldEEENS_12KeyValuePairIS4_N3JSC6StrongINS2_11JSDOMWindowEEEEENS_24KeyValuePairKeyExtractorISA_EENS_7PtrHashIS4_EENS_22KeyValuePairHashTraitsINS_10HashTraitsIS4_EENSG_IS9_EEEESH_E3addINS_17HashMapTranslatorISJ_SE_EEPS3_S9_EENS_18HashTableAddResultINS_17HashTableIteratorIS4_SA_SC_SE_SJ_SH_EEEERKT0_RKT1_
__ZN3WTF9HashTableINS_6RefPtrIN7CyberCore15DOMWrapperWorldEEENS_12KeyValuePairIS4_N3JSC6StrongINS2_11JSDOMWindowEEEEENS_24KeyValuePairKeyExtractorISA_EENS_7PtrHashIS4_EENS_22KeyValuePairHashTraitsINS_10HashTraitsIS4_EENSG_IS9_EEEESH_E6lookupINS_17HashMapTranslatorISJ_SE_EEPS3_EEPSA_RKT0_
__ZN3WTF9HashTableINS_6RefPtrIN7CyberCore15DOMWrapperWorldEEENS_12KeyValuePairIS4_N3JSC6StrongINS2_11JSDOMWindowEEEEENS_24KeyValuePairKeyExtractorISA_EENS_7PtrHashIS4_EENS_22KeyValuePairHashTraitsINS_10HashTraitsIS4_EENSG_IS9_EEEESH_E6lookupINS_22IdentityHashTranslatorISE_EES4_EEPSA_RKT0_
__ZN3WTF9HashTableINS_6RefPtrIN7CyberCore15DOMWrapperWorldEEENS_12KeyValuePairIS4_N3JSC6StrongINS2_11JSDOMWindowEEEEENS_24KeyValuePairKeyExtractorISA_EENS_7PtrHashIS4_EENS_22KeyValuePairHashTraitsINS_10HashTraitsIS4_EENSG_IS9_EEEESH_E6rehashEi
__ZN3JSC6StrongIN7CyberCore11JSDOMWindowEEaSERKS3_
__ZN7CyberCore16ScriptController14attachDebuggerEPN3JSC8DebuggerE
__ZN7CyberCore9DOMWindow19suspendForPageCacheEv
__ZN3WTF6VectorIPN7CyberCore17DOMWindowPropertyELm0ENS_15CrashOnOverflowEE15reserveCapacityEm
__ZN7CyberCore17DOMWindowProperty27disconnectFrameForPageCacheEv
__ZN7CyberCore27AuthenticationChallengeBaseD2Ev
__ZN7CyberCore5Frame11clearTimersEv
__ZN7CyberCore19AnimationController28suspendAnimationsForDocumentEPNS_8DocumentE
__ZN7CyberCore12EventHandler19stopAutoscrollTimerEb
___destroy_helper_block_57
__ZN7CyberCore20AutoscrollController19stopAutoscrollTimerEb
-[CyberCoreResourceHandleAsOperationQueueDelegate dealloc]
-[CyberCoreResourceHandleAsOperationQueueDelegate .cxx_destruct]
__ZNK7CyberCore11HistoryItem17isCurrentDocumentEPNS_8DocumentE
__ZNK7CyberCore8Document17formElementsStateEv
__ZN7CyberCore11HistoryItem16setDocumentStateERKN3WTF6VectorINS1_6StringELm0ENS1_15CrashOnOverflowEEE
__ZN7CyberCore11HistoryItem14setScrollPointERKNS_8IntPointE
__ZN7CyberCore11HistoryItem18setPageScaleFactorEf
__ZNK7CyberCore14SecurityOrigin8toStringEv
__ZN3WTF9HashTableIPN7CyberCore26PageActivityAssertionTokenES3_NS_17IdentityExtractorENS_7PtrHashIS3_EENS_10HashTraitsIS3_EES8_E16lookupForWritingINS_22IdentityHashTranslatorIS6_EES3_EENSt3__14pairIPS3_bEERKT0_
__ZN7CyberCore14ArchiveFactory17isArchiveMimeTypeERKN3WTF6StringE
__ZN7CyberCore24InspectorInstrumentation24frameWindowDiscardedImplEPNS_19InstrumentingAgentsEPNS_9DOMWindowE
__ZN7CyberCore21InspectorConsoleAgent20frameWindowDiscardedEPNS_9DOMWindowE
__ZN7CyberCore21InjectedScriptManager25discardInjectedScriptsForEPNS_9DOMWindowE
__ZN7CyberCore9DOMWindow32resetUnlessSuspendedForPageCacheEv
__ZN7CyberCore16ScriptController16clearWindowShellEPNS_9DOMWindowEb
__ZN7CyberCore15JSDOMWindowBase25willRemoveFromWindowShellEv
__ZN7CyberCore17JSDOMGlobalObject15setCurrentEventEPNS_5EventE
__ZN7CyberCore16ScriptController18clearScriptObjectsEv
__ZNK7CyberCore21UserContentURLPattern11matchesHostERKNS_4KURLE
__ZN7CyberCore19TextResourceDecoder11setEncodingERKNS_12TextEncodingENS0_14EncodingSourceE
__ZN7CyberCore19TextResourceDecoder6decodeEPKcm
__ZN7CyberCore19TextResourceDecoder11checkForBOMEPKcm
__ZN7CyberCore19TextResourceDecoder19checkForHeadCharsetEPKcmRb
__ZN7CyberCore13TextCodecUTF86createERKNS_12TextEncodingEPKv
__ZN7CyberCore13TextCodecUTF86decodeEPKcmbbRb
__ZN7CyberCore14DocumentWriter18reportDataReceivedEv
__ZNK7CyberCore12TextEncoding18usesVisualOrderingEv
__ZN7CyberCore18HTMLDocumentParser6appendEN3WTF10PassRefPtrINS1_10StringImplEEE
__ZN7CyberCore17URLEscapeSequence12findEndOfRunERKN3WTF6StringEmm
__ZN7CyberCore17URLEscapeSequence9decodeRunEPKtmRKNS_12TextEncodingE
__ZNK7CyberCore12TextEncoding6decodeEPKcmbRb
__ZN7CyberCore13TextCodecUTF8D0Ev
__ZN7CyberCore15SegmentedString15lookAheadInlineERKN3WTF6StringEb
__ZN7CyberCore9HTMLToken12beginDOCTYPEEt
__ZN3WTF6OwnPtrIN7CyberCore11DoctypeDataEEaSERKNS_10PassOwnPtrIS2_EE
__ZN3WTF10PassOwnPtrIN7CyberCore11DoctypeDataEED2Ev
__ZN7CyberCore13HTMLTokenizer15emitAndResumeInERNS_15SegmentedStringENS0_5StateE
__ZN7CyberCore20HTMLConstructionSite13insertDoctypeEPNS_15AtomicHTMLTokenE
__ZN7CyberCore12DocumentTypeC1EPNS_8DocumentERKN3WTF6StringES6_S6_
__ZN7CyberCore12DocumentTypeC2EPNS_8DocumentERKN3WTF6StringES6_S6_
__ZN7CyberCore20HTMLConstructionSite31setCompatibilityModeFromDoctypeERKN3WTF6StringES4_S4_
__ZN7CyberCore12DocumentType12insertedIntoEPNS_13ContainerNodeE
__ZN7CyberCore4Node12insertedIntoEPNS_13ContainerNodeE
__ZN7CyberCore8Document10setDocTypeEN3WTF10PassRefPtrINS_12DocumentTypeEEE
__ZN7CyberCore4Node20beginParsingChildrenEv
__ZN7CyberCore9HTMLToken13beginStartTagEt
__ZN7CyberCore9HTMLToken15addNewAttributeEv
__ZN3WTF6VectorItLm32ENS_15CrashOnOverflowEE14expandCapacityEmPKt
__ZN3WTF6VectorItLm32ENS_15CrashOnOverflowEE15reserveCapacityEm
__ZN3WTF6VectorItLm32ENS_15CrashOnOverflowEEaSILm256ES1_EERS2_RKNS0_ItXT_ET0_EE
__ZN7CyberCore15AtomicHTMLToken20initializeAttributesERKN3WTF6VectorINS_9HTMLToken9AttributeELm10ENS1_15CrashOnOverflowEEE
__ZN3WTF6VectorIN7CyberCore9AttributeELm0ENS_15CrashOnOverflowEE14shrinkCapacityEm
__ZNK7CyberCore15AtomicHTMLToken16nameForAttributeERKNS_9HTMLToken9AttributeE
__ZN7CyberCore24DocumentSharedObjectPool40cachedShareableElementDataWithAttributesERKN3WTF6VectorINS_9AttributeELm0ENS1_15CrashOnOverflowEEE
__ZN3WTF9HashTableIjNS_12KeyValuePairIjNS_6OwnPtrIN7CyberCore30ShareableElementDataCacheEntryEEEEENS_24KeyValuePairKeyExtractorIS6_EENS_13AlreadyHashedENS_18HashMapValueTraitsINS_10HashTraitsIjEENSB_IS5_EEEESC_E3addINS_17HashMapTranslatorISE_S9_EEjNS_10PassOwnPtrIS4_EEEENS_18HashTableAddResultINS_17HashTableIteratorIjS6_S8_S9_SE_SC_EEEERKT0_RKT1_
__ZN3WTF9HashTableIjNS_12KeyValuePairIjNS_6OwnPtrIN7CyberCore30ShareableElementDataCacheEntryEEEEENS_24KeyValuePairKeyExtractorIS6_EENS_13AlreadyHashedENS_18HashMapValueTraitsINS_10HashTraitsIjEENSB_IS5_EEEESC_E4findINS_22IdentityHashTranslatorIS9_EEjEENS_17HashTableIteratorIjS6_S8_S9_SE_SC_EERKT0_
__ZN3WTF9HashTableIjNS_12KeyValuePairIjNS_6OwnPtrIN7CyberCore30ShareableElementDataCacheEntryEEEEENS_24KeyValuePairKeyExtractorIS6_EENS_13AlreadyHashedENS_18HashMapValueTraitsINS_10HashTraitsIjEENSB_IS5_EEEESC_E6rehashEi
__ZN7CyberCore20ShareableElementData20createWithAttributesERKN3WTF6VectorINS_9AttributeELm0ENS1_15CrashOnOverflowEEE
__ZN7CyberCore13StyledElement16attributeChangedERKNS_13QualifiedNameERKN3WTF12AtomicStringENS_7Element27AttributeModificationReasonE
__ZNK7CyberCore11HTMLElement23isPresentationAttributeERKNS_13QualifiedNameE
__ZN7CyberCore7Element16attributeChangedERKNS_13QualifiedNameERKN3WTF12AtomicStringENS0_27AttributeModificationReasonE
__ZN7CyberCore11HTMLElement14parseAttributeERKNS_13QualifiedNameERKN3WTF12AtomicStringE
__ZNK7CyberCore11HTMLElement25eventNameForAttributeNameERKNS_13QualifiedNameE
__ZN3WTF9HashTableINS_12AtomicStringENS_12KeyValuePairIS1_S1_EENS_24KeyValuePairKeyExtractorIS3_EENS_16AtomicStringHashENS_18HashMapValueTraitsINS_10HashTraitsIS1_EES9_EES9_E15deallocateTableEPS3_i
__ZN3WTF9HashTableINS_12AtomicStringENS_12KeyValuePairIS1_S1_EENS_24KeyValuePairKeyExtractorIS3_EENS_16AtomicStringHashENS_18HashMapValueTraitsINS_10HashTraitsIS1_EES9_EES9_E3addINS_17HashMapTranslatorISA_S6_EES1_S1_EENS_18HashTableAddResultINS_17HashTableIteratorIS1_S3_S5_S6_SA_S9_EEEERKT0_RKT1_
__ZN3WTF9HashTableINS_12AtomicStringENS_12KeyValuePairIS1_S1_EENS_24KeyValuePairKeyExtractorIS3_EENS_16AtomicStringHashENS_18HashMapValueTraitsINS_10HashTraitsIS1_EES9_EES9_E3addINS_22IdentityHashTranslatorIS6_EES1_S3_EENS_18HashTableAddResultINS_17HashTableIteratorIS1_S3_S5_S6_SA_S9_EEEERKT0_RKT1_
__ZN3WTF9HashTableINS_12AtomicStringENS_12KeyValuePairIS1_S1_EENS_24KeyValuePairKeyExtractorIS3_EENS_16AtomicStringHashENS_18HashMapValueTraitsINS_10HashTraitsIS1_EES9_EES9_E4findINS_22IdentityHashTranslatorIS6_EES1_EENS_17HashTableIteratorIS1_S3_S5_S6_SA_S9_EERKT0_
__ZN3WTF9HashTableINS_12AtomicStringENS_12KeyValuePairIS1_S1_EENS_24KeyValuePairKeyExtractorIS3_EENS_16AtomicStringHashENS_18HashMapValueTraitsINS_10HashTraitsIS1_EES9_EES9_E6rehashEi
__ZN3WTF17HashMapTranslatorINS_18HashMapValueTraitsINS_10HashTraitsINS_12AtomicStringEEES4_EENS_16AtomicStringHashEE9translateINS_12KeyValuePairIS3_S3_EES3_S3_EEvRT_RKT0_RKT1_
__ZN3WTF13hashTableSwapINS_12AtomicStringES1_EEvRNS_12KeyValuePairIT_T0_EES6_
__ZN7CyberCore4Node19setNeedsStyleRecalcENS_15StyleChangeTypeE
__ZN7CyberCore7Element21classAttributeChangedERKN3WTF12AtomicStringE
__ZN7CyberCore16SpaceSplitString3setERKN3WTF12AtomicStringEb
__ZN7CyberCore20SpaceSplitStringData6createERKN3WTF12AtomicStringE
__ZN3WTF9HashTableINS_12AtomicStringENS_12KeyValuePairIS1_PN7CyberCore20SpaceSplitStringDataEEENS_24KeyValuePairKeyExtractorIS6_EENS_16AtomicStringHashENS_18HashMapValueTraitsINS_10HashTraitsIS1_EENSB_IS5_EEEESC_E3addINS_17HashMapTranslatorISE_S9_EES1_S5_EENS_18HashTableAddResultINS_17HashTableIteratorIS1_S6_S8_S9_SE_SC_EEEERKT0_RKT1_
__ZN3WTF9HashTableINS_12AtomicStringENS_12KeyValuePairIS1_PN7CyberCore20SpaceSplitStringDataEEENS_24KeyValuePairKeyExtractorIS6_EENS_16AtomicStringHashENS_18HashMapValueTraitsINS_10HashTraitsIS1_EENSB_IS5_EEEESC_E4findINS_22IdentityHashTranslatorIS9_EES1_EENS_17HashTableIteratorIS1_S6_S8_S9_SE_SC_EERKT0_
__ZN3WTF9HashTableINS_12AtomicStringENS_12KeyValuePairIS1_PN7CyberCore20SpaceSplitStringDataEEENS_24KeyValuePairKeyExtractorIS6_EENS_16AtomicStringHashENS_18HashMapValueTraitsINS_10HashTraitsIS1_EENSB_IS5_EEEESC_E6rehashEi
__ZN3WTF9HashTableINS_12AtomicStringENS_12KeyValuePairIS1_PN7CyberCore20SpaceSplitStringDataEEENS_24KeyValuePairKeyExtractorIS6_EENS_16AtomicStringHashENS_18HashMapValueTraitsINS_10HashTraitsIS1_EENSB_IS5_EEEESC_E8reinsertERS6_
__ZN7CyberCore20SpaceSplitStringData12createVectorIhEEvPKT_j
__ZN3WTF9HashTableIjNS_12KeyValuePairIjNS_6OwnPtrIN7CyberCore20FontGlyphsCacheEntryEEEEENS_24KeyValuePairKeyExtractorIS6_EENS_13AlreadyHashedENS_18HashMapValueTraitsINS_10HashTraitsIjEENSB_IS5_EEEESC_E3addINS_17HashMapTranslatorISE_S9_EEjNS_10PassOwnPtrIS4_EEEENS_18HashTableAddResultINS_17HashTableIteratorIjS6_S8_S9_SE_SC_EEEERKT0_RKT1_
__ZN3WTF9HashTableIjNS_12KeyValuePairIjNS_6OwnPtrIN7CyberCore20FontGlyphsCacheEntryEEEEENS_24KeyValuePairKeyExtractorIS6_EENS_13AlreadyHashedENS_18HashMapValueTraitsINS_10HashTraitsIjEENSB_IS5_EEEESC_E4findINS_22IdentityHashTranslatorIS9_EEjEENS_17HashTableIteratorIjS6_S8_S9_SE_SC_EERKT0_
__ZN3WTF9HashTableIjNS_12KeyValuePairIjNS_6OwnPtrIN7CyberCore20FontGlyphsCacheEntryEEEEENS_24KeyValuePairKeyExtractorIS6_EENS_13AlreadyHashedENS_18HashMapValueTraitsINS_10HashTraitsIjEENSB_IS5_EEEESC_E6rehashEi
__ZNK7CyberCore16HTMLElementStack12topStackItemEv
__ZN3WTF6VectorIN7CyberCore9HTMLToken9AttributeELm10ENS_15CrashOnOverflowEE6shrinkEm
__ZN7CyberCore15HTMLTreeBuilder24processStartTagForInHeadEPNS_15AtomicHTMLTokenE
__ZN7CyberCore20HTMLConstructionSite19insertScriptElementEPNS_15AtomicHTMLTokenE
__ZN7CyberCore17HTMLScriptElement6createERKNS_13QualifiedNameEPNS_8DocumentEbb
__ZN7CyberCore13ScriptElementC2EPNS_7ElementEbb
__ZNK7CyberCore8Document24scriptableDocumentParserEv
__ZNK7CyberCore18HTMLDocumentParser10lineNumberEv
__ZN7CyberCore17HTMLScriptElement14parseAttributeERKNS_13QualifiedNameERKN3WTF12AtomicStringE
__ZN7CyberCore16HTMLElementStack4pushEN3WTF10PassRefPtrINS_13HTMLStackItemEEE
__ZNK7CyberCore18HTMLDocumentParser12textPositionEv
__ZNK7CyberCore15SegmentedString13currentColumnEv
__ZN7CyberCore17HTMLScriptElement12insertedIntoEPNS_13ContainerNodeE
__ZN7CyberCore13ScriptElement12insertedIntoEPNS_13ContainerNodeE
__ZN7CyberCore20NodeRenderingContext32elementInsideRegionNeedsRendererEv
__ZNK7CyberCore7Element14isInsideRegionEv
__ZN7CyberCore13HTMLTokenizer19flushBufferedEndTagERNS_15SegmentedStringE
__ZN7CyberCore15HTMLTreeBuilder22processCharacterBufferERNS0_28ExternalCharacterTokenBufferE
__ZN7CyberCore20HTMLConstructionSite14insertTextNodeERKN3WTF6StringENS_14WhitespaceModeE
__ZN7CyberCore4Text21createWithLengthLimitEPNS_8DocumentERKN3WTF6StringEjj
__ZN7CyberCore4TextC1EPNS_8DocumentERKN3WTF6StringENS_4Node16ConstructionTypeE
__ZN7CyberCore17HTMLScriptElement15childrenChangedEbPNS_4NodeES2_i
__ZN7CyberCore13ScriptElement15childrenChangedEv
__ZN7CyberCore4Text6attachERKNS_4Node13AttachContextE
__ZN7CyberCore20NodeRenderingContext29createRendererForTextIfNeededEv
__ZNK7CyberCore13HTMLTokenizer18bufferedCharactersEv
__ZN7CyberCore9HTMLToken11beginEndTagERKN3WTF6VectorIhLm32ENS1_15CrashOnOverflowEEE
__ZN3WTF6VectorItLm256ENS_15CrashOnOverflowEE6appendIhEEvPKT_m
__ZN7CyberCore16HTMLElementStack3popEv
__ZN7CyberCore19HTMLParserScheduler25checkForYieldBeforeScriptERNS_11PumpSessionE
__ZN7CyberCore8Document19isLayoutTimerActiveEv
__ZNK7CyberCore9FrameView13layoutPendingEv
__ZN7CyberCore18HTMLDocumentParser30runScriptsForPausedTreeBuilderEv
__ZN7CyberCore15HTMLTreeBuilder19takeScriptToProcessERN3WTF12TextPositionE
__ZN7CyberCore16HTMLScriptRunner7executeEN3WTF10PassRefPtrINS_7ElementEEERKNS1_12TextPositionE
__ZThn40_NK7CyberCore18HTMLDocumentParser17hasPreloadScannerEv
__ZN7CyberCore16HTMLScriptRunner9runScriptEPNS_7ElementERKN3WTF12TextPositionE
__ZN7CyberCore25toScriptElementIfPossibleEPNS_7ElementE
__ZN7CyberCore16MutationObserver19deliverAllMutationsEv
__ZThn40_N7CyberCore18HTMLDocumentParser11inputStreamEv
__ZN7CyberCore15HTMLInputStream9splitIntoERNS_15SegmentedStringE
__ZN7CyberCore15SegmentedString18setCurrentPositionEN3WTF13OrdinalNumberES2_i
__ZN7CyberCore13ScriptElement13prepareScriptERKN3WTF12TextPositionENS0_17LegacyTypeSupportE
__ZThn96_NK7CyberCore17HTMLScriptElement19asyncAttributeValueEv
__ZThn96_NK7CyberCore17HTMLScriptElement18hasSourceAttributeEv
__ZNK7CyberCore13ScriptElement21isScriptTypeSupportedENS0_17LegacyTypeSupportE
__ZThn96_NK7CyberCore17HTMLScriptElement18typeAttributeValueEv
__ZThn96_NK7CyberCore17HTMLScriptElement22languageAttributeValueEv
__ZN7CyberCore16MIMETypeRegistry29isSupportedJavaScriptMIMETypeERKN3WTF6StringE
__ZNK7CyberCore13ScriptElement25isScriptForEventSupportedEv
__ZThn96_NK7CyberCore17HTMLScriptElement19eventAttributeValueEv
__ZThn96_NK7CyberCore17HTMLScriptElement17forAttributeValueEv
__ZThn96_NK7CyberCore17HTMLScriptElement21charsetAttributeValueEv
__ZNK7CyberCore13ScriptElement13scriptContentEv
__ZN7CyberCore16ScriptSourceCodeC2ERKN3WTF6StringERKNS_4KURLERKNS1_12TextPositionE
__ZNK3JSC20StringSourceProvider6sourceEv
__ZN7CyberCore13ScriptElement13executeScriptERKNS_16ScriptSourceCodeE
__ZNK7CyberCore21ContentSecurityPolicy16allowScriptNonceERKN3WTF6StringES4_RKNS1_13OrdinalNumberERKNS_4KURLE
__ZNK7CyberCore21ContentSecurityPolicy17allowInlineScriptERKN3WTF6StringERKNS1_13OrdinalNumberENS0_15ReportingStatusE
__ZN7CyberCore16ScriptController8evaluateERKNS_16ScriptSourceCodeE
__ZN7CyberCore16ScriptController15evaluateInWorldERKNS_16ScriptSourceCodeEPNS_15DOMWrapperWorldE
__ZN7CyberCore15JSDOMWindowBase22supportsRichSourceInfoEPKN3JSC14JSGlobalObjectE
__ZNK7CyberCore19InspectorController7enabledEv
__ZN7CyberCore15JSDOMWindowBase17supportsProfilingEPKN3JSC14JSGlobalObjectE
__ZN7CyberCore19InspectorController15profilerEnabledEv
__ZN7CyberCore15jsDOMWindowSelfEPN3JSC9ExecStateENS0_7JSValueENS0_12PropertyNameE
__ZNK7CyberCore9DOMWindow4selfEv
__ZN7CyberCore4toJSEPN3JSC9ExecStateEPNS_17JSDOMGlobalObjectEPNS_9DOMWindowE
__ZN7CyberCore14jsDOMWindowTopEPN3JSC9ExecStateENS0_7JSValueENS0_12PropertyNameE
__ZNK7CyberCore9DOMWindow3topEv
__ZN7CyberCore21JSMainThreadExecState21didLeaveScriptContextEv
__ZN3JSC6StrongINS_7UnknownEEC2ERNS_2VMENS_7JSValueE
__ZN7CyberCore20InsertionPointRecordD2Ev
__ZN7CyberCore20HTMLConstructionSite28insertSelfClosingHTMLElementEPNS_15AtomicHTMLTokenE
__ZN7CyberCoreL15metaConstructorERKNS_13QualifiedNameEPNS_8DocumentEPNS_15HTMLFormElementEb
__ZN7CyberCore15HTMLMetaElement6createERKNS_13QualifiedNameEPNS_8DocumentE
__ZN7CyberCore15HTMLMetaElement14parseAttributeERKNS_13QualifiedNameERKN3WTF12AtomicStringE
__ZN7CyberCore15HTMLMetaElement7processEv
__ZN7CyberCore15HTMLMetaElement12insertedIntoEPNS_13ContainerNodeE
__ZNK7CyberCore15HTMLMetaElement4nameEv
__ZN7CyberCore8Document16processHttpEquivERKN3WTF6StringES4_
__ZN7CyberCore9TreeScope16addElementByNameERKN3WTF12AtomicStringEPNS_7ElementE
__ZN3WTF6OwnPtrIN7CyberCore18DocumentOrderedMapEEaSERKNS_10PassOwnPtrIS2_EE
__ZN3WTF10PassOwnPtrIN7CyberCore18DocumentOrderedMapEED2Ev
__ZN7CyberCore18DocumentOrderedMap3addEPN3WTF16AtomicStringImplEPNS_7ElementE
__ZN3WTF9HashTableIPNS_16AtomicStringImplENS_12KeyValuePairIS2_N7CyberCore18DocumentOrderedMap8MapEntryEEENS_24KeyValuePairKeyExtractorIS7_EENS_7PtrHashIS2_EENS_18HashMapValueTraitsINS_10HashTraitsIS2_EENSD_IS6_EEEESE_E16lookupForWritingINS_22IdentityHashTranslatorISB_EES2_EENSt3__14pairIPS7_bEERKT0_
__ZN3WTF9HashTableIPNS_16AtomicStringImplENS_12KeyValuePairIS2_N7CyberCore18DocumentOrderedMap8MapEntryEEENS_24KeyValuePairKeyExtractorIS7_EENS_7PtrHashIS2_EENS_18HashMapValueTraitsINS_10HashTraitsIS2_EENSD_IS6_EEEESE_E3addINS_17HashMapTranslatorISG_SB_EES2_S6_EENS_18HashTableAddResultINS_17HashTableIteratorIS2_S7_S9_SB_SG_SE_EEEERKT0_RKT1_
__ZN3WTF9HashTableIPNS_16AtomicStringImplENS_12KeyValuePairIS2_N7CyberCore18DocumentOrderedMap8MapEntryEEENS_24KeyValuePairKeyExtractorIS7_EENS_7PtrHashIS2_EENS_18HashMapValueTraitsINS_10HashTraitsIS2_EENSD_IS6_EEEESE_E6lookupINS_22IdentityHashTranslatorISB_EES2_EEPS7_RKT0_
__ZN3WTF9HashTableIPNS_16AtomicStringImplENS_12KeyValuePairIS2_N7CyberCore18DocumentOrderedMap8MapEntryEEENS_24KeyValuePairKeyExtractorIS7_EENS_7PtrHashIS2_EENS_18HashMapValueTraitsINS_10HashTraitsIS2_EENSD_IS6_EEEESE_E6rehashEi
__ZN3WTF6VectorIPN7CyberCore7ElementELm0ENS_15CrashOnOverflowEEaSERKS5_
__ZN7CyberCore7Element21updateNameForDocumentEPNS_12HTMLDocumentERKN3WTF12AtomicStringES6_
__ZN7CyberCore20WindowNameCollection31nodeMatchesIfNameAttributeMatchEPNS_7ElementE
__ZN7CyberCore22DocumentNameCollection31nodeMatchesIfNameAttributeMatchEPNS_7ElementE
__ZN7CyberCoreL15linkConstructorERKNS_13QualifiedNameEPNS_8DocumentEPNS_15HTMLFormElementEb
__ZN7CyberCore15HTMLLinkElement6createERKNS_13QualifiedNameEPNS_8DocumentEb
__ZN7CyberCore15HTMLLinkElementC2ERKNS_13QualifiedNameEPNS_8DocumentEb
__ZN7CyberCore10LinkLoaderC1EPNS_16LinkLoaderClientE
__ZN7CyberCore20DOMSettableTokenListC1Ev
__ZN7CyberCore16LinkRelAttributeC1Ev
__ZN7CyberCore15HTMLLinkElement14parseAttributeERKNS_13QualifiedNameERKN3WTF12AtomicStringE
__ZN7CyberCore16LinkRelAttributeC1ERKN3WTF6StringE
__ZN7CyberCore16LinkRelAttributeC2ERKN3WTF6StringE
__ZN7CyberCore15HTMLLinkElement7processEv
__ZN7CyberCore15HTMLLinkElement12insertedIntoEPNS_13ContainerNodeE
__ZN7CyberCore28DocumentStyleSheetCollection26addStyleSheetCandidateNodeEPNS_4NodeEb
__ZNK7CyberCore7Element23getNonEmptyURLAttributeERKNS_13QualifiedNameE
__ZN7CyberCore33stripLeadingAndTrailingHTMLSpacesERKN3WTF6StringE
__ZNK7CyberCore8Document11completeURLERKN3WTF6StringE
__ZNK7CyberCore8Document11completeURLERKN3WTF6StringERKNS_4KURLE
__ZN7CyberCore8blankURLEv
__ZN7CyberCore4KURLC1ERKS0_RKN3WTF6StringERKNS_12TextEncodingE
__ZNK7CyberCore12TextEncoding25encodingForFormSubmissionEv
__ZNK7CyberCore12TextEncoding22isNonByteBasedEncodingEv
__ZNK7CyberCore20DOMSettableTokenList5valueEv
__ZN7CyberCore10LinkLoader8loadLinkERKNS_16LinkRelAttributeERKN3WTF6StringES7_RKNS_4KURLEPNS_8DocumentE
__ZThn104_N7CyberCore15HTMLLinkElement14shouldLoadLinkEv
__ZN7CyberCore15HTMLLinkElement14shouldLoadLinkEv
__ZN7CyberCore4Node23dispatchBeforeLoadEventERKN3WTF6StringE
__ZN7CyberCore8Document10addIconURLERKN3WTF6StringES4_S4_NS_8IconTypeE
__ZN7CyberCore11FrameLoader14didChangeIconsENS_8IconTypeE
__ZN7CyberCore15HTMLLinkElement21finishParsingChildrenEv
__ZN7CyberCore20HTMLConstructionSite17insertHTMLElementEPNS_15AtomicHTMLTokenE
__ZN7CyberCoreL16titleConstructorERKNS_13QualifiedNameEPNS_8DocumentEPNS_15HTMLFormElementEb
__ZN7CyberCore16HTMLTitleElement6createERKNS_13QualifiedNameEPNS_8DocumentE
__ZN7CyberCore16HTMLTitleElement12insertedIntoEPNS_13ContainerNodeE
__ZN7CyberCore8Document15setTitleElementERKNS_19StringWithDirectionEPNS_7ElementE
__ZN7CyberCore8Document11updateTitleERKNS_19StringWithDirectionE
__ZN7CyberCore16HTMLTitleElement15childrenChangedEbPNS_4NodeES2_i
__ZN7CyberCore16HTMLTitleElement17textWithDirectionEv
__ZN7CyberCore7Element13computedStyleENS_8PseudoIdE
__ZN7CyberCore8Document41styleForElementIgnoringPendingStylesheetsEPNS_7ElementE
__ZN7CyberCore7Element20virtualComputedStyleENS_8PseudoIdE
__ZN7CyberCore21CSSDefaultStyleSheets20loadFullDefaultStyleEv
__ZN7CyberCore18StyleSheetContentsD1Ev
__ZN7CyberCore18StyleSheetContentsD2Ev
__ZN7CyberCore13StyleRuleBase7destroyEv
__ZN7CyberCore9StyleRuleD2Ev
__ZN7CyberCore15CSSSelectorListD1Ev
__ZN7CyberCore13QualifiedName17QualifiedNameImplD1Ev
__ZN7CyberCore13QualifiedName17QualifiedNameImplD2Ev
__ZNK3WTF9HashTableIPN7CyberCore13QualifiedName17QualifiedNameImplES4_NS_17IdentityExtractorENS1_17QualifiedNameHashENS1_23QualifiedNameHashTraitsES7_E4findINS_22IdentityHashTranslatorIS6_EES4_EENS_22HashTableConstIteratorIS4_S4_S5_S6_S7_S7_EERKT0_
__ZNK7CyberCore13QualifiedName17QualifiedNameImpl11computeHashEv
__ZN7CyberCore25ImmutableStylePropertySetD1Ev
__ZN7CyberCore8CSSValue7destroyEv
__ZN7CyberCore11RenderTheme22extraDefaultStyleSheetEv
__ZNK3WTF12StringAppendINS_6StringES1_EcvS1_Ev
__ZN3WTF13tryMakeStringINS_6StringES1_EENS_10PassRefPtrINS_10StringImplEEET_T0_
__ZN7CyberCore9CSSParser13detectAtTokenIhEEvib
__ZN7CyberCore9CSSParser11parseStringIhEEvRPT_RNS_15CSSParserStringEt
__ZN7CyberCore9CSSParser12addNamespaceERKN3WTF12AtomicStringES4_
__ZN7CyberCore18StyleSheetContents18parserAddNamespaceERKN3WTF12AtomicStringES4_
__ZN7CyberCore9CSSParser12parseContentENS_13CSSPropertyIDEb
__ZN7CyberCore20borderStyleShorthandEv
__ZN7CyberCore20borderWidthShorthandEv
__ZN7CyberCore9CSSParser13parseFontSizeEb
__ZN7CyberCore9CSSParser15parseFontWeightEb
__ZN7CyberCore9CSSParser28createFloatingSelectorVectorEv
__ZN7CyberCore9CSSParser26sinkFloatingSelectorVectorEPN3WTF6VectorINS1_6OwnPtrINS_17CSSParserSelectorEEELm0ENS1_15CrashOnOverflowEEE
__ZN3WTF7HashSetIPNS_6VectorINS_6OwnPtrIN7CyberCore17CSSParserSelectorEEELm0ENS_15CrashOnOverflowEEENS_7PtrHashIS8_EENS_10HashTraitsIS8_EEE6removeERKS8_
__ZN3WTF9HashTableIPNS_6VectorINS_6OwnPtrIN7CyberCore17CSSParserSelectorEEELm0ENS_15CrashOnOverflowEEES8_NS_17IdentityExtractorENS_7PtrHashIS8_EENS_10HashTraitsIS8_EESD_E16lookupForWritingINS_22IdentityHashTranslatorISB_EES8_EENSt3__14pairIPS8_bEERKT0_
__ZN3WTF9HashTableIPNS_6VectorINS_6OwnPtrIN7CyberCore17CSSParserSelectorEEELm0ENS_15CrashOnOverflowEEES8_NS_17IdentityExtractorENS_7PtrHashIS8_EENS_10HashTraitsIS8_EESD_E3addINS_22IdentityHashTranslatorISB_EES8_S8_EENS_18HashTableAddResultINS_17HashTableIteratorIS8_S8_S9_SB_SD_SD_EEEERKT0_RKT1_
__ZN3WTF9HashTableIPNS_6VectorINS_6OwnPtrIN7CyberCore17CSSParserSelectorEEELm0ENS_15CrashOnOverflowEEES8_NS_17IdentityExtractorENS_7PtrHashIS8_EENS_10HashTraitsIS8_EESD_E6lookupINS_22IdentityHashTranslatorISB_EES8_EEPS8_RKT0_
__ZN3WTF9HashTableIPNS_6VectorINS_6OwnPtrIN7CyberCore17CSSParserSelectorEEELm0ENS_15CrashOnOverflowEEES8_NS_17IdentityExtractorENS_7PtrHashIS8_EENS_10HashTraitsIS8_EESD_E6rehashEi
__ZN7CyberCore17CSSParserSelector19adoptSelectorVectorERN3WTF6VectorINS1_6OwnPtrIS0_EELm0ENS1_15CrashOnOverflowEEE
__ZN7CyberCore11CSSSelector15setSelectorListEN3WTF10PassOwnPtrINS_15CSSSelectorListEEE
__ZN3WTF10PassOwnPtrINS_6VectorINS_6OwnPtrIN7CyberCore17CSSParserSelectorEEELm0ENS_15CrashOnOverflowEEEED2Ev
__ZN7CyberCore9CSSParser38rewriteSpecifiersWithNamespaceIfNeededEPNS_17CSSParserSelectorE
__ZN7CyberCore20borderColorShorthandEv
__ZN7CyberCore9CSSParser27addExpandedPropertyForValueENS_13CSSPropertyIDEN3WTF10PassRefPtrINS_8CSSValueEEEb
__ZN7CyberCore20shorthandForPropertyENS_13CSSPropertyIDE
__ZN7CyberCore23borderAbridgedShorthandEv
__ZN7CyberCore9CSSParser15parseLineHeightEb
__ZN7CyberCore9CSSParser15parseTextIndentEv
__ZN7CyberCore11CSSSelector12setAttributeERKNS_13QualifiedNameE
__ZN7CyberCore13QualifiedName5derefEv
__ZN7CyberCore16paddingShorthandEv
__ZN7CyberCore9CSSParser17parseBorderRadiusENS_13CSSPropertyIDEb
__ZN7CyberCoreL19completeBorderRadiiEPN3WTF6RefPtrINS_17CSSPrimitiveValueEEE
__ZN7CyberCoreL24createPrimitiveValuePairEN3WTF10PassRefPtrINS_17CSSPrimitiveValueEEES3_
__ZN7CyberCore17CSSPrimitiveValue4initEN3WTF10PassRefPtrINS_4PairEEE
__ZN7CyberCore12CSSValuePool16createColorValueEj
__ZN3WTF9HashTableIjNS_12KeyValuePairIjNS_6RefPtrIN7CyberCore17CSSPrimitiveValueEEEEENS_24KeyValuePairKeyExtractorIS6_EENS_7IntHashIjEENS_18HashMapValueTraitsINS_10HashTraitsIjEENSC_IS5_EEEESD_E16lookupForWritingINS_22IdentityHashTranslatorISA_EEjEENSt3__14pairIPS6_bEERKT0_
__ZN3WTF9HashTableIjNS_12KeyValuePairIjNS_6RefPtrIN7CyberCore17CSSPrimitiveValueEEEEENS_24KeyValuePairKeyExtractorIS6_EENS_7IntHashIjEENS_18HashMapValueTraitsINS_10HashTraitsIjEENSC_IS5_EEEESD_E3addINS_17HashMapTranslatorISF_SA_EEjNS_10PassRefPtrIS4_EEEENS_18HashTableAddResultINS_17HashTableIteratorIjS6_S8_SA_SF_SD_EEEERKT0_RKT1_
__ZN3WTF9HashTableIjNS_12KeyValuePairIjNS_6RefPtrIN7CyberCore17CSSPrimitiveValueEEEEENS_24KeyValuePairKeyExtractorIS6_EENS_7IntHashIjEENS_18HashMapValueTraitsINS_10HashTraitsIjEENSC_IS5_EEEESD_E6lookupINS_22IdentityHashTranslatorISA_EEjEEPS6_RKT0_
__ZN3WTF9HashTableIjNS_12KeyValuePairIjNS_6RefPtrIN7CyberCore17CSSPrimitiveValueEEEEENS_24KeyValuePairKeyExtractorIS6_EENS_7IntHashIjEENS_18HashMapValueTraitsINS_10HashTraitsIjEENSC_IS5_EEEESD_E6rehashEi
__ZN7CyberCore5Color13parseHexColorEPKhjRj
__ZN7CyberCore9CSSParser17parseFillPropertyENS_13CSSPropertyIDERS1_S2_RN3WTF6RefPtrINS_8CSSValueEEES7_
__ZN7CyberCore9CSSParser14parseFillImageEPNS_18CSSParserValueListERN3WTF6RefPtrINS_8CSSValueEEE
__ZN7CyberCore9CSSParser9parseFlexEPNS_18CSSParserValueListEb
__ZN7CyberCore9CSSParser24parseTransitionShorthandENS_13CSSPropertyIDEb
__ZN7CyberCore9CSSParser22parseAnimationPropertyENS_13CSSPropertyIDERN3WTF6RefPtrINS_8CSSValueEEERNS_21AnimationParseContextE
__ZN7CyberCore9CSSParser22parseAnimationPropertyERNS_21AnimationParseContextE
__ZN7CyberCore9CSSParser17addAnimationValueERN3WTF6RefPtrINS_8CSSValueEEENS1_10PassRefPtrIS3_EE
__ZN7CyberCore9CSSParser22parseAnimationDurationEv
__ZN7CyberCore9CSSParser28parseAnimationTimingFunctionEv
__ZN7CyberCore9CSSParser31addPropertyWithPrefixingVariantENS_13CSSPropertyIDEN3WTF10PassRefPtrINS_8CSSValueEEEbb
__ZN3WTF6VectorIN7CyberCore14CSSParserValueELm4ENS_15CrashOnOverflowEE14expandCapacityEmPKS2_
__ZN3WTF6VectorIN7CyberCore14CSSParserValueELm4ENS_15CrashOnOverflowEE15reserveCapacityEm
__ZN7CyberCore9CSSParser23detectFunctionTypeTokenIhEEbi
__ZN7CyberCore9CSSParser22createFloatingFunctionEv
__ZN3WTF9HashTableIPN7CyberCore17CSSParserFunctionES3_NS_17IdentityExtractorENS_7PtrHashIS3_EENS_10HashTraitsIS3_EES8_E3addINS_22IdentityHashTranslatorIS6_EES3_S3_EENS_18HashTableAddResultINS_17HashTableIteratorIS3_S3_S4_S6_S8_S8_EEEERKT0_RKT1_
__ZN3WTF9HashTableIPN7CyberCore17CSSParserFunctionES3_NS_17IdentityExtractorENS_7PtrHashIS3_EENS_10HashTraitsIS3_EES8_E6rehashEi
__ZN3WTF7HashSetIPN7CyberCore17CSSParserFunctionENS_7PtrHashIS3_EENS_10HashTraitsIS3_EEE6removeERKS3_
__ZN3WTF9HashTableIPN7CyberCore17CSSParserFunctionES3_NS_17IdentityExtractorENS_7PtrHashIS3_EENS_10HashTraitsIS3_EES8_E6lookupINS_22IdentityHashTranslatorIS6_EES3_EEPS3_RKT0_
__ZN3WTF9HashTableIPN7CyberCore18CSSParserValueListES3_NS_17IdentityExtractorENS_7PtrHashIS3_EENS_10HashTraitsIS3_EES8_E16lookupForWritingINS_22IdentityHashTranslatorIS6_EES3_EENSt3__14pairIPS3_bEERKT0_
__ZN7CyberCore9CSSParser18parseFillShorthandENS_13CSSPropertyIDEPKS1_ib
__ZNK7CyberCore9CSSParser21isGeneratedImageValueEPNS_14CSSParserValueE
__ZN7CyberCore9CSSParser19parseGeneratedImageEPNS_18CSSParserValueListERN3WTF6RefPtrINS_8CSSValueEEE
__ZN7CyberCore9CSSParser23parseDeprecatedGradientEPNS_18CSSParserValueListERN3WTF6RefPtrINS_8CSSValueEEE
__ZN7CyberCore22CSSImageGeneratorValueC2ENS_8CSSValue9ClassTypeE
__ZN7CyberCoreL28parseDeprecatedGradientPointEPNS_14CSSParserValueEb
__ZN7CyberCore16CSSGradientValue7addStopERKNS_20CSSGradientColorStopE
__ZN7CyberCore9CSSParser12addFillValueERN3WTF6RefPtrINS_8CSSValueEEENS1_10PassRefPtrIS3_EE
__ZN7CyberCore9CSSParser11parseShadowEPNS_18CSSParserValueListENS_13CSSPropertyIDE
__ZN7CyberCore18ShadowParseContext12commitLengthEPNS_14CSSParserValueE
__ZN7CyberCore9CSSParser20parseColorParametersEPNS_14CSSParserValueEPib
__ZN7CyberCore9CSSParser9validUnitEPNS_14CSSParserValueENS0_5UnitsENS_13CSSParserModeENS0_31ReleaseParsedCalcValueConditionE
__ZN7CyberCore18ShadowParseContext11commitValueEv
__ZN7CyberCore11ShadowValue6createEN3WTF10PassRefPtrINS_17CSSPrimitiveValueEEES4_S4_S4_S4_S4_
__ZN7CyberCore11ShadowValueC1EN3WTF10PassRefPtrINS_17CSSPrimitiveValueEEES4_S4_S4_S4_S4_
__ZN7CyberCore18ShadowParseContext11commitStyleEPNS_14CSSParserValueE
__ZN7CyberCore18ShadowParseContextD2Ev
__ZN7CyberCore9CSSParser20parseTransformOriginENS_13CSSPropertyIDERS1_S2_S2_RN3WTF6RefPtrINS_8CSSValueEEES7_S7_
__ZN7CyberCore9CSSParser29parseTransformOriginShorthandERN3WTF6RefPtrINS_8CSSValueEEES5_S5_
__ZN7CyberCore9CSSParser24parse2ValuesFillPositionEPNS_18CSSParserValueListERN3WTF6RefPtrINS_8CSSValueEEES7_
__ZN7CyberCore9CSSParser26parseFillPositionComponentEPNS_18CSSParserValueListERjRNS0_16FillPositionFlagENS0_23FillPositionParsingModeE
__ZN7CyberCore9CSSParser14parseTransformEv
__ZN7CyberCore9CSSParser19parseTransformValueEPNS_14CSSParserValueE
__ZN7CyberCore22TransformOperationInfoC2ERKNS_15CSSParserStringE
__ZN7CyberCore23CyberKitCSSTransformValueC1ENS0_22TransformOperationTypeE
__ZN7CyberCore12CSSValueListC2ENS_8CSSValue9ClassTypeENS1_18ValueListSeparatorE
__ZN3WTF9HashTableIPN7CyberCore17CSSParserFunctionES3_NS_17IdentityExtractorENS_7PtrHashIS3_EENS_10HashTraitsIS3_EES8_E16lookupForWritingINS_22IdentityHashTranslatorIS6_EES3_EENSt3__14pairIPS3_bEERKT0_
__ZN3WTF6VectorIN7CyberCore20CSSGradientColorStopELm2ENS_15CrashOnOverflowEE14expandCapacityEmPKS2_
__ZN3WTF6VectorIN7CyberCore20CSSGradientColorStopELm2ENS_15CrashOnOverflowEE15reserveCapacityEm
__ZN3WTF11VectorMoverILb0EN7CyberCore20CSSGradientColorStopEE4moveEPKS2_S5_PS2_
__ZN7CyberCore9CSSParser15parseFontFamilyEv
__ZN7CyberCore22FontFamilyValueBuilder6commitEv
__ZN7CyberCore27webkitTextEmphasisShorthandEv
__ZN7CyberCore9CSSParser22parseTextEmphasisStyleEb
__ZNK7CyberCore17CSSParserSelector8isSimpleEv
__ZN7CyberCore9CSSParser9parseSizeENS_13CSSPropertyIDEb
__ZN7CyberCore9CSSParser18parseSizeParameterEPNS_12CSSValueListEPNS_14CSSParserValueENS0_17SizeParameterTypeE
__ZN7CyberCore9CSSParser14createPageRuleEN3WTF10PassOwnPtrINS_17CSSParserSelectorEEE
__ZN7CyberCore13StyleRulePageC1Ev
__ZN7CyberCore13StyleRulePage13setPropertiesEN3WTF10PassRefPtrINS_16StylePropertySetEEE
__ZN7CyberCore12HTMLDocument24isCaseSensitiveAttributeERKNS_13QualifiedNameE
__ZN3WTF9HashTableIPNS_16AtomicStringImplES2_NS_17IdentityExtractorENS_7PtrHashIS2_EENS_10HashTraitsIS2_EES7_E3addINS_22IdentityHashTranslatorIS5_EES2_S2_EENS_18HashTableAddResultINS_17HashTableIteratorIS2_S2_S3_S5_S7_S7_EEEERKT0_RKT1_
__ZN3WTF9HashTableIPNS_16AtomicStringImplES2_NS_17IdentityExtractorENS_7PtrHashIS2_EENS_10HashTraitsIS2_EES7_E6rehashEi
__ZN3WTF9HashTableIPNS_16AtomicStringImplES2_NS_17IdentityExtractorENS_7PtrHashIS2_EENS_10HashTraitsIS2_EES7_E16lookupForWritingINS_22IdentityHashTranslatorIS5_EES2_EENSt3__14pairIPS2_bEERKT0_
__ZN3WTF9HashTableIPNS_16AtomicStringImplES2_NS_17IdentityExtractorENS_7PtrHashIS2_EENS_10HashTraitsIS2_EES7_E6lookupINS_22IdentityHashTranslatorIS5_EES2_EEPS2_RKT0_
__ZN3WTF6VectorIN7CyberCore11RuleFeatureELm0ENS_15CrashOnOverflowEE14expandCapacityEmPKS2_
__ZN3WTF6VectorIN7CyberCore11RuleFeatureELm0ENS_15CrashOnOverflowEE15reserveCapacityEm
__ZN3WTF6VectorIPN7CyberCore13StyleRulePageELm0ENS_15CrashOnOverflowEE14expandCapacityEmPKS3_
__ZN3WTF6VectorIPN7CyberCore13StyleRulePageELm0ENS_15CrashOnOverflowEE15reserveCapacityEm
__ZN7CyberCore11RenderTheme21extraQuirksStyleSheetEv
__ZN7CyberCore9CSSParser16parseFontVariantEb
__ZN7CyberCore13StyleResolver30findFromMatchedPropertiesCacheEjRKNS0_11MatchResultE
__ZN7CyberCore13StyleResolver27addToMatchedPropertiesCacheEPKNS_11RenderStyleES3_jRKNS0_11MatchResultE
__ZN3WTF6VectorIN7CyberCore13StyleResolver17MatchedPropertiesELm0ENS_15CrashOnOverflowEE6appendIS3_EEvPKT_m
__ZN3WTF6VectorIN7CyberCore13StyleResolver17MatchedPropertiesELm0ENS_15CrashOnOverflowEE14expandCapacityEmPKS3_
__ZN3WTF6VectorIN7CyberCore13StyleResolver17MatchedPropertiesELm0ENS_15CrashOnOverflowEE15reserveCapacityEm
__ZN3WTF20VectorTypeOperationsIN7CyberCore13StyleResolver17MatchedPropertiesEE4moveEPKS3_S6_PS3_
__ZN7CyberCore11RenderStyle5cloneEPKS0_
__ZN3WTF9HashTableIjNS_12KeyValuePairIjN7CyberCore13StyleResolver26MatchedPropertiesCacheItemEEENS_24KeyValuePairKeyExtractorIS5_EENS_7IntHashIjEENS_18HashMapValueTraitsINS_10HashTraitsIjEENSB_IS4_EEEESC_E16lookupForWritingINS_22IdentityHashTranslatorIS9_EEjEENSt3__14pairIPS5_bEERKT0_
__ZN3WTF9HashTableIjNS_12KeyValuePairIjN7CyberCore13StyleResolver26MatchedPropertiesCacheItemEEENS_24KeyValuePairKeyExtractorIS5_EENS_7IntHashIjEENS_18HashMapValueTraitsINS_10HashTraitsIjEENSB_IS4_EEEESC_E3addINS_17HashMapTranslatorISE_S9_EEjS4_EENS_18HashTableAddResultINS_17HashTableIteratorIjS5_S7_S9_SE_SC_EEEERKT0_RKT1_
__ZN3WTF9HashTableIjNS_12KeyValuePairIjN7CyberCore13StyleResolver26MatchedPropertiesCacheItemEEENS_24KeyValuePairKeyExtractorIS5_EENS_7IntHashIjEENS_18HashMapValueTraitsINS_10HashTraitsIjEENSB_IS4_EEEESC_E6lookupINS_22IdentityHashTranslatorIS9_EEjEEPS5_RKT0_
__ZN3WTF9HashTableIjNS_12KeyValuePairIjN7CyberCore13StyleResolver26MatchedPropertiesCacheItemEEENS_24KeyValuePairKeyExtractorIS5_EENS_7IntHashIjEENS_18HashMapValueTraitsINS_10HashTraitsIjEENSB_IS4_EEEESC_E6rehashEi
__ZN3WTF6VectorIN7CyberCore13StyleResolver17MatchedPropertiesELm0ENS_15CrashOnOverflowEEC2ERKS5_
__ZN7CyberCore13StyleResolver26MatchedPropertiesCacheItemD2Ev
__ZN7CyberCore13StyleResolver26MatchedPropertiesCacheItemaSERKS1_
__ZN3WTF6VectorIN7CyberCore13StyleResolver17MatchedPropertiesELm0ENS_15CrashOnOverflowEEaSERKS5_
__ZN3WTF6VectorIN7CyberCore13StyleResolver17MatchedPropertiesELm0ENS_15CrashOnOverflowEE6shrinkEm
__ZNK7CyberCore16HTMLTitleElement4textEv
__ZN7CyberCore11FrameLoader8setTitleERKNS_19StringWithDirectionE
__ZN7CyberCore14DocumentLoader8setTitleERKNS_19StringWithDirectionE
__ZN7CyberCore11FrameLoader15willChangeTitleEPNS_14DocumentLoaderE
__ZN7CyberCore11FrameLoader14didChangeTitleEPNS_14DocumentLoaderE
__ZN7CyberCore17HistoryController19setCurrentItemTitleERKNS_19StringWithDirectionE
__ZN7CyberCore4Node23compareDocumentPositionEPS0_
__ZNK7CyberCore7Element8nodeTypeEv
__ZN3WTF9HashTableIPNS_15ListHashSetNodeIPN7CyberCore4NodeELm32EEES6_NS_17IdentityExtractorENS_28ListHashSetNodeHashFunctionsINS_7PtrHashIS4_EEEENS_10HashTraitsIS6_EESD_E16lookupForWritingINS_22IdentityHashTranslatorISB_EES6_EENSt3__14pairIPS6_bEERKT0_
__ZN3WTF9HashTableIPNS_15ListHashSetNodeIPN7CyberCore4NodeELm32EEES6_NS_17IdentityExtractorENS_28ListHashSetNodeHashFunctionsINS_7PtrHashIS4_EEEENS_10HashTraitsIS6_EESD_E3addINS_21ListHashSetTranslatorISA_EES4_PNS_24ListHashSetNodeAllocatorIS4_Lm32EEEEENS_18HashTableAddResultINS_17HashTableIteratorIS6_S6_S7_SB_SD_SD_EEEERKT0_RKT1_
__ZN3WTF9HashTableIPNS_15ListHashSetNodeIPN7CyberCore4NodeELm32EEES6_NS_17IdentityExtractorENS_28ListHashSetNodeHashFunctionsINS_7PtrHashIS4_EEEENS_10HashTraitsIS6_EESD_E6lookupINS_21ListHashSetTranslatorISA_EES4_EEPS6_RKT0_
__ZN3WTF9HashTableIPNS_15ListHashSetNodeIPN7CyberCore4NodeELm32EEES6_NS_17IdentityExtractorENS_28ListHashSetNodeHashFunctionsINS_7PtrHashIS4_EEEENS_10HashTraitsIS6_EESD_E6lookupINS_22IdentityHashTranslatorISB_EES6_EEPS6_RKT0_
__ZN3WTF9HashTableIPNS_15ListHashSetNodeIPN7CyberCore4NodeELm32EEES6_NS_17IdentityExtractorENS_28ListHashSetNodeHashFunctionsINS_7PtrHashIS4_EEEENS_10HashTraitsIS6_EESD_E6rehashEi
__ZN3WTF9HashTableIPNS_15ListHashSetNodeIPN7CyberCore4NodeELm32EEES6_NS_17IdentityExtractorENS_28ListHashSetNodeHashFunctionsINS_7PtrHashIS4_EEEENS_10HashTraitsIS6_EESD_E6removeERKS6_
__ZN3WTF11ListHashSetIPN7CyberCore4NodeELm32ENS_7PtrHashIS3_EEE12insertBeforeENS_19ListHashSetIteratorIS3_Lm32ES5_EERKS3_
__ZN7CyberCore21CachedResourceRequestC1ERKNS_15ResourceRequestERKN3WTF6StringENS_20ResourceLoadPriorityE
__ZN7CyberCore20CachedResourceLoader28defaultCachedResourceOptionsEv
__ZN7CyberCore21CachedResourceRequest12setInitiatorEN3WTF10PassRefPtrINS_7ElementEEE
__ZN7CyberCore20CachedResourceLoader20requestCSSStyleSheetERNS_21CachedResourceRequestE
__ZNK7CyberCore21ContentSecurityPolicy20allowStyleFromSourceERKNS_4KURLENS0_15ReportingStatusE
__ZN7CyberCore21isAllowedByAllWithURLIXadL_ZNKS_16CSPDirectiveList20allowStyleFromSourceERKNS_4KURLENS_21ContentSecurityPolicy15ReportingStatusEEEEEbRKN3WTF6VectorINS7_6OwnPtrIS1_EELm0ENS7_15CrashOnOverflowEEES4_S6_
__ZN7CyberCore14SchemeRegistry39schemeShouldBypassContentSecurityPolicyERKN3WTF6StringE
__ZNK7CyberCore19MixedContentChecker21canRunInsecureContentEPNS_14SecurityOriginERKNS_4KURLE
__ZNK7CyberCore8Document9topOriginEv
__ZN7CyberCore14encodeHostNameEP8NSString
__ZN7CyberCore19CachedCSSStyleSheetC1ERKNS_15ResourceRequestERKN3WTF6StringE
__ZN7CyberCore19CachedCSSStyleSheetC2ERKNS_15ResourceRequestERKN3WTF6StringE
__ZN7CyberCore14CachedResource27addAdditionalRequestHeadersEPNS_20CachedResourceLoaderE
__ZNK7CyberCore11FrameLoader16outgoingReferrerEv
__ZNK7CyberCore11FrameLoader14outgoingOriginEv
__ZN7CyberCore14SecurityPolicy22generateReferrerHeaderENS_14ReferrerPolicyERKNS_4KURLERKN3WTF6StringE
__ZN7CyberCore11FrameLoader34addExtraFieldsToSubresourceRequestERNS_15ResourceRequestE
__ZN7CyberCore19ResourceRequestBase14setCachePolicyENS_26ResourceRequestCachePolicyE
__ZN7CyberCore19CachedCSSStyleSheet12didAddClientEPNS_20CachedResourceClientE
__ZN7CyberCore9HTMLToken11beginEndTagEh
__ZNK7CyberCore15HTMLBodyElement23isPresentationAttributeERKNS_13QualifiedNameE
__ZN7CyberCore15HTMLBodyElement14parseAttributeERKNS_13QualifiedNameERKN3WTF12AtomicStringE
__ZN3WTF6VectorINS_12AtomicStringELm4ENS_15CrashOnOverflowEE14expandCapacityEmPKS1_
__ZN3WTF6VectorINS_12AtomicStringELm4ENS_15CrashOnOverflowEE15reserveCapacityEm
__ZN7CyberCore9TreeScope14addElementByIdERKN3WTF12AtomicStringEPNS_7ElementE
__ZN7CyberCore7Element19updateIdForDocumentEPNS_12HTMLDocumentERKN3WTF12AtomicStringES6_NS0_42HTMLDocumentNamedItemMapsUpdatingConditionE
__ZN7CyberCore22DocumentNameCollection29nodeMatchesIfIdAttributeMatchEPNS_7ElementE
__ZN3WTF6VectorIjLm4ENS_15CrashOnOverflowEE14expandCapacityEmPKj
__ZN3WTF6VectorIjLm4ENS_15CrashOnOverflowEE15reserveCapacityEm
__ZN7CyberCore15HTMLTreeBuilder24processStartTagForInBodyEPNS_15AtomicHTMLTokenE
__ZN7CyberCore15HTMLTreeBuilder34processFakePEndTagIfPInButtonScopeEv
__ZNK7CyberCore16HTMLElementStack13inButtonScopeERKN3WTF12AtomicStringE
__ZN7CyberCore12_GLOBAL__N_113isScopeMarkerEPNS_13HTMLStackItemE
__ZN7CyberCoreL14divConstructorERKNS_13QualifiedNameEPNS_8DocumentEPNS_15HTMLFormElementEb
__ZN7CyberCore14HTMLDivElement6createERKNS_13QualifiedNameEPNS_8DocumentE
__ZN7CyberCore14HTMLDivElementC2ERKNS_13QualifiedNameEPNS_8DocumentE
__ZNK7CyberCore14HTMLDivElement23isPresentationAttributeERKNS_13QualifiedNameE
__ZN7CyberCoreL31isNonAnchorNonNobrFormattingTagERKN3WTF12AtomicStringE
__ZN7CyberCoreL11ConstructorERKNS_13QualifiedNameEPNS_8DocumentEPNS_15HTMLFormElementEb
__ZN7CyberCore11HTMLElement6createERKNS_13QualifiedNameEPNS_8DocumentE
__ZN3WTF6VectorItLm256ENS_15CrashOnOverflowEE14expandCapacityEmPKt
__ZN3WTF6VectorItLm256ENS_15CrashOnOverflowEE15reserveCapacityEm
__ZN7CyberCore15HTMLTreeBuilder22processEndTagForInBodyEPNS_15AtomicHTMLTokenE
__ZNK7CyberCore16HTMLElementStack7inScopeERKN3WTF12AtomicStringE
__ZN7CyberCore20HTMLConstructionSite22generateImpliedEndTagsEv
__ZN7CyberCoreL16hasImpliedEndTagEPKNS_13HTMLStackItemE
__ZN7CyberCore16HTMLElementStack14popUntilPoppedERKN3WTF12AtomicStringE
__ZN7CyberCore16HTMLElementStack8popUntilERKN3WTF12AtomicStringE
__ZNK7CyberCore13HTMLStackItem23isNumberedHeaderElementEv
__ZN7CyberCoreL18headingConstructorERKNS_13QualifiedNameEPNS_8DocumentEPNS_15HTMLFormElementEb
__ZN7CyberCore18HTMLHeadingElement6createERKNS_13QualifiedNameEPNS_8DocumentE
__ZN7CyberCore15HTMLTreeBuilder31processCharacterBufferForInBodyERNS0_28ExternalCharacterTokenBufferE
__ZN7CyberCore20HTMLConstructionSite38reconstructTheActiveFormattingElementsEv
__ZNK7CyberCore16HTMLElementStack31hasNumberedHeaderElementInScopeEv
__ZN7CyberCore16HTMLElementStack35popUntilNumberedHeaderElementPoppedEv
__ZN7CyberCoreL20paragraphConstructorERKNS_13QualifiedNameEPNS_8DocumentEPNS_15HTMLFormElementEb
__ZN7CyberCore20HTMLParagraphElement6createERKNS_13QualifiedNameEPNS_8DocumentE
__ZN7CyberCore20HTMLConstructionSite35generateImpliedEndTagsWithExclusionERKN3WTF12AtomicStringE
__ZN7CyberCore15SegmentedString37advancePastNewlineAndUpdateLineNumberEv
__ZN7CyberCore16HTMLScriptRunner29executeParsingBlockingScriptsEv
__ZN7CyberCore18HTMLPreloadScannerC1ERKNS_17HTMLParserOptionsERKNS_4KURLE
__ZN7CyberCore18HTMLPreloadScannerC2ERKNS_17HTMLParserOptionsERKNS_4KURLE
__ZN7CyberCore17CSSPreloadScannerC1Ev
__ZN7CyberCore18HTMLPreloadScanner11appendToEndERKNS_15SegmentedStringE
__ZN7CyberCore18HTMLPreloadScanner4scanEPNS_21HTMLResourcePreloaderERKNS_4KURLE
__ZN7CyberCore13HTMLTokenizer14updateStateForERKN3WTF12AtomicStringE
__ZN7CyberCore19TokenPreloadScanner10scanCommonINS_9HTMLTokenEEEvRKT_RN3WTF6VectorINS6_6OwnPtrINS_14PreloadRequestEEELm0ENS6_15CrashOnOverflowEEE
__ZN7CyberCore19TokenPreloadScanner8tagIdForERKN3WTF6VectorItLm256ENS1_15CrashOnOverflowEEE
__ZN7CyberCore19TokenPreloadScanner15StartTagScanner17processAttributesERKN3WTF6VectorINS_9HTMLToken9AttributeELm10ENS2_15CrashOnOverflowEEE
__ZN7CyberCore19TokenPreloadScanner15StartTagScanner16processAttributeIN3WTF12AtomicStringEEEvRKT_RKNS3_6StringE
__ZN7CyberCore19TokenPreloadScanner15StartTagScanner20createPreloadRequestERKNS_4KURLE
__ZN7CyberCore19TokenPreloadScanner15StartTagScanner12setUrlToLoadERKN3WTF6StringE
__ZN7CyberCore19TokenPreloadScanner12initiatorForENS0_5TagIdE
__ZN3WTF6VectorINS_6OwnPtrIN7CyberCore14PreloadRequestEEELm0ENS_15CrashOnOverflowEE15reserveCapacityEm
__ZN7CyberCore21HTMLResourcePreloader14takeAndPreloadERN3WTF6VectorINS1_6OwnPtrINS_14PreloadRequestEEELm0ENS1_15CrashOnOverflowEEE
__ZN7CyberCore14PreloadRequest15resourceRequestEPNS_8DocumentE
__ZN7CyberCore21CachedResourceRequest12setInitiatorERKN3WTF12AtomicStringE
__ZN7CyberCore19ResourceRequestBase15setAllowCookiesEb
__ZN7CyberCore20CachedResourceLoader7preloadENS_14CachedResource4TypeERNS_21CachedResourceRequestERKN3WTF6StringE
__ZN7CyberCore20CachedResourceLoader14requestPreloadENS_14CachedResource4TypeERNS_21CachedResourceRequestERKN3WTF6StringE
__ZNK7CyberCore21ContentSecurityPolicy21allowScriptFromSourceERKNS_4KURLENS0_15ReportingStatusE
__ZN7CyberCore21isAllowedByAllWithURLIXadL_ZNKS_16CSPDirectiveList21allowScriptFromSourceERKNS_4KURLENS_21ContentSecurityPolicy15ReportingStatusEEEEEbRKN3WTF6VectorINS7_6OwnPtrIS1_EELm0ENS7_15CrashOnOverflowEEES4_S6_
__ZN7CyberCore12CachedScriptC1ERKNS_15ResourceRequestERKN3WTF6StringE
__ZN7CyberCore12CachedScriptC2ERKNS_15ResourceRequestERKN3WTF6StringE
__ZN7CyberCore17DOMImplementation13isXMLMIMETypeERKN3WTF6StringE
__ZN3WTF6OwnPtrINS_11ListHashSetIPN7CyberCore14CachedResourceELm256ENS_7PtrHashIS4_EEEEEaSERKNS_10PassOwnPtrIS7_EE
__ZN3WTF10PassOwnPtrINS_11ListHashSetIPN7CyberCore14CachedResourceELm256ENS_7PtrHashIS4_EEEEED2Ev
__ZN3WTF9HashTableIPNS_15ListHashSetNodeIPN7CyberCore14CachedResourceELm256EEES6_NS_17IdentityExtractorENS_28ListHashSetNodeHashFunctionsINS_7PtrHashIS4_EEEENS_10HashTraitsIS6_EESD_E16lookupForWritingINS_22IdentityHashTranslatorISB_EES6_EENSt3__14pairIPS6_bEERKT0_
__ZN3WTF9HashTableIPNS_15ListHashSetNodeIPN7CyberCore14CachedResourceELm256EEES6_NS_17IdentityExtractorENS_28ListHashSetNodeHashFunctionsINS_7PtrHashIS4_EEEENS_10HashTraitsIS6_EESD_E3addINS_21ListHashSetTranslatorISA_EES4_PNS_24ListHashSetNodeAllocatorIS4_Lm256EEEEENS_18HashTableAddResultINS_17HashTableIteratorIS6_S6_S7_SB_SD_SD_EEEERKT0_RKT1_
__ZN3WTF9HashTableIPNS_15ListHashSetNodeIPN7CyberCore14CachedResourceELm256EEES6_NS_17IdentityExtractorENS_28ListHashSetNodeHashFunctionsINS_7PtrHashIS4_EEEENS_10HashTraitsIS6_EESD_E6lookupINS_21ListHashSetTranslatorISA_EES4_EEPS6_RKT0_
__ZN3WTF9HashTableIPNS_15ListHashSetNodeIPN7CyberCore14CachedResourceELm256EEES6_NS_17IdentityExtractorENS_28ListHashSetNodeHashFunctionsINS_7PtrHashIS4_EEEENS_10HashTraitsIS6_EESD_E6lookupINS_22IdentityHashTranslatorISB_EES6_EEPS6_RKT0_
__ZN3WTF9HashTableIPNS_15ListHashSetNodeIPN7CyberCore14CachedResourceELm256EEES6_NS_17IdentityExtractorENS_28ListHashSetNodeHashFunctionsINS_7PtrHashIS4_EEEENS_10HashTraitsIS6_EESD_E6rehashEi
__ZN7CyberCore14PreloadRequestD2Ev
__ZN7CyberCore17SubresourceLoader16didFinishLoadingEd
__ZN7CyberCore17CachedRawResource13finishLoadingEPNS_14ResourceBufferE
__ZN7CyberCore14CachedResource13finishLoadingEPNS_14ResourceBufferE
__ZN7CyberCore14CachedResource11checkNotifyEv
__ZN7CyberCore26CachedResourceClientWalkerINS_20CachedResourceClientEEC2ERKN3WTF14HashCountedSetIPS1_NS3_7PtrHashIS5_EENS3_10HashTraitsIS5_EEEE
__ZN7CyberCore14DocumentLoader14notifyFinishedEPNS_14CachedResourceE
__ZNK7CyberCore14ResourceBuffer12sharedBufferEv
__ZN3WTF5DequeIN7CyberCore18SegmentedSubstringELm0EE14expandCapacityEv
__ZNK7CyberCore8Document11hasManifestEv
__ZNK7CyberCore7Element12hasAttributeERKNS_13QualifiedNameE
__ZNK7CyberCore7Element14hasAttributeNSERKN3WTF12AtomicStringES4_
__ZN7CyberCore14CachedResource6finishEv
__ZN7CyberCore14ResourceLoader23didFinishLoadingOnePartEd
__ZN7CyberCore20ResourceLoadNotifier13didFinishLoadEPNS_14ResourceLoaderEd
__ZN7CyberCore15ProgressTracker16completeProgressEm
__ZN7CyberCore24InspectorInstrumentation20didFinishLoadingImplEPNS_19InstrumentingAgentsEmPNS_14DocumentLoaderEd
__ZN7CyberCore17SubresourceLoader10notifyDoneEv
__ZN7CyberCore20CachedResourceLoader21decrementRequestCountEPKNS_14CachedResourceE
__ZN7CyberCore20CachedResourceLoader8loadDoneEPNS_14CachedResourceE
__ZN7CyberCore11FrameLoader8loadDoneEv
__ZN7CyberCore20CachedResourceLoader23checkForPendingPreloadsEv
__ZN7CyberCore14DocumentLoader23removeSubresourceLoaderEPNS_14ResourceLoaderE
__ZN7CyberCore17SubresourceLoader16releaseResourcesEv
__ZN7CyberCore14CachedResource11clearLoaderEv
__ZN7CyberCore14ResourceLoader16releaseResourcesEv
__ZN7CyberCore17SubresourceLoaderD0Ev
__ZN7CyberCore17SubresourceLoaderD2Ev
__ZN7CyberCore14ResourceLoaderD2Ev
__ZN7CyberCore20ResourceHandleClientD2Ev
__ZN7CyberCore13PageThrottler14unthrottlePageEv
__ZN7CyberCore8Document39scriptedAnimationControllerSetThrottledEb
__ZN7CyberCore4Page16unthrottleTimersEv
__ZN7CyberCore4Page24resumeScriptedAnimationsEv
__ZN7CyberCore9FrameView21resumeAnimatingImagesEv
__ZNK7CyberCore14CachedResource7isImageEv
__ZN7CyberCore5Frame34dispatchVisibilityStateChangeEventEv
__ZN7CyberCore8Document34dispatchVisibilityStateChangeEventEv
__ZN7CyberCore19AnimationController16resumeAnimationsEv
__ZN7CyberCore26AnimationControllerPrivate16resumeAnimationsEv
__ZN7CyberCore26AnimationControllerPrivate27resumeAnimationsForDocumentEPNS_8DocumentE
__ZN7CyberCore14TileController9drawLayerEP12WebTileLayerP9CGContext
__Z17drawLayerContentsP9CGContextP7CALayerPN7CyberCore15PlatformCALayerE
__ZThn480_NK7CyberCore15GraphicsLayerCA34platformCALayerContentsOrientationEv
__ZN7CyberCore15GraphicsContext19setIsCALayerContextEb
__ZNK7CyberCore15PlatformCALayer18acceleratesDrawingEv
-[WebTiledBackingLayer acceleratesDrawing]
__ZN7CyberCore15GraphicsContext23setIsAcceleratedContextEb
__ZThn480_NK7CyberCore15GraphicsLayerCA29platformCALayerContentsOpaqueEv
__ZN7CyberCore8ThemeMac20setFocusRingClipRectERKNS_9FloatRectE
____Z17drawLayerContentsP9CGContextP7CALayerPN7CyberCore15PlatformCALayerE_block_invoke
__ZThn480_N7CyberCore15GraphicsLayerCA28platformCALayerPaintContentsERNS_15GraphicsContextERKNS_7IntRectE
__ZN7CyberCore13GraphicsLayer26paintGraphicsLayerContentsERNS_15GraphicsContextERKNS_7IntRectE
__ZN7CyberCore18RenderLayerBacking13paintContentsEPKNS_13GraphicsLayerERNS_15GraphicsContextEjRKNS_7IntRectE
__ZN7CyberCore18RenderLayerBacking14paintIntoLayerEPKNS_13GraphicsLayerEPNS_15GraphicsContextERKNS_7IntRectEjj
__ZNK7CyberCore9FrameView19baseBackgroundColorEv
__ZNK7CyberCore15GraphicsContext18compositeOperationEv
__ZN7CyberCore15GraphicsContext21setCompositeOperationENS_17CompositeOperatorENS_9BlendModeE
__ZN7CyberCore15GraphicsContext29setPlatformCompositeOperationENS_17CompositeOperatorENS_9BlendModeE
__ZN7CyberCore15GraphicsContext8fillRectERKNS_9FloatRectERKNS_5ColorENS_10ColorSpaceE
__ZN7CyberCore11RenderLayer15updateClipRectsERKNS0_16ClipRectsContextE
__ZN7CyberCore9FrameView18setContentIsOpaqueEb
__ZN7CyberCore15GraphicsContext8fillRectERKNS_9FloatRectERKNS_5ColorENS_10ColorSpaceENS_17CompositeOperatorENS_9BlendModeE
__ZN7CyberCore21RenderLayerCompositor15didPaintBackingEPNS_18RenderLayerBackingE
__ZThn480_N7CyberCore15GraphicsLayerCA36platformCALayerIncrementRepaintCountEv
__ZN7CyberCore14TileController18drawRepaintCounterEP12WebTileLayerP9CGContext
-[WebTileLayer incrementPaintCount]
__ZNK7CyberCore14TileController34scrollingPerformanceLoggingEnabledEv
__ZN7CyberCore21NetworkStorageSession28createPrivateBrowsingSessionERKN3WTF6StringE
-[CyberCoreResourceHandleAsDelegate connection:didReceiveData:lengthReceived:]
__ZN7CyberCore14ResourceLoader16didReceiveBufferEPNS_14ResourceHandleEN3WTF10PassRefPtrINS_12SharedBufferEEEi
__ZN7CyberCore17SubresourceLoader16didReceiveBufferEN3WTF10PassRefPtrINS_12SharedBufferEEExNS_15DataPayloadTypeE
__ZN7CyberCore14ResourceBuffer17adoptSharedBufferEN3WTF10PassRefPtrINS_12SharedBufferEEE
__ZN7CyberCore14ResourceBufferC1EN3WTF10PassRefPtrINS_12SharedBufferEEE
__ZNK7CyberCore15GraphicsLayerCA15platformCALayerEv
__ZN7CyberCore15PlatformCALayer18setGeometryFlippedEb
__ZN7CyberCore15GraphicsLayerCA18setAllowTiledLayerEb
__ZN7CyberCore13GraphicsLayer17removeAllChildrenEv
__ZN7CyberCore15HTMLTreeBuilder28ExternalCharacterTokenBuffer11takeLeadingIXadL_ZNS_11isHTMLSpaceEtEEEEN3WTF6StringEv
__ZN7CyberCore17consumeHTMLEntityERNS_15SegmentedStringERN3WTF13StringBuilderERbt
__ZN7CyberCore25consumeCharacterReferenceINS_16HTMLEntityParserEEEbRNS_15SegmentedStringERN3WTF13StringBuilderERbt
__ZN7CyberCoreL16styleConstructorERKNS_13QualifiedNameEPNS_8DocumentEPNS_15HTMLFormElementEb
__ZN7CyberCore16HTMLStyleElement6createERKNS_13QualifiedNameEPNS_8DocumentEb
__ZN7CyberCore12StyleElementC2EPNS_8DocumentEb
__ZN7CyberCore16HTMLStyleElement14parseAttributeERKNS_13QualifiedNameERKN3WTF12AtomicStringE
__ZN7CyberCore16HTMLStyleElement12insertedIntoEPNS_13ContainerNodeE
__ZN7CyberCore12StyleElement20insertedIntoDocumentEPNS_8DocumentEPNS_7ElementE
__ZN7CyberCore16HTMLStyleElement15childrenChangedEbPNS_4NodeES2_i
__ZN7CyberCore12StyleElement15childrenChangedEPNS_7ElementE
__ZN7CyberCore16HTMLStyleElement21finishParsingChildrenEv
__ZN7CyberCore12StyleElement21finishParsingChildrenEPNS_7ElementE
__ZN7CyberCore12StyleElement7processEPNS_7ElementE
__ZNK7CyberCore4Text8nodeTypeEv
__ZNK7CyberCore13CharacterData9nodeValueEv
__ZN7CyberCore12StyleElement11createSheetEPNS_7ElementEN3WTF13OrdinalNumberERKNS3_6StringE
__ZThn96_NK7CyberCore16HTMLStyleElement4typeEv
__ZNK7CyberCore21ContentSecurityPolicy16allowInlineStyleERKN3WTF6StringERKNS1_13OrdinalNumberENS0_15ReportingStatusE
__ZThn96_NK7CyberCore16HTMLStyleElement5mediaEv
__ZN7CyberCore13MediaQuerySetC1ERKN3WTF6StringEb
__ZN7CyberCore13MediaQuerySet5parseERKN3WTF6StringE
__ZNK7CyberCore19MediaQueryEvaluator4evalEPKNS_13MediaQuerySetEPNS_13StyleResolverE
__ZN7CyberCore13CSSStyleSheet12createInlineEPNS_4NodeERKNS_4KURLERKN3WTF6StringE
__ZN7CyberCore16CSSParserContextC1EPNS_8DocumentERKNS_4KURLERKN3WTF6StringE
__ZN7CyberCore16CSSParserContextC2EPNS_8DocumentERKNS_4KURLERKN3WTF6StringE
__ZNK7CyberCore8Document24cssStickyPositionEnabledEv
__ZNK7CyberCore8Document21cssCompositingEnabledEv
__ZN7CyberCore18StyleSheetContents14registerClientEPNS_13CSSStyleSheetE
__ZN3WTF6VectorIPN7CyberCore13CSSStyleSheetELm0ENS_15CrashOnOverflowEE14expandCapacityEmPKS3_
__ZN3WTF6VectorIPN7CyberCore13CSSStyleSheetELm0ENS_15CrashOnOverflowEE15reserveCapacityEm
__ZN7CyberCore13CSSStyleSheet15setMediaQueriesEN3WTF10PassRefPtrINS_13MediaQuerySetEEE
__ZNK7CyberCore11HTMLElement5titleEv
__ZN7CyberCore18StyleSheetContents17parseStringAtLineERKN3WTF6StringEib
__ZNK7CyberCore18StyleSheetContents19singleOwnerDocumentEv
__ZNK7CyberCore13CSSStyleSheet9ownerNodeEv
__ZN7CyberCore12CSSValuePool21createFontFamilyValueERKN3WTF6StringE
__ZN3WTF9HashTableINS_6StringENS_12KeyValuePairIS1_NS_6RefPtrIN7CyberCore17CSSPrimitiveValueEEEEENS_24KeyValuePairKeyExtractorIS7_EENS_10StringHashENS_18HashMapValueTraitsINS_10HashTraitsIS1_EENSC_IS6_EEEESD_E15deallocateTableEPS7_i
__ZN3WTF9HashTableINS_6StringENS_12KeyValuePairIS1_NS_6RefPtrIN7CyberCore17CSSPrimitiveValueEEEEENS_24KeyValuePairKeyExtractorIS7_EENS_10StringHashENS_18HashMapValueTraitsINS_10HashTraitsIS1_EENSC_IS6_EEEESD_E16lookupForWritingINS_22IdentityHashTranslatorISA_EES1_EENSt3__14pairIPS7_bEERKT0_
__ZN3WTF9HashTableINS_6StringENS_12KeyValuePairIS1_NS_6RefPtrIN7CyberCore17CSSPrimitiveValueEEEEENS_24KeyValuePairKeyExtractorIS7_EENS_10StringHashENS_18HashMapValueTraitsINS_10HashTraitsIS1_EENSC_IS6_EEEESD_E3addINS_17HashMapTranslatorISF_SA_EES1_NS_10PassRefPtrIS5_EEEENS_18HashTableAddResultINS_17HashTableIteratorIS1_S7_S9_SA_SF_SD_EEEERKT0_RKT1_
__ZN3WTF9HashTableINS_6StringENS_12KeyValuePairIS1_NS_6RefPtrIN7CyberCore17CSSPrimitiveValueEEEEENS_24KeyValuePairKeyExtractorIS7_EENS_10StringHashENS_18HashMapValueTraitsINS_10HashTraitsIS1_EENSC_IS6_EEEESD_E6lookupINS_22IdentityHashTranslatorISA_EES1_EEPS7_RKT0_
__ZN3WTF9HashTableINS_6StringENS_12KeyValuePairIS1_NS_6RefPtrIN7CyberCore17CSSPrimitiveValueEEEEENS_24KeyValuePairKeyExtractorIS7_EENS_10StringHashENS_18HashMapValueTraitsINS_10HashTraitsIS1_EENSC_IS6_EEEESD_E6rehashEi
__ZN7CyberCore17CSSPrimitiveValueC1ERKN3WTF6StringENS0_9UnitTypesE
__ZN7CyberCore18StyleSheetContents11checkLoadedEv
__ZN7CyberCore16HTMLStyleElement11sheetLoadedEv
__ZN7CyberCore12StyleElement11sheetLoadedEPNS_8DocumentE
__ZNK7CyberCore13CSSStyleSheet9isLoadingEv
__ZNK7CyberCore18StyleSheetContents9isLoadingEv
__ZN7CyberCore28DocumentStyleSheetCollection18removePendingSheetENS0_34RemovePendingSheetNotificationTypeE
__ZN7CyberCore8Document29didRemoveAllPendingStylesheetEv
__ZNK7CyberCore15HTMLLinkElement19styleSheetIsLoadingEv
__ZN3WTF6VectorINS_6RefPtrIN7CyberCore10StyleSheetEEELm0ENS_15CrashOnOverflowEE15reserveCapacityEm
__ZNK7CyberCore13CSSStyleSheet15isCSSStyleSheetEv
__ZNK7CyberCore13CSSStyleSheet8disabledEv
__ZN3WTF6VectorINS_6RefPtrIN7CyberCore13CSSStyleSheetEEELm0ENS_15CrashOnOverflowEE15reserveCapacityEm
__ZN3WTF6VectorIPN7CyberCore18StyleSheetContentsELm0ENS_15CrashOnOverflowEE14expandCapacityEmPKS3_
__ZN3WTF6VectorIPN7CyberCore18StyleSheetContentsELm0ENS_15CrashOnOverflowEE15reserveCapacityEm
__ZN7CyberCore22InspectorCSSOMWrappers29collectFromStyleSheetIfNeededEPNS_13CSSStyleSheetE
__ZNK7CyberCore13StyleResolver23colorFromPrimitiveValueEPNS_17CSSPrimitiveValueEb
__ZN7CyberCore11RenderStyle8setColorERKNS_5ColorE
__ZN7CyberCore23ApplyPropertyFontFamily10applyValueENS_13CSSPropertyIDEPNS_13StyleResolverEPNS_8CSSValueE
__ZNK7CyberCore11RenderStyle15fontDescriptionEv
__ZNK7CyberCore17CSSPrimitiveValue14getStringValueEv
__ZN3WTF6VectorINS_12AtomicStringELm1ENS_15CrashOnOverflowEE14expandCapacityEmPKS1_
__ZN3WTF6VectorINS_12AtomicStringELm1ENS_15CrashOnOverflowEE15reserveCapacityEm
__ZN3WTF12VectorBufferINS_12AtomicStringELm1EE4swapERS2_
__ZN3WTF6VectorINS_12AtomicStringELm1ENS_15CrashOnOverflowEE14shrinkCapacityEm
__ZN7CyberCore21ApplyPropertyFontSize10applyValueENS_13CSSPropertyIDEPNS_13StyleResolverEPNS_8CSSValueE
__ZNK7CyberCore17CSSPrimitiveValue13computeLengthIfEET_PKNS_11RenderStyleES5_fb
__ZN7CyberCore13StyleResolver11setFontSizeERNS_15FontDescriptionEf
__ZN7CyberCore13StyleResolver27checkForGenericFamilyChangeEPNS_11RenderStyleES2_
__ZN7CyberCore13StyleResolver18checkForZoomChangeEPNS_11RenderStyleES2_
__ZN7CyberCore19StyleBackgroundDataC1ERKS0_
__ZN7CyberCore9FillLayerC1ERKS0_
__ZN7CyberCore9FillLayerC2ERKS0_
__ZN7CyberCore19ApplyPropertyLengthIXadL_ZNKS_11RenderStyle10paddingTopEvEEXadL_ZNS1_13setPaddingTopENS_6LengthEEEXadL_ZNS1_14initialPaddingEvEELNS_10LengthAutoE0ELNS_21LengthLegacyIntrinsicE0ELNS_15LengthIntrinsicE0ELNS_10LengthNoneE0ELNS_15LengthUndefinedE0EE10applyValueENS_13CSSPropertyIDEPNS_13StyleResolverEPNS_8CSSValueE
__ZN7CyberCore11RenderStyle13setPaddingTopENS_6LengthE
__ZN7CyberCore19ApplyPropertyLengthIXadL_ZNKS_11RenderStyle12paddingRightEvEEXadL_ZNS1_15setPaddingRightENS_6LengthEEEXadL_ZNS1_14initialPaddingEvEELNS_10LengthAutoE0ELNS_21LengthLegacyIntrinsicE0ELNS_15LengthIntrinsicE0ELNS_10LengthNoneE0ELNS_15LengthUndefinedE0EE10applyValueENS_13CSSPropertyIDEPNS_13StyleResolverEPNS_8CSSValueE
__ZN7CyberCore11RenderStyle15setPaddingRightENS_6LengthE
__ZN7CyberCore19ApplyPropertyLengthIXadL_ZNKS_11RenderStyle13paddingBottomEvEEXadL_ZNS1_16setPaddingBottomENS_6LengthEEEXadL_ZNS1_14initialPaddingEvEELNS_10LengthAutoE0ELNS_21LengthLegacyIntrinsicE0ELNS_15LengthIntrinsicE0ELNS_10LengthNoneE0ELNS_15LengthUndefinedE0EE10applyValueENS_13CSSPropertyIDEPNS_13StyleResolverEPNS_8CSSValueE
__ZN7CyberCore11RenderStyle16setPaddingBottomENS_6LengthE
__ZN7CyberCore19ApplyPropertyLengthIXadL_ZNKS_11RenderStyle11paddingLeftEvEEXadL_ZNS1_14setPaddingLeftENS_6LengthEEEXadL_ZNS1_14initialPaddingEvEELNS_10LengthAutoE0ELNS_21LengthLegacyIntrinsicE0ELNS_15LengthIntrinsicE0ELNS_10LengthNoneE0ELNS_15LengthUndefinedE0EE10applyValueENS_13CSSPropertyIDEPNS_13StyleResolverEPNS_8CSSValueE
__ZN7CyberCore11RenderStyle14setPaddingLeftENS_6LengthE
__ZNK7CyberCore19StyleBackgroundDataeqERKS0_
__ZNK7CyberCore9FillLayereqERKS0_
__ZNK7CyberCore11RenderStyle17inheritedNotEqualEPKS0_
__ZNK7CyberCore11RenderStyle4diffEPKS0_Rj
__ZNK7CyberCore11RenderStyle20changeRequiresLayoutEPKS0_Rj
__ZNK7CyberCore11RenderStyle4clipEv
__ZNK7CyberCore19TransformOperationseqERKS0_
__ZN7CyberCore13RenderCounter20rendererStyleChangedEPNS_12RenderObjectEPKNS_11RenderStyleES5_
__ZNK7CyberCore11RenderStyle17counterDirectivesEv
__ZN7CyberCore12RenderObject33setNeedsLayoutAndPrefWidthsRecalcEv
__ZNK7CyberCore9LengthBoxneERKS0_
__ZN7CyberCore10ScrollView24setScrollbarOverlayStyleENS_21ScrollbarOverlayStyleE
__ZNK7CyberCore12RenderObject24canHaveGeneratedChildrenEv
__ZNK7CyberCore12RenderObject20getCachedPseudoStyleENS_8PseudoIdEPNS_11RenderStyleE
__ZN7CyberCore18HTMLDocumentParser35executeScriptsWaitingForStylesheetsEv
__ZN7CyberCore16HTMLStyleElement43notifyLoadedSheetAndAllCriticalSubresourcesEb
__ZN7CyberCore11EventSenderINS_16HTMLStyleElementEE17dispatchEventSoonEPS1_
__ZN3WTF6VectorIPN7CyberCore16HTMLStyleElementELm0ENS_15CrashOnOverflowEE14expandCapacityEmPKS3_
__ZN3WTF6VectorIPN7CyberCore16HTMLStyleElementELm0ENS_15CrashOnOverflowEE15reserveCapacityEm
__ZN7CyberCore4Text20textRendererIsNeededERKNS_20NodeRenderingContextE
__ZNK7CyberCore13CharacterData22containsOnlyWhitespaceEv
__ZNK7CyberCore20NodeRenderingContext14parentRendererEv
__ZNK7CyberCore12RenderObject10isFrameSetEv
__ZNK7CyberCore20NodeRenderingContext16previousRendererEv
__ZNK7CyberCore12RenderObject14isRenderInlineEv
__ZN7CyberCore22ApplyPropertyTextAlign10applyValueENS_13CSSPropertyIDEPNS_13StyleResolverEPNS_8CSSValueE
__ZN3WTF13hashTableSwapIjN7CyberCore13StyleResolver26MatchedPropertiesCacheItemEEEvRNS_12KeyValuePairIT_T0_EES8_
__ZN7CyberCore13StyleResolver26MatchedPropertiesCacheItemaSEOS1_
__ZN7CyberCore19ApplyPropertyLengthIXadL_ZNKS_11RenderStyle5widthEvEEXadL_ZNS1_8setWidthENS_6LengthEEEXadL_ZNS1_11initialSizeEvEELNS_10LengthAutoE1ELNS_21LengthLegacyIntrinsicE1ELNS_15LengthIntrinsicE1ELNS_10LengthNoneE0ELNS_15LengthUndefinedE0EE10applyValueENS_13CSSPropertyIDEPNS_13StyleResolverEPNS_8CSSValueE
__ZN7CyberCore11RenderStyle8setWidthENS_6LengthE
__ZN7CyberCore9CSSParser8parseURIIhEEvRNS_15CSSParserStringE
__ZN7CyberCore9CSSParser7findURIIhEEbRPT_S4_Rt
__ZN7CyberCore9CSSParser16parseURIInternalIhhEEbRPT_RPT0_t
__ZN7CyberCore9CSSParser11completeURLERKNS_16CSSParserContextERKN3WTF6StringE
__ZN7CyberCore13CSSImageValueC1ERKN3WTF6StringE
__ZN7CyberCore9CSSParser15parseFillRepeatERN3WTF6RefPtrINS_8CSSValueEEES5_
__ZN7CyberCore25StyleInvalidationAnalysisC1ERKN3WTF6VectorIPNS_18StyleSheetContentsELm0ENS1_15CrashOnOverflowEEE
__ZN7CyberCore25StyleInvalidationAnalysis17analyzeStyleSheetEPNS_18StyleSheetContentsE
__ZN7CyberCore25StyleInvalidationAnalysis15invalidateStyleEPNS_8DocumentE
__ZN7CyberCore13NodeTraversal19nextAncestorSiblingEPKNS_4NodeE
__ZN7CyberCore13CSSToStyleMap12mapFillImageENS_13CSSPropertyIDEPNS_9FillLayerEPNS_8CSSValueE
__ZN7CyberCore13StyleResolver10styleImageENS_13CSSPropertyIDEPNS_8CSSValueE
__ZN7CyberCore13StyleResolver24cachedOrPendingFromValueENS_13CSSPropertyIDEPNS_13CSSImageValueE
__ZN7CyberCore13CSSImageValue20cachedOrPendingImageEv
__ZN3WTF9HashTableIN7CyberCore13CSSPropertyIDENS_12KeyValuePairIS2_NS_6RefPtrINS1_8CSSValueEEEEENS_24KeyValuePairKeyExtractorIS7_EENS_7IntHashIjEENS_18HashMapValueTraitsINS_10HashTraitsIS2_EENSD_IS6_EEEESE_E16lookupForWritingINS_22IdentityHashTranslatorISB_EES2_EENSt3__14pairIPS7_bEERKT0_
__ZN3WTF9HashTableIN7CyberCore13CSSPropertyIDENS_12KeyValuePairIS2_NS_6RefPtrINS1_8CSSValueEEEEENS_24KeyValuePairKeyExtractorIS7_EENS_7IntHashIjEENS_18HashMapValueTraitsINS_10HashTraitsIS2_EENSD_IS6_EEEESE_E3addINS_17HashMapTranslatorISG_SB_EES2_NS_10PassRefPtrIS5_EEEENS_18HashTableAddResultINS_17HashTableIteratorIS2_S7_S9_SB_SG_SE_EEEERKT0_RKT1_
__ZN3WTF9HashTableIN7CyberCore13CSSPropertyIDENS_12KeyValuePairIS2_NS_6RefPtrINS1_8CSSValueEEEEENS_24KeyValuePairKeyExtractorIS7_EENS_7IntHashIjEENS_18HashMapValueTraitsINS_10HashTraitsIS2_EENSD_IS6_EEEESE_E6lookupINS_22IdentityHashTranslatorISB_EES2_EEPS7_RKT0_
__ZN3WTF9HashTableIN7CyberCore13CSSPropertyIDENS_12KeyValuePairIS2_NS_6RefPtrINS1_8CSSValueEEEEENS_24KeyValuePairKeyExtractorIS7_EENS_7IntHashIjEENS_18HashMapValueTraitsINS_10HashTraitsIS2_EENSD_IS6_EEEESE_E6rehashEi
__ZN7CyberCore13CSSToStyleMap14mapFillRepeatXENS_13CSSPropertyIDEPNS_9FillLayerEPNS_8CSSValueE
__ZN7CyberCore13CSSToStyleMap14mapFillRepeatYENS_13CSSPropertyIDEPNS_9FillLayerEPNS_8CSSValueE
__ZN7CyberCore13StyleResolver16loadPendingImageEPNS_17StylePendingImageE
__ZN7CyberCore13CSSImageValue11cachedImageEPNS_20CachedResourceLoaderE
__ZN7CyberCore20CachedResourceLoader12requestImageERNS_21CachedResourceRequestE
__ZNK7CyberCore21ContentSecurityPolicy20allowImageFromSourceERKNS_4KURLENS0_15ReportingStatusE
__ZN7CyberCore21isAllowedByAllWithURLIXadL_ZNKS_16CSPDirectiveList20allowImageFromSourceERKNS_4KURLENS_21ContentSecurityPolicy15ReportingStatusEEEEEbRKN3WTF6VectorINS7_6OwnPtrIS1_EELm0ENS7_15CrashOnOverflowEEES4_S6_
__ZNK7CyberCore19MixedContentChecker25canDisplayInsecureContentEPNS_14SecurityOriginERKNS_4KURLE
__ZN7CyberCore14SecurityOrigin8isSecureERKNS_4KURLE
__ZN7CyberCore14SchemeRegistry28shouldTreatURLSchemeAsSecureERKN3WTF6StringE
__ZN7CyberCoreL13secureSchemesEv
__ZN7CyberCore11CachedImageC1ERKNS_15ResourceRequestE
__ZN7CyberCore11CachedImage4loadEPNS_20CachedResourceLoaderERKNS_21ResourceLoaderOptionsE
__ZN7CyberCore16StyleCachedImageC1EPNS_11CachedImageE
__ZN7CyberCore11CachedImage12didAddClientEPNS_20CachedResourceClientE
__ZN7CyberCore17StylePendingImageD0Ev
__ZN7CyberCore16StyleCachedImage9addClientEPNS_12RenderObjectE
__ZN7CyberCore13StyledElement21styleAttributeChangedERKN3WTF12AtomicStringENS_7Element27AttributeModificationReasonE
__ZN7CyberCore13StyledElement24setInlineStyleFromStringERKN3WTF12AtomicStringE
__ZN7CyberCore9CSSParser27parseInlineStyleDeclarationERKN3WTF6StringEPNS_7ElementE
__ZN7CyberCore8Document12elementSheetEv
__ZN7CyberCore9CSSParser16parseDeclarationERKN3WTF6StringEPNS_18StyleSheetContentsE
__ZN7CyberCore19ApplyPropertyLengthIXadL_ZNKS_11RenderStyle6heightEvEEXadL_ZNS1_9setHeightENS_6LengthEEEXadL_ZNS1_11initialSizeEvEELNS_10LengthAutoE1ELNS_21LengthLegacyIntrinsicE1ELNS_15LengthIntrinsicE0ELNS_10LengthNoneE0ELNS_15LengthUndefinedE0EE10applyValueENS_13CSSPropertyIDEPNS_13StyleResolverEPNS_8CSSValueE
__ZN7CyberCore11RenderStyle9setHeightENS_6LengthE
__ZN7CyberCore25HTMLFormattingElementList29closestElementInScopeWithNameERKN3WTF12AtomicStringE
__ZN7CyberCore20HTMLConstructionSite23insertFormattingElementEPNS_15AtomicHTMLTokenE
__ZN7CyberCoreL17anchorConstructorERKNS_13QualifiedNameEPNS_8DocumentEPNS_15HTMLFormElementEb
__ZN7CyberCore17HTMLAnchorElement6createERKNS_13QualifiedNameEPNS_8DocumentE
__ZN7CyberCore17HTMLAnchorElementC2ERKNS_13QualifiedNameEPNS_8DocumentE
__ZN7CyberCore17HTMLAnchorElement14parseAttributeERKNS_13QualifiedNameERKN3WTF12AtomicStringE
__ZN7CyberCore7Element17didAffectSelectorEi
__ZNK7CyberCore16HTMLElementStack9topRecordEv
__ZN7CyberCore25HTMLFormattingElementList6appendEN3WTF10PassRefPtrINS_13HTMLStackItemEEE
__ZN7CyberCore25HTMLFormattingElementList23ensureNoahsArkConditionEPNS_13HTMLStackItemE
__ZN7CyberCore25HTMLFormattingElementList35tryToEnsureNoahsArkConditionQuicklyEPNS_13HTMLStackItemERN3WTF6VectorIS2_Lm0ENS3_15CrashOnOverflowEEE
__ZN3WTF6VectorIN7CyberCore25HTMLFormattingElementList5EntryELm0ENS_15CrashOnOverflowEE15reserveCapacityEm
__ZN7CyberCore16VisitedLinkState26determineLinkStateSlowCaseEPNS_7ElementE
__ZN7CyberCore15visitedLinkHashERKNS_4KURLERKN3WTF12AtomicStringE
__ZN3WTF9HashTableIyyNS_17IdentityExtractorEN7CyberCore12LinkHashHashENS_10HashTraitsIyEES5_E3addINS_22IdentityHashTranslatorIS3_EEyyEENS_18HashTableAddResultINS_17HashTableIteratorIyyS1_S3_S5_S5_EEEERKT0_RKT1_
__ZN3WTF9HashTableIyyNS_17IdentityExtractorEN7CyberCore12LinkHashHashENS_10HashTraitsIyEES5_E6rehashEi
__ZN7CyberCore15SelectorCheckerC1EPNS_8DocumentENS0_4ModeE
__ZNK7CyberCore15SelectorChecker5matchERKNS0_23SelectorCheckingContextERNS_8PseudoIdE
__ZNK7CyberCore15SelectorChecker8checkOneERKNS0_23SelectorCheckingContextE
__ZN7CyberCore11RenderStyle19setVisitedLinkColorERKNS_5ColorE
__ZN7CyberCore27ApplyPropertyTextDecoration10applyValueENS_13CSSPropertyIDEPNS_13StyleResolverEPNS_8CSSValueE
__ZN7CyberCore11RenderStyle17setTextDecorationENS_14TextDecorationE
__ZN7CyberCore15StyleVisualDataC1ERKS0_
__ZN7CyberCore15StyleVisualDataC2ERKS0_
__ZN7CyberCore19ApplyPropertyCursor10applyValueENS_13CSSPropertyIDEPNS_13StyleResolverEPNS_8CSSValueE
__ZN7CyberCore11RenderStyle15clearCursorListEv
__ZN7CyberCore12RenderInlineC1EPNS_7ElementE
__ZN7CyberCore12RenderInline14styleDidChangeENS_15StyleDifferenceEPKNS_11RenderStyleE
__ZN7CyberCore12RenderInline15updateFromStyleEv
__ZNK7CyberCore12RenderInline13requiresLayerEv
__ZNK7CyberCore9LengthBox7nonZeroEv
__ZNK7CyberCore12RenderInline15virtualChildrenEv
__ZN7CyberCore11RenderBlock26dirtyLinesFromChangedChildEPNS_12RenderObjectE
__ZN7CyberCore17RenderLineBoxList26dirtyLinesFromChangedChildEPNS_12RenderObjectES2_
__ZN7CyberCore12RenderInline8addChildEPNS_12RenderObjectES2_
__ZN7CyberCore12RenderInline28addChildIgnoringContinuationEPNS_12RenderObjectES2_
__ZN7CyberCore11RenderStyle31createAnonymousStyleWithDisplayEPKS0_NS_8EDisplayE
__ZNK7CyberCore12RenderInline14isRenderInlineEv
__ZN7CyberCore11RenderBlock15createAnonymousEPNS_8DocumentE
__ZNK7CyberCore12RenderObject12isListMarkerEv
__ZNK7CyberCore12RenderObject18isRenderFullScreenEv
__ZNK7CyberCore12RenderObject29isRenderFullScreenPlaceholderEv
__ZNK7CyberCore12RenderObject19isRenderMathMLBlockEv
__ZN7CyberCore20RenderBoxModelObject15setContinuationEPS0_
__ZN7CyberCore12RenderInline9splitFlowEPNS_12RenderObjectEPNS_11RenderBlockES2_PNS_20RenderBoxModelObjectE
__ZN7CyberCore11RenderBlock17deleteLineBoxTreeEv
__ZN7CyberCore17RenderLineBoxList17deleteLineBoxTreeEPNS_11RenderArenaE
__ZN7CyberCore11RenderBlock43createAnonymousWithParentRendererAndDisplayEPKNS_12RenderObjectENS_8EDisplayE
__ZNK7CyberCore11RenderBlock32createAnonymousBoxWithSameTypeAsEPKNS_12RenderObjectE
__ZNK7CyberCore12RenderObject23isAnonymousColumnsBlockEv
__ZNK7CyberCore12RenderObject26isAnonymousColumnSpanBlockEv
__ZNK7CyberCore12RenderObject17isSelectionBorderEv
__ZN7CyberCore12RenderObject21willBeRemovedFromTreeEv
__ZN7CyberCore12RenderObject24setNeedsBoundariesUpdateEv
__ZN7CyberCore13RenderCounter23rendererRemovedFromTreeEPNS_12RenderObjectE
__ZN7CyberCore12RenderInline12splitInlinesEPNS_11RenderBlockES2_S2_PNS_12RenderObjectEPNS_20RenderBoxModelObjectE
__ZNK7CyberCore12RenderInline5cloneEv
__ZN3WTF9HashTableIPKN7CyberCore20RenderBoxModelObjectENS_12KeyValuePairIS4_PS2_EENS_24KeyValuePairKeyExtractorIS7_EENS_7PtrHashIS4_EENS_18HashMapValueTraitsINS_10HashTraitsIS4_EENSD_IS6_EEEESE_E16lookupForWritingINS_22IdentityHashTranslatorISB_EES4_EENSt3__14pairIPS7_bEERKT0_
__ZN3WTF9HashTableIPKN7CyberCore20RenderBoxModelObjectENS_12KeyValuePairIS4_PS2_EENS_24KeyValuePairKeyExtractorIS7_EENS_7PtrHashIS4_EENS_18HashMapValueTraitsINS_10HashTraitsIS4_EENSD_IS6_EEEESE_E3addINS_17HashMapTranslatorISG_SB_EES4_S6_EENS_18HashTableAddResultINS_17HashTableIteratorIS4_S7_S9_SB_SG_SE_EEEERKT0_RKT1_
__ZN3WTF9HashTableIPKN7CyberCore20RenderBoxModelObjectENS_12KeyValuePairIS4_PS2_EENS_24KeyValuePairKeyExtractorIS7_EENS_7PtrHashIS4_EENS_18HashMapValueTraitsINS_10HashTraitsIS4_EENSD_IS6_EEEESE_E6lookupINS_22IdentityHashTranslatorISB_EES4_EEPS7_RKT0_
__ZN3WTF9HashTableIPKN7CyberCore20RenderBoxModelObjectENS_12KeyValuePairIS4_PS2_EENS_24KeyValuePairKeyExtractorIS7_EENS_7PtrHashIS4_EENS_18HashMapValueTraitsINS_10HashTraitsIS4_EENSD_IS6_EEEESE_E6shrinkEv
__ZN7CyberCore15HTMLTreeBuilder21callTheAdoptionAgencyEPNS_15AtomicHTMLTokenE
__ZNK7CyberCore16HTMLElementStack8containsEPNS_7ElementE
__ZNK7CyberCore16HTMLElementStack7inScopeEPNS_7ElementE
__ZNK7CyberCore16HTMLElementStack4findEPNS_7ElementE
__ZNK7CyberCore16HTMLElementStack33furthestBlockForFormattingElementEPNS_7ElementE
__ZN7CyberCore16HTMLElementStack14popUntilPoppedEPNS_7ElementE
__ZN7CyberCore25HTMLFormattingElementList6removeEPNS_7ElementE
__ZN3WTF6VectorIN7CyberCore25HTMLFormattingElementList5EntryELm0ENS_15CrashOnOverflowEE6removeEm
__ZN7CyberCore25HTMLFormattingElementList5EntryD2Ev
__ZNK7CyberCore12RenderObject4isBREv
__ZN7CyberCore23SelectorCheckerFastPathC1EPKNS_11CSSSelectorEPKNS_7ElementE
__ZNK7CyberCore23SelectorCheckerFastPath7matchesEv
__ZN7CyberCore20ApplyPropertyDefaultINS_6EFloatEXadL_ZNKS_11RenderStyle8floatingEvEES1_XadL_ZNS2_11setFloatingES1_EES1_XadL_ZNS2_15initialFloatingEvEEE10applyValueENS_13CSSPropertyIDEPNS_13StyleResolverEPNS_8CSSValueE
__ZN7CyberCore23ApplyPropertyFontWeight10applyValueENS_13CSSPropertyIDEPNS_13StyleResolverEPNS_8CSSValueE
__ZN7CyberCore11CSSProperty29resolveDirectionAwarePropertyENS_13CSSPropertyIDENS_13TextDirectionENS_11WritingModeE
__ZN7CyberCore4Text18createTextRendererEPNS_11RenderArenaEPNS_11RenderStyleE
__ZN7CyberCore10RenderTextC1EPNS_4NodeEN3WTF10PassRefPtrINS3_10StringImplEEE
__ZN7CyberCore10RenderTextC2EPNS_4NodeEN3WTF10PassRefPtrINS3_10StringImplEEE
__ZN7CyberCore10RenderText15styleWillChangeENS_15StyleDifferenceEPKNS_11RenderStyleE
__ZN7CyberCore10RenderText14styleDidChangeENS_15StyleDifferenceEPKNS_11RenderStyleE
__ZNK7CyberCore12TextEncoding25backslashAsCurrencySymbolEv
__ZNK7CyberCore12RenderObject15virtualChildrenEv
__ZNK7CyberCore11RenderStyle20hasUniquePseudoStyleEv
__ZNK7CyberCore20HTMLParagraphElement23isPresentationAttributeERKNS_13QualifiedNameE
__ZN7CyberCore9FrameView21setIsVisuallyNonEmptyEv
__ZNK7CyberCore13StyleResolver52sharingCandidateHasIdenticalStyleAffectingAttributesEPNS_13StyledElementE
__ZNK7CyberCore17CSSPrimitiveValue13computeLengthIiEET_PKNS_11RenderStyleES5_fb
__ZN7CyberCore11RenderStyle12setBoxShadowEN3WTF10PassOwnPtrINS_10ShadowDataEEEb
__ZN7CyberCore25StyleRareNonInheritedDataC1ERKS0_
__ZN7CyberCore25StyleRareNonInheritedDataC2ERKS0_
__ZN7CyberCore26ApplyPropertyComputeLengthIjXadL_ZNKS_11RenderStyle14borderTopWidthEvEEXadL_ZNS1_17setBorderTopWidthEjEEXadL_ZNS1_18initialBorderWidthEvEELNS_19ComputeLengthNormalE0ELNS_22ComputeLengthThicknessE1ELNS_20ComputeLengthSVGZoomE0EE10applyValueENS_13CSSPropertyIDEPNS_13StyleResolverEPNS_8CSSValueE
__ZNK7CyberCore17CSSPrimitiveValue13computeLengthIjEET_PKNS_11RenderStyleES5_fb
__ZN7CyberCore11RenderStyle17setBorderTopWidthEj
__ZN7CyberCore26ApplyPropertyComputeLengthIjXadL_ZNKS_11RenderStyle16borderRightWidthEvEEXadL_ZNS1_19setBorderRightWidthEjEEXadL_ZNS1_18initialBorderWidthEvEELNS_19ComputeLengthNormalE0ELNS_22ComputeLengthThicknessE1ELNS_20ComputeLengthSVGZoomE0EE10applyValueENS_13CSSPropertyIDEPNS_13StyleResolverEPNS_8CSSValueE
__ZN7CyberCore11RenderStyle19setBorderRightWidthEj
__ZN7CyberCore26ApplyPropertyComputeLengthIjXadL_ZNKS_11RenderStyle17borderBottomWidthEvEEXadL_ZNS1_20setBorderBottomWidthEjEEXadL_ZNS1_18initialBorderWidthEvEELNS_19ComputeLengthNormalE0ELNS_22ComputeLengthThicknessE1ELNS_20ComputeLengthSVGZoomE0EE10applyValueENS_13CSSPropertyIDEPNS_13StyleResolverEPNS_8CSSValueE
__ZN7CyberCore11RenderStyle20setBorderBottomWidthEj
__ZN7CyberCore26ApplyPropertyComputeLengthIjXadL_ZNKS_11RenderStyle15borderLeftWidthEvEEXadL_ZNS1_18setBorderLeftWidthEjEEXadL_ZNS1_18initialBorderWidthEvEELNS_19ComputeLengthNormalE0ELNS_22ComputeLengthThicknessE1ELNS_20ComputeLengthSVGZoomE0EE10applyValueENS_13CSSPropertyIDEPNS_13StyleResolverEPNS_8CSSValueE
__ZN7CyberCore11RenderStyle18setBorderLeftWidthEj
__ZN7CyberCore20ApplyPropertyDefaultINS_12EBorderStyleEXadL_ZNKS_11RenderStyle14borderTopStyleEvEES1_XadL_ZNS2_17setBorderTopStyleES1_EES1_XadL_ZNS2_18initialBorderStyleEvEEE10applyValueENS_13CSSPropertyIDEPNS_13StyleResolverEPNS_8CSSValueE
__ZN7CyberCore11RenderStyle17setBorderTopStyleENS_12EBorderStyleE
__ZN7CyberCore20ApplyPropertyDefaultINS_12EBorderStyleEXadL_ZNKS_11RenderStyle16borderRightStyleEvEES1_XadL_ZNS2_19setBorderRightStyleES1_EES1_XadL_ZNS2_18initialBorderStyleEvEEE10applyValueENS_13CSSPropertyIDEPNS_13StyleResolverEPNS_8CSSValueE
__ZN7CyberCore11RenderStyle19setBorderRightStyleENS_12EBorderStyleE
__ZN7CyberCore20ApplyPropertyDefaultINS_12EBorderStyleEXadL_ZNKS_11RenderStyle17borderBottomStyleEvEES1_XadL_ZNS2_20setBorderBottomStyleES1_EES1_XadL_ZNS2_18initialBorderStyleEvEEE10applyValueENS_13CSSPropertyIDEPNS_13StyleResolverEPNS_8CSSValueE
__ZN7CyberCore11RenderStyle20setBorderBottomStyleENS_12EBorderStyleE
__ZN7CyberCore20ApplyPropertyDefaultINS_12EBorderStyleEXadL_ZNKS_11RenderStyle15borderLeftStyleEvEES1_XadL_ZNS2_18setBorderLeftStyleES1_EES1_XadL_ZNS2_18initialBorderStyleEvEEE10applyValueENS_13CSSPropertyIDEPNS_13StyleResolverEPNS_8CSSValueE
__ZN7CyberCore11RenderStyle18setBorderLeftStyleENS_12EBorderStyleE
__ZN7CyberCore11RenderStyle17setBorderTopColorERKNS_5ColorE
__ZN7CyberCore11RenderStyle19setBorderRightColorERKNS_5ColorE
__ZN7CyberCore11RenderStyle20setBorderBottomColorERKNS_5ColorE
__ZN7CyberCore11RenderStyle18setBorderLeftColorERKNS_5ColorE
__ZN7CyberCore11RenderStyle20setBorderImageSourceEN3WTF10PassRefPtrINS_10StyleImageEEE
__ZN7CyberCore32ApplyPropertyBorderImageModifierILNS_15BorderImageTypeE0ELNS_23BorderImageModifierTypeE2EE17applyInitialValueENS_13CSSPropertyIDEPNS_13StyleResolverE
__ZN7CyberCore14NinePieceImage14setImageSlicesERKNS_9LengthBoxE
__ZN7CyberCore11RenderStyle14setBorderImageERKNS_14NinePieceImageE
__ZNK7CyberCore18NinePieceImageDataeqERKS0_
__ZN7CyberCore18NinePieceImageDataD2Ev
__ZN7CyberCore32ApplyPropertyBorderImageModifierILNS_15BorderImageTypeE0ELNS_23BorderImageModifierTypeE3EE17applyInitialValueENS_13CSSPropertyIDEPNS_13StyleResolverE
__ZN7CyberCore14NinePieceImage15setBorderSlicesERKNS_9LengthBoxE
__ZN7CyberCore32ApplyPropertyBorderImageModifierILNS_15BorderImageTypeE0ELNS_23BorderImageModifierTypeE0EE17applyInitialValueENS_13CSSPropertyIDEPNS_13StyleResolverE
__ZN7CyberCore14NinePieceImage9setOutsetERKNS_9LengthBoxE
__ZN7CyberCore32ApplyPropertyBorderImageModifierILNS_15BorderImageTypeE0ELNS_23BorderImageModifierTypeE1EE17applyInitialValueENS_13CSSPropertyIDEPNS_13StyleResolverE
__ZN7CyberCore25ApplyPropertyBorderRadiusIXadL_ZNKS_11RenderStyle19borderTopLeftRadiusEvEEXadL_ZNS1_22setBorderTopLeftRadiusENS_10LengthSizeEEEXadL_ZNS1_19initialBorderRadiusEvEEE10applyValueENS_13CSSPropertyIDEPNS_13StyleResolverEPNS_8CSSValueE
__ZN7CyberCore25ApplyPropertyBorderRadiusIXadL_ZNKS_11RenderStyle19borderTopLeftRadiusEvEEXadL_ZNS1_22setBorderTopLeftRadiusENS_10LengthSizeEEEXadL_ZNS1_19initialBorderRadiusEvEEE8setValueEPS1_S2_
__ZN7CyberCore11RenderStyle22setBorderTopLeftRadiusENS_10LengthSizeE
__ZN7CyberCore25ApplyPropertyBorderRadiusIXadL_ZNKS_11RenderStyle20borderTopRightRadiusEvEEXadL_ZNS1_23setBorderTopRightRadiusENS_10LengthSizeEEEXadL_ZNS1_19initialBorderRadiusEvEEE10applyValueENS_13CSSPropertyIDEPNS_13StyleResolverEPNS_8CSSValueE
__ZN7CyberCore25ApplyPropertyBorderRadiusIXadL_ZNKS_11RenderStyle20borderTopRightRadiusEvEEXadL_ZNS1_23setBorderTopRightRadiusENS_10LengthSizeEEEXadL_ZNS1_19initialBorderRadiusEvEEE8setValueEPS1_S2_
__ZN7CyberCore11RenderStyle23setBorderTopRightRadiusENS_10LengthSizeE
__ZN7CyberCore25ApplyPropertyBorderRadiusIXadL_ZNKS_11RenderStyle23borderBottomRightRadiusEvEEXadL_ZNS1_26setBorderBottomRightRadiusENS_10LengthSizeEEEXadL_ZNS1_19initialBorderRadiusEvEEE10applyValueENS_13CSSPropertyIDEPNS_13StyleResolverEPNS_8CSSValueE
__ZN7CyberCore25ApplyPropertyBorderRadiusIXadL_ZNKS_11RenderStyle23borderBottomRightRadiusEvEEXadL_ZNS1_26setBorderBottomRightRadiusENS_10LengthSizeEEEXadL_ZNS1_19initialBorderRadiusEvEEE8setValueEPS1_S2_
__ZN7CyberCore11RenderStyle26setBorderBottomRightRadiusENS_10LengthSizeE
__ZN7CyberCore25ApplyPropertyBorderRadiusIXadL_ZNKS_11RenderStyle22borderBottomLeftRadiusEvEEXadL_ZNS1_25setBorderBottomLeftRadiusENS_10LengthSizeEEEXadL_ZNS1_19initialBorderRadiusEvEEE10applyValueENS_13CSSPropertyIDEPNS_13StyleResolverEPNS_8CSSValueE
__ZN7CyberCore25ApplyPropertyBorderRadiusIXadL_ZNKS_11RenderStyle22borderBottomLeftRadiusEvEEXadL_ZNS1_25setBorderBottomLeftRadiusENS_10LengthSizeEEEXadL_ZNS1_19initialBorderRadiusEvEEE8setValueEPS1_S2_
__ZN7CyberCore11RenderStyle25setBorderBottomLeftRadiusENS_10LengthSizeE
__ZN7CyberCore12RenderInline15virtualChildrenEv
__ZN7CyberCore12RenderInline26dirtyLinesFromChangedChildEPNS_12RenderObjectE
__ZNK7CyberCore12RenderObject13isRenderBlockEv
__ZN7CyberCore12RenderObject23setAncestorLineBoxDirtyEb
__ZN3WTF9HashTableIPKN7CyberCore12RenderObjectES4_NS_17IdentityExtractorENS_7PtrHashIS4_EENS_10HashTraitsIS4_EES9_E3addINS_22IdentityHashTranslatorIS7_EES4_S4_EENS_18HashTableAddResultINS_17HashTableIteratorIS4_S4_S5_S7_S9_S9_EEEERKT0_RKT1_
__ZN3WTF9HashTableIPKN7CyberCore12RenderObjectES4_NS_17IdentityExtractorENS_7PtrHashIS4_EENS_10HashTraitsIS4_EES9_E6rehashEi
__ZN3WTF9HashTableIPKN7CyberCore12RenderObjectES4_NS_17IdentityExtractorENS_7PtrHashIS4_EENS_10HashTraitsIS4_EES9_E6lookupINS_22IdentityHashTranslatorIS7_EES4_EEPS4_RKT0_
__ZNK7CyberCore12RenderInline24culledInlineFirstLineBoxEv
__ZN7CyberCore15HTMLTreeBuilder19processFakeStartTagERKNS_13QualifiedNameERKN3WTF6VectorINS_9AttributeELm0ENS4_15CrashOnOverflowEEE
__ZN7CyberCore13StyleResolver35styleSharingCandidateMatchesRuleSetEPNS_7RuleSetE
__ZN7CyberCore20ElementRuleCollector19hasAnyMatchingRulesEPNS_7RuleSetE
__ZN7CyberCore11RenderStyle20copyNonInheritedFromEPKS0_
__ZNK7CyberCore11RenderStyle19inheritedDataSharedEPKS0_
__ZN3WTF9HashTableIyyNS_17IdentityExtractorEN7CyberCore12LinkHashHashENS_10HashTraitsIyEES5_E4findINS_22IdentityHashTranslatorIS3_EEyEENS_17HashTableIteratorIyyS1_S3_S5_S5_EERKT0_
__ZN3WTF9HashTableIPKN7CyberCore12RenderObjectES4_NS_17IdentityExtractorENS_7PtrHashIS4_EENS_10HashTraitsIS4_EES9_E16lookupForWritingINS_22IdentityHashTranslatorIS7_EES4_EENSt3__14pairIPS4_bEERKT0_
__ZN7CyberCoreL13hrConstructorERKNS_13QualifiedNameEPNS_8DocumentEPNS_15HTMLFormElementEb
__ZN7CyberCore13HTMLHRElement6createERKNS_13QualifiedNameEPNS_8DocumentE
__ZN7CyberCore13HTMLHRElementC2ERKNS_13QualifiedNameEPNS_8DocumentE
__ZN7CyberCoreL16olistConstructorERKNS_13QualifiedNameEPNS_8DocumentEPNS_15HTMLFormElementEb
__ZN7CyberCore16HTMLOListElement6createERKNS_13QualifiedNameEPNS_8DocumentE
__ZN7CyberCore16HTMLOListElementC2ERKNS_13QualifiedNameEPNS_8DocumentE
__ZN7CyberCore20ApplyPropertyDefaultINS_14EListStyleTypeEXadL_ZNKS_11RenderStyle13listStyleTypeEvEES1_XadL_ZNS2_16setListStyleTypeES1_EES1_XadL_ZNS2_20initialListStyleTypeEvEEE10applyValueENS_13CSSPropertyIDEPNS_13StyleResolverEPNS_8CSSValueE
__ZN7CyberCore20ApplyPropertyDefaultINS_18EListStylePositionEXadL_ZNKS_11RenderStyle17listStylePositionEvEES1_XadL_ZNS2_20setListStylePositionES1_EES1_XadL_ZNS2_24initialListStylePositionEvEEE10applyValueENS_13CSSPropertyIDEPNS_13StyleResolverEPNS_8CSSValueE
__ZNK7CyberCore13HTMLStackItem13isSpecialNodeEv
__ZN7CyberCoreL13liConstructorERKNS_13QualifiedNameEPNS_8DocumentEPNS_15HTMLFormElementEb
__ZN7CyberCore13HTMLLIElement6createERKNS_13QualifiedNameEPNS_8DocumentE
__ZN7CyberCore13HTMLLIElementC2ERKNS_13QualifiedNameEPNS_8DocumentE
__ZN7CyberCore13HTMLLIElement6attachERKNS_4Node13AttachContextE
__ZN7CyberCore14RenderListItemC1EPNS_7ElementE
__ZN7CyberCore14RenderListItem14styleDidChangeENS_15StyleDifferenceEPKNS_11RenderStyleE
__ZN7CyberCore16RenderListMarker15createAnonymousEPNS_14RenderListItemE
__ZN7CyberCore16RenderListMarker15styleWillChangeENS_15StyleDifferenceEPKNS_11RenderStyleE
__ZN7CyberCore16RenderListMarker14styleDidChangeENS_15StyleDifferenceEPKNS_11RenderStyleE
__ZNK7CyberCore11RenderStyle14listStyleImageEv
__ZN7CyberCore14RenderListItem16insertedIntoTreeEv
__ZN7CyberCore14RenderListItem23updateListMarkerNumbersEv
__ZN7CyberCoreL12nextListItemEPKNS_4NodeEPKNS_14RenderListItemE
__ZN7CyberCore13NodeTraversal19nextIncludingPseudoEPKNS_4NodeES3_
__ZNK7CyberCore4Node21pseudoAwareFirstChildEv
__ZNK7CyberCore7Element13pseudoElementENS_8PseudoIdE
__ZNK7CyberCore4Node22pseudoAwareNextSiblingEv
__ZNK7CyberCore14RenderListItem10isListItemEv
__ZN7CyberCore14RenderListItem18clearExplicitValueEv
__ZNK7CyberCore16HTMLElementStack15inListItemScopeERKN3WTF12AtomicStringE
__ZN7CyberCore13CharacterData16parserAppendDataERKN3WTF6StringEjj
__ZN7CyberCore4Text18updateTextRendererEjj
-[CyberCoreResourceHandleAsDelegate connection:willCacheResponse:]
-[CyberCoreResourceHandleAsDelegate connectionDidFinishLoading:]
__ZN7CyberCore14ResourceLoader16didFinishLoadingEPNS_14ResourceHandleEd
__ZN7CyberCore21ResourceLoadScheduler20servePendingRequestsENS_20ResourceLoadPriorityE
__ZN3WTF6VectorIPN7CyberCore21ResourceLoadScheduler15HostInformationELm0ENS_15CrashOnOverflowEE14expandCapacityEmPKS4_
__ZN3WTF6VectorIPN7CyberCore21ResourceLoadScheduler15HostInformationELm0ENS_15CrashOnOverflowEE15reserveCapacityEm
__ZN7CyberCore21ResourceLoadScheduler6removeEPNS_14ResourceLoaderE
__ZN7CyberCore21ResourceLoadScheduler15HostInformation6removeEPNS_14ResourceLoaderE
__ZN7CyberCore14ResourceHandle9setClientEPNS_20ResourceHandleClientE
-[CyberCoreResourceHandleAsDelegate detachHandle]
__ZN7CyberCore5TimerINS_11EventSenderINS_16HTMLStyleElementEEEE5firedEv
__ZN7CyberCore11EventSenderINS_16HTMLStyleElementEE10timerFiredEPNS_5TimerIS2_EE
__ZN7CyberCore16HTMLStyleElement20dispatchPendingEventEPNS_11EventSenderIS0_EE
__ZN7CyberCore5TimerINS_20CachedResourceLoaderEE5firedEv
__ZN7CyberCore20CachedResourceLoader41garbageCollectDocumentResourcesTimerFiredEPNS_5TimerIS0_EE
__ZN7CyberCore20CachedResourceLoader31garbageCollectDocumentResourcesEv
__ZN7CyberCore5TimerINS_21ResourceLoadSchedulerEE5firedEv
__ZN7CyberCore21ResourceLoadScheduler17requestTimerFiredEPNS_5TimerIS0_EE
__ZN3WTF7HashMapINS_6StringEPN7CyberCore21ResourceLoadScheduler15HostInformationENS_10StringHashENS_10HashTraitsIS1_EENS7_IS5_EEE4takeERKS1_
__ZN7CyberCore21ResourceLoadScheduler15HostInformationD2Ev
__ZN3WTF5DequeINS_6RefPtrIN7CyberCore14ResourceLoaderEEELm0EE10destroyAllEv
__ZN7CyberCore4Page27privateBrowsingStateChangedEv
__ZN7CyberCore8Document29privateBrowsingStateDidChangeEv
__ZN7CyberCore11CachedImage16responseReceivedERKNS_16ResourceResponseE
__ZN7CyberCore11CachedImage13addDataBufferEPNS_14ResourceBufferE
__ZN7CyberCore11CachedImage24addIncrementalDataBufferEPNS_14ResourceBufferE
__ZN7CyberCore11CachedImage11createImageEv
__ZNK7CyberCore5Image17usesContainerSizeEv
__ZThn816_N7CyberCore11CachedImage18decodedSizeChangedEPKNS_5ImageEi
__ZN7CyberCore14CachedResource14setDecodedSizeEj
__ZN7CyberCore11MemoryCache32insertInLiveDecodedResourcesListEPNS_14CachedResourceE
__ZNK7CyberCore11CachedImage10canBeDrawnEv
__ZNK7CyberCore11BitmapImage4sizeEv
__ZNK7CyberCore11BitmapImage10updateSizeEv
__ZNK7CyberCore11ImageSource4sizeENS_27RespectImageOrientationEnumE
__ZN7CyberCore11CachedImage15notifyObserversEPKNS_7IntRectE
__ZN7CyberCore26CachedResourceClientWalkerINS_17CachedImageClientEEC2ERKN3WTF14HashCountedSetIPNS_20CachedResourceClientENS3_7PtrHashIS6_EENS3_10HashTraitsIS6_EEEE
__ZN7CyberCore17CachedImageClient12imageChangedEPNS_11CachedImageEPKNS_7IntRectE
__ZN7CyberCore12RenderObject12imageChangedEPNS_11CachedImageEPKNS_7IntRectE
__ZN7CyberCore9RenderBox12imageChangedEPvPKNS_7IntRectE
__ZN7CyberCore9RenderBox25repaintLayerRectsForImageEPvPKNS_9FillLayerEb
__ZNK7CyberCore16StyleCachedImage4dataEv
__ZNK7CyberCore16StyleCachedImage9canRenderEPKNS_12RenderObjectEf
__ZN7CyberCore11CachedImage20imageSizeForRendererEPKNS_12RenderObjectEf
__ZNK7CyberCore11BitmapImage13isBitmapImageEv
__ZNK7CyberCore12RenderObject29shouldRespectImageOrientationEv
__ZNK7CyberCore5Image10isSVGImageEv
__ZNK7CyberCore20RenderBoxModelObject32calculateBackgroundImageGeometryEPKNS_22RenderLayerModelObjectEPKNS_9FillLayerERKNS_10LayoutRectERNS0_23BackgroundImageGeometryEPNS_12RenderObjectE
__ZNK7CyberCore20RenderBoxModelObject21calculateFillTileSizeEPKNS_9FillLayerERKNS_7IntSizeE
__ZNK7CyberCore9FillLayer4sizeEv
__ZNK7CyberCore20RenderBoxModelObject33calculateImageIntrinsicDimensionsEPNS_10StyleImageERKNS_7IntSizeENS0_25ScaleByEffectiveZoomOrNotE
__ZN7CyberCore16StyleCachedImage26computeIntrinsicDimensionsEPKNS_12RenderObjectERNS_6LengthES5_RNS_9FloatSizeE
__ZN7CyberCore11CachedImage26computeIntrinsicDimensionsERNS_6LengthES2_RNS_9FloatSizeE
__ZN7CyberCore5Image26computeIntrinsicDimensionsERNS_6LengthES2_RNS_9FloatSizeE
__ZNK7CyberCore10StyleImage16imageScaleFactorEv
__ZN7CyberCore16StyleCachedImage27setContainerSizeForRendererEPKNS_12RenderObjectERKNS_7IntSizeEf
__ZN7CyberCore11CachedImage27setContainerSizeForRendererEPKNS_17CachedImageClientERKNS_7IntSizeEf
__ZN7CyberCore5Image16setContainerSizeERKNS_7IntSizeE
__ZNK7CyberCore12RenderObject16repaintRectangleERKNS_10LayoutRectEb
__ZN7CyberCore14ResourceLoader17willCacheResponseEPNS_14ResourceHandleEP19NSCachedURLResponse
__ZN7CyberCore11CachedImage13finishLoadingEPNS_14ResourceBufferE
__ZN7CyberCore20CachedResourceClient14notifyFinishedEPNS_14CachedResourceE
__ZN7CyberCore17isMatchingElementINS_14HTMLCollectionEEEbPKT_PNS_7ElementE
__ZNK7CyberCore16LiveNodeListBase27itemBeforeOrAfterCachedItemEjPNS_13ContainerNodeE
__ZNK7CyberCore14HTMLCollection23traverseForwardToOffsetEjPNS_7ElementERjS3_PNS_13ContainerNodeE
__ZN7CyberCore13NodeTraversal19nextAncestorSiblingEPKNS_4NodeES3_
__ZNK7CyberCore15HTMLLinkElement8iconTypeEv
__ZNK7CyberCore15HTMLLinkElement4hrefEv
__ZNK7CyberCore15HTMLLinkElement9iconSizesEv
__ZNK7CyberCore15HTMLLinkElement4typeEv
__ZN3WTF6VectorIN7CyberCore7IconURLELm0ENS_15CrashOnOverflowEE14appendSlowCaseIS2_EEvRKT_
__ZN3WTF6VectorIN7CyberCore7IconURLELm0ENS_15CrashOnOverflowEE14expandCapacityEmPKS2_
__ZN3WTF6VectorIN7CyberCore7IconURLELm0ENS_15CrashOnOverflowEE15reserveCapacityEm
__ZN3WTF20VectorTypeOperationsIN7CyberCore7IconURLEE4moveEPKS2_S5_PS2_
__ZN7CyberCore7IconURLaSERKS0_
__ZN7CyberCoreeqERKNS_7IconURLES2_
__ZN7CyberCore14DocumentLoader29getIconLoadDecisionForIconURLERKN3WTF6StringE
__ZNK7CyberCore11FrameLoader14initialRequestEv
__ZNK7CyberCore12RenderObject12isRenderGridEv
__ZN7CyberCore12RenderInline27updateAlwaysCreateLineBoxesEb
__ZNK7CyberCore11RenderStyle16textEmphasisMarkEv
__ZN7CyberCore9FontCache11getFontDataERKNS_15FontDescriptionERiPNS_12FontSelectorE
__ZN7CyberCore15CSSFontSelector11getFontDataERKNS_15FontDescriptionERKN3WTF12AtomicStringE
__ZN7CyberCore9FontCache25getCachedFontPlatformDataERKNS_15FontDescriptionERKN3WTF12AtomicStringEb
__ZN7CyberCore9FontCache12platformInitEv
__ZN3WTF9HashTableIN7CyberCore24FontPlatformDataCacheKeyENS_12KeyValuePairIS2_NS_6OwnPtrINS1_16FontPlatformDataEEEEENS_24KeyValuePairKeyExtractorIS7_EENS1_28FontPlatformDataCacheKeyHashENS_18HashMapValueTraitsINS1_30FontPlatformDataCacheKeyTraitsENS_10HashTraitsIS6_EEEESC_E15deallocateTableEPS7_i
__ZN3WTF9HashTableIN7CyberCore24FontPlatformDataCacheKeyENS_12KeyValuePairIS2_NS_6OwnPtrINS1_16FontPlatformDataEEEEENS_24KeyValuePairKeyExtractorIS7_EENS1_28FontPlatformDataCacheKeyHashENS_18HashMapValueTraitsINS1_30FontPlatformDataCacheKeyTraitsENS_10HashTraitsIS6_EEEESC_E16lookupForWritingINS_22IdentityHashTranslatorISA_EES2_EENSt3__14pairIPS7_bEERKT0_
__ZN3WTF9HashTableIN7CyberCore24FontPlatformDataCacheKeyENS_12KeyValuePairIS2_NS_6OwnPtrINS1_16FontPlatformDataEEEEENS_24KeyValuePairKeyExtractorIS7_EENS1_28FontPlatformDataCacheKeyHashENS_18HashMapValueTraitsINS1_30FontPlatformDataCacheKeyTraitsENS_10HashTraitsIS6_EEEESC_E34removeWithoutEntryConsistencyCheckENS_17HashTableIteratorIS2_S7_S9_SA_SF_SC_EE
__ZN3WTF9HashTableIN7CyberCore24FontPlatformDataCacheKeyENS_12KeyValuePairIS2_NS_6OwnPtrINS1_16FontPlatformDataEEEEENS_24KeyValuePairKeyExtractorIS7_EENS1_28FontPlatformDataCacheKeyHashENS_18HashMapValueTraitsINS1_30FontPlatformDataCacheKeyTraitsENS_10HashTraitsIS6_EEEESC_E3addINS_17HashMapTranslatorISF_SA_EES2_NS_10PassOwnPtrIS5_EEEENS_18HashTableAddResultINS_17HashTableIteratorIS2_S7_S9_SA_SF_SC_EEEERKT0_RKT1_
__ZN3WTF9HashTableIN7CyberCore24FontPlatformDataCacheKeyENS_12KeyValuePairIS2_NS_6OwnPtrINS1_16FontPlatformDataEEEEENS_24KeyValuePairKeyExtractorIS7_EENS1_28FontPlatformDataCacheKeyHashENS_18HashMapValueTraitsINS1_30FontPlatformDataCacheKeyTraitsENS_10HashTraitsIS6_EEEESC_E6lookupINS_22IdentityHashTranslatorISA_EES2_EEPS7_RKT0_
__ZN3WTF9HashTableIN7CyberCore24FontPlatformDataCacheKeyENS_12KeyValuePairIS2_NS_6OwnPtrINS1_16FontPlatformDataEEEEENS_24KeyValuePairKeyExtractorIS7_EENS1_28FontPlatformDataCacheKeyHashENS_18HashMapValueTraitsINS1_30FontPlatformDataCacheKeyTraitsENS_10HashTraitsIS6_EEEESC_E6rehashEi
__ZN7CyberCore9FontCache22createFontPlatformDataERKNS_15FontDescriptionERKN3WTF12AtomicStringE
__ZNK7CyberCore14SimpleFontData9isLoadingEv
__ZNK7CyberCore11FontMetrics35hasIdenticalAscentDescentAndLineGapERKS0_
__ZNK7CyberCore11RenderStyle10lineHeightEv
__ZN7CyberCore12RenderInline14dirtyLineBoxesEb
__ZN3WTF7HashSetIPKN7CyberCore12RenderObjectENS_7PtrHashIS4_EENS_10HashTraitsIS4_EEE6removeERKS4_
__ZN7CyberCore11RenderBlock19layoutRunsAndFloatsERNS_15LineLayoutStateEb
__ZN7CyberCore11RenderBlock22determineStartPositionERNS_15LineLayoutStateERNS_12BidiResolverINS_14InlineIteratorENS_7BidiRunEEE
__ZN7CyberCore10BidiStatusC2ENS_13TextDirectionEb
__ZN7CyberCore11BidiContext6createEhN3WTF7Unicode9DirectionEbNS_19BidiEmbeddingSourceEPS0_
__ZN3WTF6RefPtrIN7CyberCore11BidiContextEED1Ev
__ZN7CyberCoreL29bidiFirstSkippingEmptyInlinesEPNS_12RenderObjectEPNS_12BidiResolverINS_14InlineIteratorENS_7BidiRunEEE
__ZN7CyberCore12BidiResolverINS_14InlineIteratorENS_7BidiRunEE23commitExplicitEmbeddingEv
__ZN7CyberCore11RenderBlock26layoutRunsAndFloatsInRangeERNS_15LineLayoutStateERNS_12BidiResolverINS_14InlineIteratorENS_7BidiRunEEERKS4_RKNS_10BidiStatusEj
__ZN7CyberCore11RenderBlock36updateShapeAndSegmentsForCurrentLineERPNS_15ShapeInsideInfoERNS_10LayoutUnitERNS_15LineLayoutStateE
__ZN7CyberCore11RenderBlock11LineBreaker13nextLineBreakERNS_12BidiResolverINS_14InlineIteratorENS_7BidiRunEEERNS_8LineInfoERNS0_14RenderTextInfoEPNS0_14FloatingObjectEjRN3WTF6VectorINS_15WordMeasurementELm64ENSD_15CrashOnOverflowEEE
__ZN7CyberCore11RenderBlock11LineBreaker16nextSegmentBreakERNS_12BidiResolverINS_14InlineIteratorENS_7BidiRunEEERNS_8LineInfoERNS0_14RenderTextInfoEPNS0_14FloatingObjectEjRN3WTF6VectorINS_15WordMeasurementELm64ENSD_15CrashOnOverflowEEE
__ZN7CyberCore9LineWidthC2EPNS_11RenderBlockEbNS_15IndentTextOrNotE
__ZN7CyberCore9LineWidth20updateAvailableWidthENS_10LayoutUnitE
__ZNK7CyberCore11RenderBlock10lineHeightEbNS_17LineDirectionModeENS_16LinePositionModeE
__ZNK7CyberCore11RenderStyle18computedLineHeightEPNS_10RenderViewE
__ZNK7CyberCore11RenderBlock19regionAtBlockOffsetENS_10LayoutUnitE
__ZNK7CyberCore11RenderBlock27logicalLeftOffsetForContentEPNS_12RenderRegionE
__ZNK7CyberCore11RenderBlock24logicalLeftOffsetForLineENS_10LayoutUnitES1_bPS1_S1_NS_27ShapeOutsideFloatOffsetModeE
__ZNK7CyberCore11RenderBlock28logicalRightOffsetForContentEPNS_12RenderRegionE
__ZNK7CyberCore11RenderBlock25logicalRightOffsetForLineENS_10LayoutUnitES1_bPS1_S1_NS_27ShapeOutsideFloatOffsetModeE
__ZN7CyberCore11RenderBlock11LineBreaker21skipLeadingWhitespaceERNS_12BidiResolverINS_14InlineIteratorENS_7BidiRunEEERNS_8LineInfoEPNS0_14FloatingObjectERNS_9LineWidthE
__ZN7CyberCoreL15requiresLineBoxERKNS_14InlineIteratorERKNS_8LineInfoENS_18WhitespacePositionE
__ZN7CyberCoreL21alwaysRequiresLineBoxEPNS_12RenderObjectE
__ZNK7CyberCore12RenderInline11marginStartEPKNS_11RenderStyleE
__ZN7CyberCoreL13computeMarginEPKNS_12RenderInlineERKNS_6LengthE
__ZNK7CyberCore12RenderInline25inlineElementContinuationEv
__ZNK7CyberCore11RenderBlock25inlineElementContinuationEv
__ZN7CyberCoreL25requiresLineBoxForContentEPNS_12RenderInlineERKNS_8LineInfoE
__ZN7CyberCore11RenderBlock14RenderTextInfoD2Ev
__ZN3WTF14deleteOwnedPtrIN7CyberCore10TextLayoutEEEvPT_
__ZN7CyberCore4Font12deleteLayoutEPNS_10TextLayoutE
__ZN7CyberCore11RenderBlock21linkToEndLineIfNeededERNS_15LineLayoutStateE
__ZN7CyberCore11RenderBlock18repaintDirtyFloatsERN3WTF6VectorINS0_13FloatWithRectELm0ENS1_15CrashOnOverflowEEE
__ZN7CyberCore11RenderBlock24setMaxMarginBeforeValuesENS_10LayoutUnitES1_
__ZN7CyberCore11RenderBlock23setMaxMarginAfterValuesENS_10LayoutUnitES1_
__ZNK7CyberCore11RenderBlock11isBlockFlowEv
__ZNK7CyberCore12RenderInline9marginEndEPKNS_11RenderStyleE
__ZNK7CyberCore12RenderObject9isCounterEv
__ZN7CyberCore10RenderText14dirtyLineBoxesEb
__ZNK7CyberCore12RenderObject15isSVGInlineTextEv
__ZNK7CyberCore10FontGlyphs14determinePitchERKNS_15FontDescriptionE
__ZNK7CyberCore11RenderStyle11wordSpacingEv
__ZN7CyberCoreL18inlineLogicalWidthEPNS_12RenderObjectEbb
__ZNK7CyberCore10RenderText11isWordBreakEv
__ZNK7CyberCore4Font12createLayoutEPNS_10RenderTextEfb
__ZN7CyberCore11RenderBlock16constructTextRunEPNS_12RenderObjectERKNS_4FontEPKNS_10RenderTextEPNS_11RenderStyleEj
__ZNK7CyberCore4Font8codePathERKNS_7TextRunE
__ZN7CyberCore21LazyLineBreakIterator29resetStringAndReleaseIteratorEN3WTF6StringERKNS1_12AtomicStringE
__ZN7CyberCore11RenderBlock16constructTextRunEPNS_12RenderObjectERKNS_4FontEPKtiPNS_11RenderStyleEj
__ZN7CyberCore33nextBreakablePositionIgnoringNBSPERNS_21LazyLineBreakIteratorEi
__ZN7CyberCore11RenderBlock16constructTextRunEPNS_12RenderObjectERKNS_4FontEPKNS_10RenderTextEjjPNS_11RenderStyleEj
__ZN7CyberCore13WidthIterator15advanceInternalINS_18Latin1TextIteratorEEEjRT_PNS_11GlyphBufferE
__ZN7CyberCore15TrailingObjects31updateMidpointsForTrailingBoxesERNS_13MidpointStateINS_14InlineIteratorEEERKS2_NS0_23CollapseFirstSpaceOrNotE
__ZN7CyberCore11RenderBlock44adjustLogicalLineTopAndLogicalHeightIfNeededEPNS_15ShapeInsideInfoENS_10LayoutUnitERNS_15LineLayoutStateERNS_12BidiResolverINS_14InlineIteratorENS_7BidiRunEEEPNS0_14FloatingObjectERS7_RN3WTF6VectorINS_15WordMeasurementELm64ENSE_15CrashOnOverflowEEE
__ZN7CyberCoreL27constructBidiRunsForSegmentERNS_12BidiResolverINS_14InlineIteratorENS_7BidiRunEEERNS_11BidiRunListIS2_EERKS1_NS_23VisualDirectionOverrideEb
__ZN7CyberCore12BidiResolverINS_14InlineIteratorENS_7BidiRunEE21createBidiRunsForLineERKS1_NS_23VisualDirectionOverrideEb
__ZN7CyberCore12BidiResolverINS_14InlineIteratorENS_7BidiRunEE9appendRunEv
__ZNK7CyberCore10RenderText6lengthEv
__ZN7CyberCore11RenderBlock19appendRunsForObjectERNS_11BidiRunListINS_7BidiRunEEEiiPNS_12RenderObjectERNS_12BidiResolverINS_14InlineIteratorES2_EE
__ZN7CyberCore7BidiRunnwEmPNS_11RenderArenaE
__ZN7CyberCoreL14bidiNextSharedINS_12BidiResolverINS_14InlineIteratorENS_7BidiRunEEEEEPNS_12RenderObjectES6_S6_PT_NS_19EmptyInlineBehaviorEPb
__ZN7CyberCoreL14bidiNextSharedINS_12BidiResolverINS_14InlineIteratorENS_7BidiRunEEEEEPNS_12RenderObjectES6_S6_PT_NS_19EmptyInlineBehaviorEPb
__ZN7CyberCore12BidiResolverINS_14InlineIteratorENS_7BidiRunEE21reorderRunsFromLevelsEv
__ZN7CyberCore11RenderBlock20handleTrailingSpacesERNS_11BidiRunListINS_7BidiRunEEEPNS_11BidiContextE
__ZN7CyberCore11RenderBlock27createLineBoxesFromBidiRunsERNS_11BidiRunListINS_7BidiRunEEERKNS_14InlineIteratorERNS_8LineInfoERNS_21VerticalPositionCacheEPS2_RN3WTF6VectorINS_15WordMeasurementELm64ENSD_15CrashOnOverflowEEE
__ZN7CyberCore11RenderBlock13constructLineERNS_11BidiRunListINS_7BidiRunEEERKNS_8LineInfoE
__ZN7CyberCore10RenderText19createInlineTextBoxEv
__ZN7CyberCore10RenderText13createTextBoxEv
__ZN7CyberCore9InlineBoxnwEmPNS_11RenderArenaE
__ZN7CyberCore11RenderBlock15createLineBoxesEPNS_12RenderObjectERKNS_8LineInfoEPNS_9InlineBoxEb
__ZN7CyberCore11RenderBlock28createAndAppendRootInlineBoxEv
__ZN7CyberCore11RenderBlock19createRootInlineBoxEv
__ZN7CyberCore13RootInlineBoxC1EPNS_11RenderBlockE
__ZN7CyberCore17RenderLineBoxList13appendLineBoxEPNS_13InlineFlowBoxE
__ZN7CyberCore13InlineFlowBox9addToLineEPNS_9InlineBoxE
__ZNK7CyberCore11RenderStyle13letterSpacingEv
__ZNK7CyberCore9InlineBox15isInlineFlowBoxEv
__ZNK7CyberCore13InlineTextBox15isInlineTextBoxEv
__ZN7CyberCore13InlineFlowBox28determineSpacingForFlowBoxesEbbPNS_12RenderObjectE
__ZN7CyberCore9InlineBox14setConstructedEv
__ZNK7CyberCore9InlineBox18isSVGRootInlineBoxEv
__ZN7CyberCore11RenderBlock38computeInlineDirectionPositionsForLineEPNS_13RootInlineBoxERKNS_8LineInfoEPNS_7BidiRunES7_bRN3WTF7HashMapIPKNS_13InlineTextBoxENSt3__14pairINS8_6VectorIPKNS_14SimpleFontDataELm0ENS8_15CrashOnOverflowEEENS_13GlyphOverflowEEENS8_7PtrHashISC_EENS8_10HashTraitsISC_EENSP_ISM_EEEERNS_21VerticalPositionCacheERNSF_INS_15WordMeasurementELm64ESJ_EE
__ZNK7CyberCore11RenderBlock20textAlignmentForLineEb
__ZN7CyberCoreL28updateLogicalInlinePositionsEPNS_11RenderBlockERfS2_S2_bNS_15IndentTextOrNotENS_10LayoutUnitE
__ZN7CyberCore11RenderBlock41computeInlineDirectionPositionsForSegmentEPNS_13RootInlineBoxERKNS_8LineInfoENS_10ETextAlignERfS7_PNS_7BidiRunES9_RN3WTF7HashMapIPKNS_13InlineTextBoxENSt3__14pairINSA_6VectorIPKNS_14SimpleFontDataELm0ENSA_15CrashOnOverflowEEENS_13GlyphOverflowEEENSA_7PtrHashISE_EENSA_10HashTraitsISE_EENSR_ISO_EEEERNS_21VerticalPositionCacheERNSH_INS_15WordMeasurementELm64ESL_EE
__ZN7CyberCore13InlineFlowBox26getFlowSpacingLogicalWidthEv
__ZNK7CyberCore13InlineFlowBox17borderLogicalLeftEv
__ZNK7CyberCore13InlineFlowBox18borderLogicalRightEv
__ZNK7CyberCore13InlineTextBox11isLineBreakEv
__ZNK7CyberCore13RootInlineBox12fitsToGlyphsEv
__ZNK7CyberCore10RenderText5widthEjjfbPN3WTF7HashSetIPKNS_14SimpleFontDataENS1_7PtrHashIS5_EENS1_10HashTraitsIS5_EEEEPNS_13GlyphOverflowE
__ZNK7CyberCore10RenderText5widthEjjRKNS_4FontEfPN3WTF7HashSetIPKNS_14SimpleFontDataENS4_7PtrHashIS8_EENS4_10HashTraitsIS8_EEEEPNS_13GlyphOverflowE
__ZN7CyberCore11RenderBlock30updateLogicalWidthForAlignmentERKNS_10ETextAlignEPNS_7BidiRunERfS6_S6_i
__ZN7CyberCore13InlineFlowBox27placeBoxesInInlineDirectionEfRbRN3WTF7HashMapIPKNS_13InlineTextBoxENSt3__14pairINS2_6VectorIPKNS_14SimpleFontDataELm0ENS2_15CrashOnOverflowEEENS_13GlyphOverflowEEENS2_7PtrHashIS6_EENS2_10HashTraitsIS6_EENSJ_ISG_EEEE
__ZN7CyberCore13InlineFlowBox30placeBoxRangeInInlineDirectionEPNS_9InlineBoxES2_RfS3_S3_RbRN3WTF7HashMapIPKNS_13InlineTextBoxENSt3__14pairINS5_6VectorIPKNS_14SimpleFontDataELm0ENS5_15CrashOnOverflowEEENS_13GlyphOverflowEEENS5_7PtrHashIS9_EENS5_10HashTraitsIS9_EENSM_ISJ_EEEE
__ZN7CyberCore11RenderBlock37computeBlockDirectionPositionsForLineEPNS_13RootInlineBoxEPNS_7BidiRunERN3WTF7HashMapIPKNS_13InlineTextBoxENSt3__14pairINS5_6VectorIPKNS_14SimpleFontDataELm0ENS5_15CrashOnOverflowEEENS_13GlyphOverflowEEENS5_7PtrHashIS9_EENS5_10HashTraitsIS9_EENSM_ISJ_EEEERNS_21VerticalPositionCacheE
__ZN7CyberCore13RootInlineBox26alignBoxesInBlockDirectionENS_10LayoutUnitERN3WTF7HashMapIPKNS_13InlineTextBoxENSt3__14pairINS2_6VectorIPKNS_14SimpleFontDataELm0ENS2_15CrashOnOverflowEEENS_13GlyphOverflowEEENS2_7PtrHashIS6_EENS2_10HashTraitsIS6_EENSJ_ISG_EEEERNS_21VerticalPositionCacheE
__ZNK7CyberCore13InlineFlowBox27requiresIdeographicBaselineERKN3WTF7HashMapIPKNS_13InlineTextBoxENSt3__14pairINS1_6VectorIPKNS_14SimpleFontDataELm0ENS1_15CrashOnOverflowEEENS_13GlyphOverflowEEENS1_7PtrHashIS5_EENS1_10HashTraitsIS5_EENSI_ISF_EEEE
__ZN7CyberCore13InlineFlowBox24computeLogicalBoxHeightsEPNS_13RootInlineBoxERNS_10LayoutUnitES4_RiS5_RbS6_bRN3WTF7HashMapIPKNS_13InlineTextBoxENSt3__14pairINS7_6VectorIPKNS_14SimpleFontDataELm0ENS7_15CrashOnOverflowEEENS_13GlyphOverflowEEENS7_7PtrHashISB_EENS7_10HashTraitsISB_EENSO_ISL_EEEENS_12FontBaselineERNS_21VerticalPositionCacheE
__ZNK7CyberCore13RootInlineBox15isRootInlineBoxEv
__ZNK7CyberCore13RootInlineBox22ascentAndDescentForBoxEPNS_9InlineBoxERN3WTF7HashMapIPKNS_13InlineTextBoxENSt3__14pairINS3_6VectorIPKNS_14SimpleFontDataELm0ENS3_15CrashOnOverflowEEENS_13GlyphOverflowEEENS3_7PtrHashIS7_EENS3_10HashTraitsIS7_EENSK_ISH_EEEERiSP_RbSQ_
__ZNK7CyberCore13InlineFlowBox15isInlineFlowBoxEv
__ZNK7CyberCore13RootInlineBox16baselinePositionENS_12FontBaselineE
__ZNK7CyberCore11RenderBlock16baselinePositionENS_12FontBaselineEbNS_17LineDirectionModeENS_16LinePositionModeE
__ZNK7CyberCore11RenderStyle11fontMetricsEv
__ZNK7CyberCore13RootInlineBox10lineHeightEv
__ZN7CyberCore13InlineFlowBox26placeBoxesInBlockDirectionENS_10LayoutUnitES1_ibRS1_S2_RbS2_S2_S3_S3_NS_12FontBaselineE
__ZN7CyberCore9InlineBox14adjustPositionEff
__ZNK7CyberCore9InlineBox13logicalHeightEv
__ZNK7CyberCore13RootInlineBox27beforeAnnotationsAdjustmentEv
__ZNK7CyberCore13RootInlineBox18lineSnapAdjustmentENS_10LayoutUnitE
__ZN7CyberCore10RenderText15positionLineBoxEPNS_9InlineBoxE
__ZN7CyberCore9InlineBox9markDirtyEb
__ZN7CyberCore13InlineFlowBox15computeOverflowENS_10LayoutUnitES1_RN3WTF7HashMapIPKNS_13InlineTextBoxENSt3__14pairINS2_6VectorIPKNS_14SimpleFontDataELm0ENS2_15CrashOnOverflowEEENS_13GlyphOverflowEEENS2_7PtrHashIS6_EENS2_10HashTraitsIS6_EENSJ_ISG_EEEE
__ZN7CyberCore7BidiRun7destroyEv
__ZN7CyberCore13RootInlineBox16setLineBreakInfoEPNS_12RenderObjectEjRKNS_10BidiStatusE
__ZN7CyberCore11RenderBlock7newLineENS_6EClearE
__ZN7CyberCore11RenderBlock17positionNewFloatsEv
__ZNK7CyberCore13InlineFlowBox32computeUnderAnnotationAdjustmentENS_10LayoutUnitE
__ZNK7CyberCore13RootInlineBox24paddedLayoutOverflowRectENS_10LayoutUnitE
__ZN7CyberCore19enclosingLayoutRectERKNS_9FloatRectE
__ZN7CyberCore10WidthCache14SmallStringKeyC2IKhEEPT_t
__ZN3WTF6VectorIN7CyberCore14InlineIteratorELm0ENS_15CrashOnOverflowEE15reserveCapacityEm
__ZNK7CyberCore10RenderText26isAllCollapsibleWhitespaceEv
__ZNK7CyberCore12RenderObject14isDescendantOfEPKS0_
__ZN3WTF5MoverINS_12KeyValuePairIN7CyberCore24FontPlatformDataCacheKeyENS_6OwnPtrINS2_16FontPlatformDataEEEEELb1EE4moveERS7_S9_
__ZN7CyberCore10RenderText29computePreferredLogicalWidthsEfRN3WTF7HashSetIPKNS_14SimpleFontDataENS1_7PtrHashIS5_EENS1_10HashTraitsIS5_EEEERNS_13GlyphOverflowE
__ZN7CyberCore12RenderInline28createAndAppendInlineFlowBoxEv
__ZN7CyberCore12RenderInline19createInlineFlowBoxEv
__ZN7CyberCore9InlineBox26clearKnownToHaveNoOverflowEv
__ZNK7CyberCore13InlineFlowBox17rendererLineBoxesEv
__ZN7CyberCore13InlineFlowBox14setConstructedEv
__ZNK7CyberCore12RenderInline10marginLeftEv
__ZNK7CyberCore12RenderInline11marginRightEv
__ZN7CyberCore13RootInlineBox22verticalPositionForBoxEPNS_9InlineBoxERNS_21VerticalPositionCacheE
__ZN3WTF9HashTableIPN7CyberCore12RenderObjectENS_12KeyValuePairIS3_iEENS_24KeyValuePairKeyExtractorIS5_EENS_7PtrHashIS3_EENS_18HashMapValueTraitsINS_10HashTraitsIS3_EENSB_IiEEEESC_E16lookupForWritingINS_22IdentityHashTranslatorIS9_EES3_EENSt3__14pairIPS5_bEERKT0_
__ZN3WTF9HashTableIPN7CyberCore12RenderObjectENS_12KeyValuePairIS3_iEENS_24KeyValuePairKeyExtractorIS5_EENS_7PtrHashIS3_EENS_18HashMapValueTraitsINS_10HashTraitsIS3_EENSB_IiEEEESC_E3addINS_17HashMapTranslatorISE_S9_EES3_iEENS_18HashTableAddResultINS_17HashTableIteratorIS3_S5_S7_S9_SE_SC_EEEERKT0_RKT1_
__ZN3WTF9HashTableIPN7CyberCore12RenderObjectENS_12KeyValuePairIS3_iEENS_24KeyValuePairKeyExtractorIS5_EENS_7PtrHashIS3_EENS_18HashMapValueTraitsINS_10HashTraitsIS3_EENSB_IiEEEESC_E6lookupINS_22IdentityHashTranslatorIS9_EES3_EEPS5_RKT0_
__ZNK7CyberCore9InlineBox16baselinePositionENS_12FontBaselineE
__ZNK7CyberCore12RenderInline16baselinePositionENS_12FontBaselineEbNS_17LineDirectionModeENS_16LinePositionModeE
__ZNK7CyberCore12RenderInline10lineHeightEbNS_17LineDirectionModeENS_16LinePositionModeE
__ZNK7CyberCore9InlineBox10lineHeightEv
__ZNK7CyberCore9InlineBox15isRootInlineBoxEv
__ZNK7CyberCore12RenderObject9isRubyRunEv
__ZNK7CyberCore9InlineBox15isInlineTextBoxEv
__ZN7CyberCore13InlineFlowBox14adjustPositionEff
__ZN7CyberCore13InlineFlowBox26addBoxShadowVisualOverflowERNS_10LayoutRectE
__ZN7CyberCore13InlineFlowBox29addBorderOutsetVisualOverflowERNS_10LayoutRectE
__ZNK7CyberCore20RenderBoxModelObject22relativePositionOffsetEv
__ZN7CyberCore13InlineFlowBox27setOverflowFromLogicalRectsERKNS_10LayoutRectES3_NS_10LayoutUnitES4_
__ZN7CyberCore13InlineFlowBox17setLayoutOverflowERKNS_10LayoutRectENS_10LayoutUnitES4_
__ZN7CyberCore13InlineFlowBox17setVisualOverflowERKNS_10LayoutRectENS_10LayoutUnitES4_
__ZN7CyberCore14RenderListItem6layoutEv
__ZN7CyberCore14RenderListItem20updateMarkerLocationEv
__ZN7CyberCoreL23getParentOfFirstLineBoxEPNS_11RenderBlockEPNS_12RenderObjectE
__ZN7CyberCore16RenderListMarker23updateMarginsAndContentEv
__ZN7CyberCore16RenderListMarker13updateContentEv
__ZNK7CyberCore16RenderListMarker7isImageEv
__ZNK7CyberCore14RenderListItem14updateValueNowEv
__ZNK7CyberCore14RenderListItem9calcValueEv
__ZN7CyberCoreL16previousListItemEPKNS_4NodeEPKNS_14RenderListItemE
__ZN7CyberCore13NodeTraversal23previousIncludingPseudoEPKNS_4NodeES3_
__ZNK7CyberCore4Node26pseudoAwarePreviousSiblingEv
__ZNK7CyberCore4Node20pseudoAwareLastChildEv
__ZNK7CyberCore12RenderObject10isListItemEv
__ZN7CyberCore14listMarkerTextENS_14EListStyleTypeEi
__ZN7CyberCore16RenderListMarker13updateMarginsEv
__ZN7CyberCore11RenderStyle14setMarginStartENS_6LengthE
__ZN7CyberCore11RenderStyle12setMarginEndENS_6LengthE
__ZN7CyberCore9RenderBox14dirtyLineBoxesEb
__ZN3WTF6VectorIPN7CyberCore9RenderBoxELm0ENS_15CrashOnOverflowEE14expandCapacityEmPKS3_
__ZN3WTF6VectorIPN7CyberCore9RenderBoxELm0ENS_15CrashOnOverflowEE15reserveCapacityEm
__ZN7CyberCore16RenderListMarker6layoutEv
__ZNK7CyberCore9RenderBox24minPreferredLogicalWidthEv
__ZN7CyberCore16RenderListMarker29computePreferredLogicalWidthsEv
__ZN7CyberCore7TextRunC2ERKN3WTF6StringEffjNS_13TextDirectionEbbj
__ZNK7CyberCore16RenderListMarker12isListMarkerEv
__ZN7CyberCoreL36shouldSkipWhitespaceAfterStartObjectEPNS_11RenderBlockEPNS_12RenderObjectERNS_13MidpointStateINS_14InlineIteratorEEE
__ZNK7CyberCore16RenderListMarker8isInsideEv
__ZN7CyberCore21LazyLineBreakIterator3getEj
__ZN7CyberCore24acquireLineBreakIteratorEPKhiRKN3WTF12AtomicStringEPKtj
__ZN7CyberCore21LineBreakIteratorPool10sharedPoolEv
__ZN7CyberCore21LineBreakIteratorPool4takeERKN3WTF12AtomicStringE
__ZN3WTF9HashTableIP14UBreakIteratorNS_12KeyValuePairIS2_NS_12AtomicStringEEENS_24KeyValuePairKeyExtractorIS5_EENS_7PtrHashIS2_EENS_18HashMapValueTraitsINS_10HashTraitsIS2_EENSB_IS4_EEEESC_E16lookupForWritingINS_22IdentityHashTranslatorIS9_EES2_EENSt3__14pairIPS5_bEERKT0_
__ZN3WTF9HashTableIP14UBreakIteratorNS_12KeyValuePairIS2_NS_12AtomicStringEEENS_24KeyValuePairKeyExtractorIS5_EENS_7PtrHashIS2_EENS_18HashMapValueTraitsINS_10HashTraitsIS2_EENSB_IS4_EEEESC_E3addINS_17HashMapTranslatorISE_S9_EES2_S4_EENS_18HashTableAddResultINS_17HashTableIteratorIS2_S5_S7_S9_SE_SC_EEEERKT0_RKT1_
__ZN3WTF9HashTableIP14UBreakIteratorNS_12KeyValuePairIS2_NS_12AtomicStringEEENS_24KeyValuePairKeyExtractorIS5_EENS_7PtrHashIS2_EENS_18HashMapValueTraitsINS_10HashTraitsIS2_EENSB_IS4_EEEESC_E6lookupINS_22IdentityHashTranslatorIS9_EES2_EEPS5_RKT0_
__ZN3WTF9HashTableIP14UBreakIteratorNS_12KeyValuePairIS2_NS_12AtomicStringEEENS_24KeyValuePairKeyExtractorIS5_EENS_7PtrHashIS2_EENS_18HashMapValueTraitsINS_10HashTraitsIS2_EENSB_IS4_EEEESC_E6rehashEi
__ZN3WTF9HashTableIP14UBreakIteratorNS_12KeyValuePairIS2_NS_12AtomicStringEEENS_24KeyValuePairKeyExtractorIS5_EENS_7PtrHashIS2_EENS_18HashMapValueTraitsINS_10HashTraitsIS2_EENSB_IS4_EEEESC_E8reinsertERS5_
__ZN7CyberCoreL9textCloneEP5UTextPKS0_aP10UErrorCode
__ZN7CyberCoreL16textLatin1AccessEP5UTextxa
__ZN7CyberCoreL9textCloseEP5UText
__ZN7CyberCoreL16textNativeLengthEP5UText
__ZNK7CyberCore12RenderObject6lengthEv
__ZN7CyberCore16RenderListMarker15createInlineBoxEv
__ZN7CyberCore9RenderBox15createInlineBoxEv
__ZNK7CyberCore9InlineBox11isLineBreakEv
__ZNK7CyberCore9RenderBox10marginLeftEv
__ZNK7CyberCore9RenderBox11marginRightEv
__ZNK7CyberCore16RenderListMarker16baselinePositionENS_12FontBaselineEbNS_17LineDirectionModeENS_16LinePositionModeE
__ZNK7CyberCore16RenderListMarker10lineHeightEbNS_17LineDirectionModeENS_16LinePositionModeE
__ZNK7CyberCore13InlineTextBox16baselinePositionENS_12FontBaselineE
__ZNK7CyberCore13InlineTextBox10lineHeightEv
__ZNK7CyberCore13InlineTextBox23getEmphasisMarkPositionEPNS_11RenderStyleERNS_20TextEmphasisPositionE
__ZN7CyberCore9RenderBox15positionLineBoxEPNS_9InlineBoxE
__ZN7CyberCore24releaseLineBreakIteratorEPNS_17TextBreakIteratorE
__ZN7CyberCore21LineBreakIteratorPool3putEP14UBreakIterator
__ZN3WTF7HashMapIP14UBreakIteratorNS_12AtomicStringENS_7PtrHashIS2_EENS_10HashTraitsIS2_EENS6_IS3_EEE4takeERKS2_
__ZN7CyberCore14RenderListItem23addOverflowFromChildrenEv
__ZN7CyberCore14RenderListItem18positionListMarkerEv
__ZNK7CyberCore17ScrollbarThemeMac16buttonsPlacementEv
__ZThn64_NK7CyberCore9Scrollbar10currentPosEv
__ZThn64_NK7CyberCore9Scrollbar11visibleSizeEv
__ZThn64_NK7CyberCore9Scrollbar9totalSizeEv
__ZN7CyberCore23ScrollbarThemeComposite11trackLengthEPNS_20ScrollbarThemeClientE
__ZN7CyberCore17ScrollbarThemeMac18minimumThumbLengthEPNS_20ScrollbarThemeClientE
__ZN7CyberCore15GraphicsLayerCA37flushCompositingStateForThisLayerOnlyEv
-[WebLayer setNeedsDisplay]
__ZThn480_NK7CyberCore15GraphicsLayerCA27platformCALayerDrawsContentEv
-[WebLayer setNeedsDisplayInRect:]
-[WebLayer display]
-[WebLayer drawInContext:]
__ZN3WTF6VectorIN7CyberCore20GraphicsContextStateELm0ENS_15CrashOnOverflowEE14appendSlowCaseIS2_EEvRKT_
__ZN3WTF6VectorIN7CyberCore20GraphicsContextStateELm0ENS_15CrashOnOverflowEE14expandCapacityEmPKS2_
__ZN3WTF6VectorIN7CyberCore20GraphicsContextStateELm0ENS_15CrashOnOverflowEE15reserveCapacityEm
__ZN7CyberCore15GraphicsContext17savePlatformStateEv
__ZN7CyberCore15GraphicsContext30setShouldSubpixelQuantizeFontsEb
__ZN7CyberCore9RenderBox36computeBackgroundIsKnownToBeObscuredEv
__ZNK7CyberCore9RenderBox26getBackgroundPaintedExtentERNS_10LayoutRectE
__ZNK7CyberCore9RenderBox33foregroundIsKnownToBeOpaqueInRectERKNS_10LayoutRectEj
__ZNK7CyberCore9RenderBox33backgroundIsKnownToBeOpaqueInRectERKNS_10LayoutRectE
__ZNK7CyberCore16StyleCachedImage15knownToBeOpaqueEPKNS_12RenderObjectE
__ZN7CyberCore11CachedImage27currentFrameKnownToBeOpaqueEPKNS_12RenderObjectE
__ZN7CyberCore11CachedImage16imageForRendererEPKNS_12RenderObjectE
__ZN7CyberCore11BitmapImage26nativeImageForCurrentFrameEv
__ZN7CyberCore11BitmapImage27currentFrameKnownToBeOpaqueEv
__ZNK7CyberCore16StyleCachedImage5imageEPNS_12RenderObjectERKNS_7IntSizeE
__ZN7CyberCore22ImageQualityController23shouldPaintAtLowQualityEPNS_15GraphicsContextEPNS_20RenderBoxModelObjectEPNS_5ImageEPKvRKNS_10LayoutSizeE
__ZNK7CyberCore4Page34inLowQualityImageInterpolationModeEv
__ZN7CyberCore22ImageQualityController3setEPNS_20RenderBoxModelObjectEPN3WTF7HashMapIPKvNS_10LayoutSizeENS3_7PtrHashIS6_EENS3_10HashTraitsIS6_EENSA_IS7_EEEES6_RKS7_
__ZN7CyberCore15GraphicsContext14drawTiledImageEPNS_5ImageENS_10ColorSpaceERKNS_7IntRectERKNS_8IntPointERKNS_7IntSizeENS_17CompositeOperatorEbNS_9BlendModeE
__ZN7CyberCore5Image9drawTiledEPNS_15GraphicsContextERKNS_9FloatRectERKNS_10FloatPointERKNS_9FloatSizeENS_10ColorSpaceENS_17CompositeOperatorENS_9BlendModeE
__ZN7CyberCore11BitmapImage21mayFillWithSolidColorEv
__ZNK7CyberCore5Image16hasRelativeWidthEv
__ZNK7CyberCore5Image17hasRelativeHeightEv
__ZN7CyberCore11BitmapImage4drawEPNS_15GraphicsContextERKNS_9FloatRectES5_NS_10ColorSpaceENS_17CompositeOperatorENS_9BlendModeE
__ZN7CyberCore11BitmapImage4drawEPNS_15GraphicsContextERKNS_9FloatRectES5_NS_10ColorSpaceENS_17CompositeOperatorENS_9BlendModeENS_27RespectImageOrientationEnumE
__ZN7CyberCore11BitmapImage14startAnimationEb
__ZN7CyberCore11BitmapImage13shouldAnimateEv
__ZNK7CyberCore11BitmapImage16currentFrameSizeEv
__ZN7CyberCore15GraphicsContext15drawNativeImageEP7CGImageRKNS_9FloatSizeENS_10ColorSpaceERKNS_9FloatRectES9_NS_17CompositeOperatorENS_9BlendModeENS_16ImageOrientationE
__ZN7CyberCore5Image19imageWithColorSpaceEP7CGImageNS_10ColorSpaceE
__ZThn816_N7CyberCore11CachedImage7didDrawEPKNS_5ImageE
__ZN7CyberCore14CachedResource20didAccessDecodedDataEd
__ZN7CyberCore11MemoryCache34removeFromLiveDecodedResourcesListEPNS_14CachedResourceE
__ZNK7CyberCore14CachedResource9wasPurgedEv
__ZN7CyberCore20RenderBoxModelObject11paintBorderERKNS_9PaintInfoERKNS_10LayoutRectEPKNS_11RenderStyleENS_24BackgroundBleedAvoidanceEbb
__ZN7CyberCore20RenderBoxModelObject19paintNinePieceImageEPNS_15GraphicsContextERKNS_10LayoutRectEPKNS_11RenderStyleERKNS_14NinePieceImageENS_17CompositeOperatorE
__ZNK7CyberCore20RenderBoxModelObject17getBorderEdgeInfoEPNS_10BorderEdgeEPKNS_11RenderStyleEbb
__ZNK7CyberCore11RenderStyle19getRoundedBorderForERKNS_10LayoutRectEPNS_10RenderViewEbb
__ZN7CyberCore11RoundedRectC1ERKNS_7IntRectERKNS0_5RadiiE
__ZNK7CyberCore11RenderStyle24getRoundedInnerBorderForERKNS_10LayoutRectEbb
__ZNK7CyberCore11RenderStyle24getRoundedInnerBorderForERKNS_10LayoutRectEiiiibb
__ZNK7CyberCore11RoundedRect5Radii6isZeroEv
__ZN7CyberCore20RenderBoxModelObject16paintBorderSidesEPNS_15GraphicsContextEPKNS_11RenderStyleERKNS_11RoundedRectES8_RKNS_8IntPointEPKNS_10BorderEdgeEjNS_24BackgroundBleedAvoidanceEbbbPKNS_5ColorE
__ZN7CyberCore4PathC1Ev
__ZN7CyberCore20RenderBoxModelObject18paintOneBorderSideEPNS_15GraphicsContextEPKNS_11RenderStyleERKNS_11RoundedRectES8_RKNS_7IntRectENS_7BoxSideESC_SC_PKNS_10BorderEdgeEPKNS_4PathENS_24BackgroundBleedAvoidanceEbbbPKNS_5ColorE
__ZN7CyberCoreL17joinRequiresMitreENS_7BoxSideES0_PKNS_10BorderEdgeEb
__ZN7CyberCoreL27colorNeedsAntiAliasAtCornerENS_7BoxSideES0_PKNS_10BorderEdgeE
__ZN7CyberCore12RenderObject18drawLineForBoxSideEPNS_15GraphicsContextEiiiiNS_7BoxSideENS_5ColorENS_12EBorderStyleEiib
__ZNK7CyberCore5Color4darkEv
__ZNK7CyberCore15GraphicsContext11strokeStyleEv
__ZN7CyberCore15GraphicsContext14setStrokeStyleENS_11StrokeStyleE
__ZN7CyberCore15GraphicsContext17drawConvexPolygonEmPKNS_10FloatPointEb
__ZNK7CyberCore15GraphicsContext15shouldAntialiasEv
__ZN7CyberCore4Path6moveToERKNS_10FloatPointE
__ZN7CyberCore4Path9addLineToERKNS_10FloatPointE
__ZN7CyberCore4Path12closeSubpathEv
__ZN7CyberCore15GraphicsContext8drawPathERKNS_4PathE
__ZNK7CyberCore4Path7isEmptyEv
__ZN7CyberCore4PathD1Ev
__ZN7CyberCore14RenderListItem5paintERNS_9PaintInfoERKNS_11LayoutPointE
__ZNK7CyberCore17RenderLineBoxList21anyLineIntersectsRectEPNS_20RenderBoxModelObjectERKNS_10LayoutRectERKNS_11LayoutPointEbNS_10LayoutUnitE
__ZN7CyberCore9InlineBox4rootEv
__ZNK7CyberCore17RenderLineBoxList19rangeIntersectsRectEPNS_20RenderBoxModelObjectENS_10LayoutUnitES3_RKNS_10LayoutRectERKNS_11LayoutPointE
__ZNK7CyberCore9RenderBox18flipForWritingModeENS_10LayoutUnitE
__ZNK7CyberCore17RenderLineBoxList23lineIntersectsDirtyRectEPNS_20RenderBoxModelObjectEPNS_13InlineFlowBoxERKNS_9PaintInfoERKNS_11LayoutPointE
__ZNK7CyberCore13RootInlineBox12selectionTopEv
__ZN7CyberCore13RootInlineBox5paintERNS_9PaintInfoERKNS_11LayoutPointENS_10LayoutUnitES6_
__ZN7CyberCore13InlineFlowBox5paintERNS_9PaintInfoERKNS_11LayoutPointENS_10LayoutUnitES6_
__ZN7CyberCore9InlineBox18flipForWritingModeERNS_10LayoutRectE
__ZN7CyberCore13InlineFlowBox19paintBoxDecorationsERNS_9PaintInfoERKNS_11LayoutPointE
__ZNK7CyberCore13InlineFlowBox16roundedFrameRectEv
__ZN7CyberCore13InlineTextBox5paintERNS_9PaintInfoERKNS_11LayoutPointENS_10LayoutUnitES6_
__ZNK7CyberCore13InlineTextBox19logicalOverflowRectEv
__ZN7CyberCore13InlineTextBox14selectionStateEv
__ZN7CyberCore9InlineBox25locationIncludingFlippingEv
__ZN7CyberCore13InlineTextBox20paintDocumentMarkersEPNS_15GraphicsContextERKNS_10FloatPointEPNS_11RenderStyleERKNS_4FontEb
__ZN7CyberCore24DocumentMarkerController10markersForEPNS_4NodeENS_14DocumentMarker11MarkerTypesE
__ZN7CyberCore4Page26addRelevantRepaintedObjectEPNS_12RenderObjectERKNS_10LayoutRectE
__ZNK7CyberCore13InlineTextBox16constructTextRunEPNS_11RenderStyleERKNS_4FontEN3WTF6StringEiPNS_24BufferForAppendingHyphenE
__ZN7CyberCore21updateGraphicsContextEPNS_15GraphicsContextERKNS_5ColorES4_fNS_10ColorSpaceE
__ZN7CyberCoreL20paintTextWithShadowsEPNS_15GraphicsContextERKNS_4FontERKNS_7TextRunERKN3WTF12AtomicStringEiiiiRKNS_10FloatPointERKNS_9FloatRectEPKNS_10ShadowDataEbb
__ZN7CyberCore15GraphicsContext8drawTextERKNS_4FontERKNS_7TextRunERKNS_10FloatPointEii
__ZNK7CyberCore4Font14drawSimpleTextEPNS_15GraphicsContextERKNS_7TextRunERKNS_10FloatPointEii
__ZNK7CyberCore4Font33getGlyphsAndAdvancesForSimpleTextERKNS_7TextRunEiiRNS_11GlyphBufferENS0_20ForTextEmphasisOrNotE
__ZNK7CyberCore13RootInlineBox15selectionBottomEv
__ZNK7CyberCore13InlineFlowBox33boxShadowCanBeAppliedToBackgroundERKNS_9FillLayerE
__ZN7CyberCore13InlineFlowBox15paintFillLayersERKNS_9PaintInfoERKNS_5ColorEPKNS_9FillLayerERKNS_10LayoutRectENS_17CompositeOperatorE
__ZN7CyberCore13InlineFlowBox14paintFillLayerERKNS_9PaintInfoERKNS_5ColorEPKNS_9FillLayerERKNS_10LayoutRectENS_17CompositeOperatorE
__ZN7CyberCore15GraphicsContext9setShadowERKNS_9FloatSizeEfRKNS_5ColorENS_10ColorSpaceE
__ZN7CyberCore15GraphicsContext17setPlatformShadowERKNS_9FloatSizeEfRKNS_5ColorENS_10ColorSpaceE
__ZNK7CyberCore9FloatSizecv6CGSizeEv
__ZNK7CyberCore20RenderBoxModelObject46backgroundRoundedRectAdjustedForBleedAvoidanceEPNS_15GraphicsContextERKNS_10LayoutRectENS_24BackgroundBleedAvoidanceEPNS_13InlineFlowBoxERKNS_10LayoutSizeEbb
__ZN7CyberCore11RoundedRect5Radii5scaleEf
__ZN7CyberCore11RoundedRect19includeLogicalEdgesERKNS0_5RadiiEbbb
__ZNK7CyberCore11RoundedRect12isRenderableEv
__ZN7CyberCore15GraphicsContext15fillRoundedRectERKNS_11RoundedRectERKNS_5ColorENS_10ColorSpaceENS_9BlendModeE
__ZN7CyberCore15GraphicsContext15fillRoundedRectERKNS_7IntRectERKNS_7IntSizeES6_S6_S6_RKNS_5ColorENS_10ColorSpaceE
__ZN7CyberCore4Path14addRoundedRectERKNS_9FloatRectERKNS_9FloatSizeES6_S6_S6_NS0_19RoundedRectStrategyE
__ZN7CyberCore4Path29platformAddPathForRoundedRectERKNS_9FloatRectERKNS_9FloatSizeES6_S6_S6_
__ZN7CyberCore15GraphicsContext8fillPathERKNS_4PathE
__ZNK7CyberCore15GraphicsContext8fillRuleEv
__ZN7CyberCore20GraphicsContextStateaSERKS0_
__ZN7CyberCore15GraphicsContext20restorePlatformStateEv
__ZN7CyberCore13InlineFlowBox14paintBoxShadowERKNS_9PaintInfoEPNS_11RenderStyleENS_11ShadowStyleERKNS_10LayoutRectE
__ZN7CyberCore11RoundedRect5Radii6expandEiiii
__ZN7CyberCoreL20allCornersClippedOutERKNS_11RoundedRectERKNS_10LayoutRectE
__ZN7CyberCore4Path14addRoundedRectERKNS_11RoundedRectE
__ZN7CyberCore15GraphicsContext11setFillRuleENS_8WindRuleE
__ZNK7CyberCore9InlineBox4rootEv
__ZN7CyberCore13InlineTextBox15paintDecorationEPNS_15GraphicsContextERKNS_10FloatPointENS_14TextDecorationENS_19TextDecorationStyleEPKNS_10ShadowDataE
__ZN7CyberCore12RenderObject23getTextDecorationColorsEiRNS_5ColorES2_S2_bb
__ZNK7CyberCore12RenderObject5styleEb
__ZNK7CyberCore12RenderObject10isRubyTextEv
__ZN7CyberCore15GraphicsContext18setStrokeThicknessEf
__ZN7CyberCore15GraphicsContext26setPlatformStrokeThicknessEf
__ZN7CyberCore15GraphicsContext14setStrokeColorERKNS_5ColorENS_10ColorSpaceE
__ZN7CyberCore15GraphicsContext22setPlatformStrokeColorERKNS_5ColorENS_10ColorSpaceE
__ZN7CyberCore15GraphicsContext15drawLineForTextERKNS_10FloatPointEfb
__ZNK7CyberCore15GraphicsContext15strokeThicknessEv
__ZN7CyberCore15GraphicsContext19roundToDevicePixelsERKNS_9FloatRectENS0_12RoundingModeE
__ZN7CyberCore9InlineBox5paintERNS_9PaintInfoERKNS_11LayoutPointENS_10LayoutUnitES6_
__ZN7CyberCore16RenderListMarker5paintERNS_9PaintInfoERKNS_11LayoutPointE
__ZN7CyberCore16RenderListMarker21getRelativeMarkerRectEv
__ZN7CyberCore11RenderBlock16constructTextRunEPNS_12RenderObjectERKNS_4FontERKN3WTF6StringEPNS_11RenderStyleEjj
__ZN7CyberCore10ScrollView15paintScrollbarsEPNS_15GraphicsContextERKNS_7IntRectE
__ZN7CyberCore9FrameView17paintScrollCornerEPNS_15GraphicsContextERKNS_7IntRectE
__ZN7CyberCore10ScrollView17paintScrollCornerEPNS_15GraphicsContextERKNS_7IntRectE
__ZN7CyberCore23ScrollbarThemeComposite17paintScrollCornerEPNS_10ScrollViewEPNS_15GraphicsContextERKNS_7IntRectE
__ZThn480_N7CyberCore15GraphicsLayerCA30platformCALayerLayerDidDisplayEP7CALayer
__ZN7CyberCore15GraphicsLayerCA15layerDidDisplayEP7CALayer
__ZN7CyberCore15GraphicsContext20setShouldSmoothFontsEb
__ZN7CyberCore15GraphicsContext28setPlatformShouldSmoothFontsEb
__ZN7CyberCore21RenderLayerCompositor13paintContentsEPKNS_13GraphicsLayerERNS_15GraphicsContextEjRKNS_7IntRectE
__ZN7CyberCore9Scrollbar5paintEPNS_15GraphicsContextERKNS_7IntRectE
__ZN7CyberCore17ScrollbarThemeMac5paintEPNS_20ScrollbarThemeClientEPNS_15GraphicsContextERKNS_7IntRectE
__ZThn64_NK7CyberCore9Scrollbar7maximumEv
__ZNK7CyberCore15GraphicsContext16isCALayerContextEv
__ZN7CyberCore27LocalCurrentGraphicsContextC1EPNS_15GraphicsContextE
__ZN7CyberCore27LocalCurrentGraphicsContextC2EPNS_15GraphicsContextE
-[WebScrollbarPainterDelegate convertRectToBacking:]
-[WebScrollbarPainterDelegate convertRectFromBacking:]
__ZN7CyberCore27LocalCurrentGraphicsContextD1Ev
__ZN7CyberCoreL24iconLoadDecisionCallbackENS_16IconLoadDecisionEPv
__ZN7CyberCore14IconController24continueLoadWithDecisionENS_16IconLoadDecisionE
__ZN7CyberCore12EnumCallbackINS_16IconLoadDecisionEED0Ev
__ZN3WTF24StringWrapperCFAllocatorL22deallocateOnMainThreadEPv
-[WebScrollbarPainterDelegate scrollerImp:animateKnobAlphaTo:duration:]
__ZThn64_NK7CyberCore9FrameView32scrollbarAnimationsAreSuppressedEv
-[WebScrollbarPainterDelegate setUpAlphaAnimation:scrollerPainter:part:animateAlphaTo:duration:]
-[WebScrollbarPainterDelegate scrollAnimator]
__ZThn64_NK7CyberCore9FrameView29shouldSuspendScrollAnimationsEv
__ZNK7CyberCore9Scrollbar23convertToContainingViewERKNS_7IntRectE
__ZThn64_NK7CyberCore10ScrollView36convertFromScrollbarToContainingViewEPKNS_9ScrollbarERKNS_7IntRectE
__ZThn64_N7CyberCore9FrameView27setVisibleScrollerThumbRectERKNS_7IntRectE
-[WebScrollbarPartAnimation .cxx_construct]
-[WebScrollbarPartAnimation initWithScrollbar:featureToAnimate:animateFrom:animateTo:duration:]
-[WebScrollbarPartAnimation startAnimation]
-[WebScrollbarPainterDelegate scrollerImp:overlayScrollerStateChangedTo:]
-[WebScrollbarPartAnimation setCurrentProgress:]
__ZN7CyberCore15GraphicsContext9clearRectERKNS_9FloatRectE
__ZN7CyberCore15GraphicsContext22applyDeviceScaleFactorEf
__ZN7CyberCore15GraphicsContext5scaleERKNS_9FloatSizeE
__ZN7CyberCore15GraphicsContext30platformApplyDeviceScaleFactorEf
__ZN7CyberCore9FrameView24paintContentsForSnapshotEPNS_15GraphicsContextERKNS_7IntRectENS0_18SelectionInSnaphotENS0_26CoordinateSpaceForSnapshotE
__ZN7CyberCore10RenderView13notifyWidgetsENS_18WidgetNotificationE
__ZNK7CyberCore15GraphicsContext16hasBlurredShadowEv
__ZN3WTF9HashTableIPN7CyberCore20RenderBoxModelObjectENS_12KeyValuePairIS3_NS_7HashMapIPKvNS1_10LayoutSizeENS_7PtrHashIS7_EENS_10HashTraitsIS7_EENSB_IS8_EEEEEENS_24KeyValuePairKeyExtractorISF_EENS9_IS3_EENS_18HashMapValueTraitsINSB_IS3_EENSB_ISE_EEEESK_E16lookupForWritingINS_22IdentityHashTranslatorISI_EES3_EENSt3__14pairIPSF_bEERKT0_
__ZN3WTF9HashTableIPN7CyberCore20RenderBoxModelObjectENS_12KeyValuePairIS3_NS_7HashMapIPKvNS1_10LayoutSizeENS_7PtrHashIS7_EENS_10HashTraitsIS7_EENSB_IS8_EEEEEENS_24KeyValuePairKeyExtractorISF_EENS9_IS3_EENS_18HashMapValueTraitsINSB_IS3_EENSB_ISE_EEEESK_E3addINS_17HashMapTranslatorISM_SI_EES3_SE_EENS_18HashTableAddResultINS_17HashTableIteratorIS3_SF_SH_SI_SM_SK_EEEERKT0_RKT1_
__ZN3WTF9HashTableIPN7CyberCore20RenderBoxModelObjectENS_12KeyValuePairIS3_NS_7HashMapIPKvNS1_10LayoutSizeENS_7PtrHashIS7_EENS_10HashTraitsIS7_EENSB_IS8_EEEEEENS_24KeyValuePairKeyExtractorISF_EENS9_IS3_EENS_18HashMapValueTraitsINSB_IS3_EENSB_ISE_EEEESK_E6lookupINS_22IdentityHashTranslatorISI_EES3_EEPSF_RKT0_
__ZN3WTF9HashTableIPN7CyberCore20RenderBoxModelObjectENS_12KeyValuePairIS3_NS_7HashMapIPKvNS1_10LayoutSizeENS_7PtrHashIS7_EENS_10HashTraitsIS7_EENSB_IS8_EEEEEENS_24KeyValuePairKeyExtractorISF_EENS9_IS3_EENS_18HashMapValueTraitsINSB_IS3_EENSB_ISE_EEEESK_E6rehashEi
__ZN3WTF9HashTableIPKvNS_12KeyValuePairIS2_N7CyberCore10LayoutSizeEEENS_24KeyValuePairKeyExtractorIS6_EENS_7PtrHashIS2_EENS_18HashMapValueTraitsINS_10HashTraitsIS2_EENSC_IS5_EEEESD_E16lookupForWritingINS_22IdentityHashTranslatorISA_EES2_EENSt3__14pairIPS6_bEERKT0_
__ZN3WTF9HashTableIPKvNS_12KeyValuePairIS2_N7CyberCore10LayoutSizeEEENS_24KeyValuePairKeyExtractorIS6_EENS_7PtrHashIS2_EENS_18HashMapValueTraitsINS_10HashTraitsIS2_EENSC_IS5_EEEESD_E3addINS_17HashMapTranslatorISF_SA_EES2_S5_EENS_18HashTableAddResultINS_17HashTableIteratorIS2_S6_S8_SA_SF_SD_EEEERKT0_RKT1_
__ZN3WTF9HashTableIPKvNS_12KeyValuePairIS2_N7CyberCore10LayoutSizeEEENS_24KeyValuePairKeyExtractorIS6_EENS_7PtrHashIS2_EENS_18HashMapValueTraitsINS_10HashTraitsIS2_EENSC_IS5_EEEESD_E3addINS_22IdentityHashTranslatorISA_EES2_S6_EENS_18HashTableAddResultINS_17HashTableIteratorIS2_S6_S8_SA_SF_SD_EEEERKT0_RKT1_
__ZN3WTF9HashTableIPKvNS_12KeyValuePairIS2_N7CyberCore10LayoutSizeEEENS_24KeyValuePairKeyExtractorIS6_EENS_7PtrHashIS2_EENS_18HashMapValueTraitsINS_10HashTraitsIS2_EENSC_IS5_EEEESD_E6lookupINS_22IdentityHashTranslatorISA_EES2_EEPS6_RKT0_
__ZN3WTF9HashTableIPKvNS_12KeyValuePairIS2_N7CyberCore10LayoutSizeEEENS_24KeyValuePairKeyExtractorIS6_EENS_7PtrHashIS2_EENS_18HashMapValueTraitsINS_10HashTraitsIS2_EENSC_IS5_EEEESD_E6rehashEi
__ZN3WTF9HashTableIPKvNS_12KeyValuePairIS2_N7CyberCore10LayoutSizeEEENS_24KeyValuePairKeyExtractorIS6_EENS_7PtrHashIS2_EENS_18HashMapValueTraitsINS_10HashTraitsIS2_EENSC_IS5_EEEESD_EaSERKSG_
__ZN7CyberCore10ShadowBlurC1ERKNS_20GraphicsContextStateE
__ZN7CyberCore10ShadowBlurC2ERKNS_20GraphicsContextStateE
__ZN7CyberCore10ShadowBlur14drawRectShadowEPNS_15GraphicsContextERKNS_9FloatRectERKNS_11RoundedRect5RadiiE
__ZNK7CyberCore15GraphicsContext10clipBoundsEv
__ZN7CyberCore10ShadowBlur26calculateLayerBoundingRectEPNS_15GraphicsContextERKNS_9FloatRectERKNS_7IntRectE
__ZNK7CyberCore7IntRect8containsERKS0_
__ZN7CyberCore10ShadowBlur24drawRectShadowWithTilingEPNS_15GraphicsContextERKNS_9FloatRectERKNS_11RoundedRect5RadiiERKNS_7IntSizeESC_
__ZN7CyberCore13ScratchBuffer16getScratchBufferERKNS_7IntSizeE
__ZN7CyberCore11ImageBufferC1ERKNS_7IntSizeEfNS_10ColorSpaceENS_13RenderingModeERb
__ZN7CyberCore11ImageBufferC2ERKNS_7IntSizeEfNS_10ColorSpaceENS_13RenderingModeERb
__ZN7CyberCore15ImageBufferDataC1ERKNS_7IntSizeE
__ZNK7CyberCore9FloatSize22isExpressibleAsIntSizeEv
__ZN7CyberCore13ScratchBuffer21setCachedShadowValuesERKNS_9FloatSizeERKNS_5ColorENS_10ColorSpaceERKNS_9FloatRectERKNS_11RoundedRect5RadiiES3_
__ZNK7CyberCore11ImageBuffer7contextEv
__ZN7CyberCore10ShadowBlur16blurShadowBufferERKNS_7IntSizeE
__ZNK7CyberCore11ImageBuffer24getUnmultipliedImageDataERKNS_7IntRectENS0_16CoordinateSystemE
__ZNK7CyberCore15GraphicsContext20isAcceleratedContextEv
__ZNK7CyberCore15ImageBufferData7getDataERKNS_7IntRectERKNS_7IntSizeEbbf
__ZN3WTF14TypedArrayBaseIhE19createUninitializedINS_17Uint8ClampedArrayEEENS_10PassRefPtrIT_EEj
__ZN3WTF14TypedArrayBaseIhE6createINS_17Uint8ClampedArrayEEENS_10PassRefPtrIT_EENS4_INS_11ArrayBufferEEEjj
__ZN7CyberCore10ShadowBlur14blurLayerImageEPhRKNS_7IntSizeEi
__ZN7CyberCore11ImageBuffer12putByteArrayENS_8MultiplyEPN3WTF17Uint8ClampedArrayERKNS_7IntSizeERKNS_7IntRectERKNS_8IntPointENS0_16CoordinateSystemE
__ZN7CyberCore15ImageBufferData7putDataERPN3WTF17Uint8ClampedArrayERKNS_7IntSizeERKNS_7IntRectERKNS_8IntPointES7_bbf
__ZN3WTF17Uint8ClampedArrayD0Ev
__ZN7CyberCore15GraphicsContext8fillRectERKNS_9FloatRectE
__ZN7CyberCore10ShadowBlur15drawLayerPiecesEPNS_15GraphicsContextERKNS_9FloatRectERKNS_11RoundedRect5RadiiERKNS_7IntSizeESC_NS0_15ShadowDirectionE
__ZN7CyberCore15GraphicsContext11clearShadowEv
__ZN7CyberCore15GraphicsContext19clearPlatformShadowEv
__ZN7CyberCore15GraphicsContext15drawImageBufferEPNS_11ImageBufferENS_10ColorSpaceERKNS_9FloatRectES6_NS_17CompositeOperatorENS_9BlendModeEb
__ZN7CyberCore11ImageBuffer4drawEPNS_15GraphicsContextENS_10ColorSpaceERKNS_9FloatRectES6_NS_17CompositeOperatorENS_9BlendModeEb
__ZNK7CyberCore11ImageBuffer15copyNativeImageENS_16BackingStoreCopyE
__ZN7CyberCore13subimageCacheEv
__ZN7CyberCore22SubimageCacheWithTimer11getSubimageEP7CGImageRKNS_9FloatRectE
__ZN3WTF9HashTableIN7CyberCore22SubimageCacheWithTimer18SubimageCacheEntryES3_NS_17IdentityExtractorENS2_17SubimageCacheHashENS2_24SubimageCacheEntryTraitsES6_E16lookupForWritingINS_22IdentityHashTranslatorIS5_EES3_EENSt3__14pairIPS3_bEERKT0_
__ZN3WTF9HashTableIN7CyberCore22SubimageCacheWithTimer18SubimageCacheEntryES3_NS_17IdentityExtractorENS2_17SubimageCacheHashENS2_24SubimageCacheEntryTraitsES6_E18addPassingHashCodeINS_24HashSetTranslatorAdapterINS1_18SubimageCacheAdderEEENS1_15SubimageRequestESC_EENS_18HashTableAddResultINS_17HashTableIteratorIS3_S3_S4_S5_S6_S6_EEEERKT0_RKT1_
__ZN3WTF9HashTableIN7CyberCore22SubimageCacheWithTimer18SubimageCacheEntryES3_NS_17IdentityExtractorENS2_17SubimageCacheHashENS2_24SubimageCacheEntryTraitsES6_E20fullLookupForWritingINS_24HashSetTranslatorAdapterINS1_18SubimageCacheAdderEEENS1_15SubimageRequestEEENSt3__14pairINSE_IPS3_bEEjEERKT0_
__ZN3WTF9HashTableIN7CyberCore22SubimageCacheWithTimer18SubimageCacheEntryES3_NS_17IdentityExtractorENS2_17SubimageCacheHashENS2_24SubimageCacheEntryTraitsES6_E6lookupINS_22IdentityHashTranslatorIS5_EES3_EEPS3_RKT0_
__ZN3WTF9HashTableIN7CyberCore22SubimageCacheWithTimer18SubimageCacheEntryES3_NS_17IdentityExtractorENS2_17SubimageCacheHashENS2_24SubimageCacheEntryTraitsES6_E6rehashEi
__ZN7CyberCore18SubimageCacheAdder9translateERNS_22SubimageCacheWithTimer18SubimageCacheEntryERKNS_15SubimageRequestEj
__ZN3WTF5MoverIN7CyberCore22SubimageCacheWithTimer18SubimageCacheEntryELb1EE4moveERS3_S5_
__ZN3WTF9HashTableIP7CGImageNS_12KeyValuePairIS2_jEENS_24KeyValuePairKeyExtractorIS4_EENS_7PtrHashIS2_EENS_18HashMapValueTraitsINS_10HashTraitsIS2_EENSA_IjEEEESB_E16lookupForWritingINS_22IdentityHashTranslatorIS8_EES2_EENSt3__14pairIPS4_bEERKT0_
__ZN3WTF9HashTableIP7CGImageNS_12KeyValuePairIS2_jEENS_24KeyValuePairKeyExtractorIS4_EENS_7PtrHashIS2_EENS_18HashMapValueTraitsINS_10HashTraitsIS2_EENSA_IjEEEESB_E3addINS_17HashMapTranslatorISD_S8_EES2_jEENS_18HashTableAddResultINS_17HashTableIteratorIS2_S4_S6_S8_SD_SB_EEEERKT0_RKT1_
__ZN3WTF9HashTableIP7CGImageNS_12KeyValuePairIS2_jEENS_24KeyValuePairKeyExtractorIS4_EENS_7PtrHashIS2_EENS_18HashMapValueTraitsINS_10HashTraitsIS2_EENSA_IjEEEESB_E6lookupINS_22IdentityHashTranslatorIS8_EES2_EEPS4_RKT0_
__ZN3WTF9HashTableIP7CGImageNS_12KeyValuePairIS2_jEENS_24KeyValuePairKeyExtractorIS4_EENS_7PtrHashIS2_EENS_18HashMapValueTraitsINS_10HashTraitsIS2_EENSA_IjEEEESB_E6shrinkEv
__ZN7CyberCore5TimerINS_22ImageQualityControllerEE5firedEv
__ZN7CyberCore22ImageQualityController28highQualityRepaintTimerFiredEPNS_5TimerIS0_EE
-[WebScrollbarPainterControllerDelegate mouseLocationInContentAreaForScrollerImpPair:]
__ZThn64_NK7CyberCore9FrameView22lastKnownMousePositionEv
__ZNK7CyberCore12EventHandler22lastKnownMousePositionEv
__ZNK7CyberCore8IntPointcv7CGPointEv
-[WebScrollbarPainterControllerDelegate scrollerImpPair:convertContentPoint:toScrollerImp:]
__ZNK7CyberCore9Scrollbar25convertFromContainingViewERKNS_8IntPointE
__ZThn64_NK7CyberCore10ScrollView36convertFromContainingViewToScrollbarEPKNS_9ScrollbarERKNS_8IntPointE
-[WebScrollbarPartAnimation .cxx_destruct]
__ZN7CyberCore22DeferrableOneShotTimerINS_22SubimageCacheWithTimerEE5firedEv
__ZN7CyberCore22SubimageCacheWithTimer25invalidateCacheTimerFiredEPNS_22DeferrableOneShotTimerIS0_EE
__ZN7CyberCore5TimerINS_13ScratchBufferEE5firedEv
__ZN7CyberCore13ScratchBuffer10timerFiredEPNS_5TimerIS0_EE
__ZN7CyberCore11ImageBufferD1Ev
__ZN7CyberCore23ApplicationCacheStorage5emptyEv
__ZN7CyberCore31CrossOriginPreflightResultCache6sharedEv
__ZN7CyberCore31CrossOriginPreflightResultCache5emptyEv
__ZN7CyberCore12IconDatabase14removeAllIconsEv
__ZN7CyberCore10IconRecordD1Ev
__ZN7CyberCore10IconRecordD2Ev
__ZN7CyberCore9FrameData5clearEb
__ZN7CyberCore22SubimageCacheWithTimer10clearImageEP7CGImage
-[CyberCoreSharedBufferData dealloc]
_CyberCoreObjCScheduleDeallocateOnMainThread
-[CyberCoreSharedBufferData .cxx_destruct]
__ZN7CyberCore12IconDatabase27deleteAllPreparedStatementsEv
__ZNK3WTF12StringAppendIPKcNS_6StringEEcvS3_Ev
__ZN3WTF13tryMakeStringIPKcNS_6StringEEENS_10PassRefPtrINS_10StringImplEEET_T0_
__ZN7CyberCore14SQLiteDatabaseD1Ev
__ZN7CyberCore14SQLiteDatabaseD2Ev
__ZN7CyberCore10deleteFileERKN3WTF6StringE
__ZN7CyberCore20deleteEmptyDirectoryERKN3WTF6StringE
__ZN7CyberCore14SQLiteDatabase16runVacuumCommandEv
__ZN7CyberCore23RemovedAllIconsWorkItem11performWorkEv
__ZN7CyberCore23RemovedAllIconsWorkItemD0Ev
-[WebTiledBackingLayer dealloc]
-[WebTiledBackingLayer .cxx_destruct]
__ZN7CyberCore15FocusController15setFocusedFrameEN3WTF10PassRefPtrINS_5FrameEEE
__ZN7CyberCore14FrameSelection10setFocusedEb
__ZN7CyberCore14FrameSelection20setSelectionFromNoneEv
__ZN7CyberCore8Document36updateLayoutIgnorePendingStylesheetsEv
__ZN3WTF9HashTableIPN7CyberCore12FontSelectorES3_NS_17IdentityExtractorENS_7PtrHashIS3_EENS_10HashTraitsIS3_EES8_E16lookupForWritingINS_22IdentityHashTranslatorIS6_EES3_EENSt3__14pairIPS3_bEERKT0_
__ZN3WTF9HashTableIPN7CyberCore12FontSelectorES3_NS_17IdentityExtractorENS_7PtrHashIS3_EENS_10HashTraitsIS3_EES8_E6lookupINS_22IdentityHashTranslatorIS6_EES3_EEPS3_RKT0_
__ZN7CyberCore8Document12updateLayoutEv
__ZN7CyberCore11RenderBlock24repaintOverhangingFloatsEb
__ZN7CyberCore11RenderBlock20hasOverhangingFloatsEv
__ZN7CyberCoreL24fontDataForGenericFamilyEPNS_8DocumentERKNS_15FontDescriptionERKN3WTF12AtomicStringE
__ZN7CyberCore9FontCache17getCachedFontDataERKNS_15FontDescriptionERKN3WTF12AtomicStringEbNS0_12ShouldRetainE
__ZN7CyberCore14ClipRectsCacheD2Ev
__ZN7CyberCore14FrameSelection19invalidateCaretRectEv
__ZNK7CyberCore6Chrome19focusedFrameChangedEPNS_5FrameE
__ZN7CyberCoreL39dispatchEventsOnWindowAndFocusedElementEPNS_8DocumentEb
__ZN7CyberCore29ScrollingTreeScrollingNodeMacD0Ev
__ZN7CyberCore29ScrollingTreeScrollingNodeMacD2Ev
__ZN7CyberCore26ScrollingTreeScrollingNodeD2Ev
__ZN7CyberCore17ScrollingTreeNodeD2Ev
__ZN7CyberCore12CachedScript11setEncodingERKN3WTF6StringE
__ZN7CyberCore14CachedResource13addDataBufferEPNS_14ResourceBufferE
__ZN7CyberCore14ResourceBuffer6appendEPKcj
__ZN7CyberCore12CachedScript13finishLoadingEPNS_14ResourceBufferE
__ZN7CyberCore19CachedCSSStyleSheet11setEncodingERKN3WTF6StringE
__ZN7CyberCore19CachedCSSStyleSheet13finishLoadingEPNS_14ResourceBufferE
__ZN7CyberCore19TextResourceDecoder18checkForCSSCharsetEPKcmRb
__ZN7CyberCore19CachedCSSStyleSheet11checkNotifyEv
__ZN7CyberCore26CachedResourceClientWalkerINS_22CachedStyleSheetClientEEC2ERKN3WTF14HashCountedSetIPNS_20CachedResourceClientENS3_7PtrHashIS6_EENS3_10HashTraitsIS6_EEEE
__ZThn96_N7CyberCore15HTMLLinkElement16setCSSStyleSheetERKN3WTF6StringERKNS_4KURLES4_PKNS_19CachedCSSStyleSheetE
__ZN7CyberCore15HTMLLinkElement16setCSSStyleSheetERKN3WTF6StringERKNS_4KURLES4_PKNS_19CachedCSSStyleSheetE
__ZN7CyberCore19CachedCSSStyleSheet23restoreParsedStyleSheetERKNS_16CSSParserContextE
__ZN7CyberCore13CSSStyleSheet6createEN3WTF10PassRefPtrINS_18StyleSheetContentsEEEPNS_4NodeE
__ZN7CyberCore18StyleSheetContents21parseAuthorStyleSheetEPKNS_19CachedCSSStyleSheetEPKNS_14SecurityOriginE
__ZNK7CyberCore19CachedCSSStyleSheet9sheetTextEbPb
__ZNK7CyberCore14ResourceBuffer7isEmptyEv
__ZNK7CyberCore19CachedCSSStyleSheet11canUseSheetEbPb
__ZN7CyberCore28extractMIMETypeFromMediaTypeERKN3WTF6StringE
__ZN7CyberCore9CSSParser17parseFillPositionEPNS_18CSSParserValueListERN3WTF6RefPtrINS_8CSSValueEEES7_
__ZN7CyberCoreL19parseBackgroundClipEPNS_14CSSParserValueERN3WTF6RefPtrINS_8CSSValueEEE
__ZN7CyberCore9CSSParser20parseBackgroundColorEv
__ZN7CyberCore17CSSPrimitiveValueD1Ev
__ZN7CyberCore17CSSPrimitiveValue7cleanupEv
__ZN7CyberCore21borderBottomShorthandEv
__ZN7CyberCore9CSSParser26createPrimitiveStringValueEPNS_14CSSParserValueE
__ZN7CyberCore9CSSParser9parseFontEb
__ZN7CyberCore4PairD0Ev
__ZN7CyberCore9CSSParser16parseBorderImageENS_13CSSPropertyIDERN3WTF6RefPtrINS_8CSSValueEEEb
__ZN7CyberCore9CSSParser21parseBorderImageSliceENS_13CSSPropertyIDERN3WTF6RefPtrINS_24CSSBorderImageSliceValueEEE
__ZN7CyberCore28BorderImageSliceParseContext12commitNumberEPNS_14CSSParserValueE
__ZN7CyberCore28BorderImageSliceParseContext22commitBorderImageSliceEv
__ZN7CyberCore17CSSPrimitiveValue6createIN3WTF10PassRefPtrINS_4QuadEEEEENS3_IS0_EET_
__ZN7CyberCore17CSSPrimitiveValue4initEN3WTF10PassRefPtrINS_4QuadEEE
__ZN7CyberCore24CSSBorderImageSliceValueC1EN3WTF10PassRefPtrINS_17CSSPrimitiveValueEEEb
__ZN7CyberCore9CSSParser22parseBorderImageRepeatERN3WTF6RefPtrINS_8CSSValueEEE
__ZN7CyberCore23BorderImageParseContext23commitCyberKitBorderImageEv
__ZN7CyberCore22createBorderImageValueEN3WTF10PassRefPtrINS_8CSSValueEEES3_S3_S3_S3_
__ZN7CyberCore23BorderImageParseContextD2Ev
__ZN7CyberCore18listStyleShorthandEv
__ZN7CyberCore9CSSParser15currentLocationEv
__ZN7CyberCore9CSSParser11syntaxErrorERKNS0_8LocationENS0_15SyntaxErrorTypeE
__ZN7CyberCore9CSSParser8logErrorERKN3WTF6StringEi
__ZN7CyberCore17PageConsoleClient10addMessageENS_13MessageSourceENS_12MessageLevelERKN3WTF6StringES6_jjNS3_10PassRefPtrINS_15ScriptCallStackEEEPN3JSC9ExecStateEm
__ZN7CyberCore21InspectorConsoleAgent19addMessageToConsoleENS_13MessageSourceENS_11MessageTypeENS_12MessageLevelERKN3WTF6StringES7_jjPN3JSC9ExecStateEm
__ZN7CyberCore9CSSParser13parseSVGValueENS_13CSSPropertyIDEb
__ZN7CyberCore9CSSParser29parseDeprecatedLinearGradientEPNS_18CSSParserValueListERN3WTF6RefPtrINS_8CSSValueEEENS_17CSSGradientRepeatE
__ZN7CyberCore9CSSParser23parseGradientColorStopsEPNS_18CSSParserValueListEPNS_16CSSGradientValueEb
__ZN7CyberCore9CSSParser22rollbackLastPropertiesEi
__ZN7CyberCore9CSSParser19parseLinearGradientEPNS_18CSSParserValueListERN3WTF6RefPtrINS_8CSSValueEEENS_17CSSGradientRepeatE
__ZN7CyberCore16CSSGradientValueD2Ev
__ZN7CyberCore22CSSImageGeneratorValueD2Ev
__ZN7CyberCore20borderRightShorthandEv
__ZN7CyberCore19borderLeftShorthandEv
__ZN7CyberCore18borderTopShorthandEv
__ZN3WTF6VectorINS_6RefPtrIN7CyberCore8CSSValueEEELm4ENS_15CrashOnOverflowEE15reserveCapacityEm
__ZN7CyberCore9CSSParser13parseFillSizeENS_13CSSPropertyIDERb
__ZN7CyberCore18StyleSheetContents17notifyLoadedSheetEPKNS_19CachedCSSStyleSheetE
__ZN7CyberCore15HTMLLinkElement11sheetLoadedEv
__ZN7CyberCore10RenderView30repaintViewAndCompositedLayersEv
__ZN7CyberCore21RenderLayerCompositor23repaintCompositedLayersEPKNS_7IntRectE
__ZN7CyberCore21RenderLayerCompositor21recursiveRepaintLayerEPNS_11RenderLayerEPKNS_7IntRectE
__ZN7CyberCore11RenderLayer22setBackingNeedsRepaintEv
__ZN7CyberCore9FillLayer15initialFillSizeENS_14EFillLayerTypeE
__ZN7CyberCore20ApplyPropertyDefaultINS_9EOverflowEXadL_ZNKS_11RenderStyle9overflowYEvEES1_XadL_ZNS2_12setOverflowYES1_EES1_XadL_ZNS2_16initialOverflowYEvEEE10applyValueENS_13CSSPropertyIDEPNS_13StyleResolverEPNS_8CSSValueE
__ZN7CyberCore20ApplyPropertyDefaultINS_9EOverflowEXadL_ZNKS_11RenderStyle9overflowXEvEES1_XadL_ZNS2_12setOverflowXES1_EES1_XadL_ZNS2_16initialOverflowXEvEEE10applyValueENS_13CSSPropertyIDEPNS_13StyleResolverEPNS_8CSSValueE
__ZNK7CyberCore17CSSPrimitiveValue14getDoubleValueEv
__ZN7CyberCore20ApplyPropertyDefaultINS_9EPositionEXadL_ZNKS_11RenderStyle8positionEvEES1_XadL_ZNS2_11setPositionES1_EES1_XadL_ZNS2_15initialPositionEvEEE10applyValueENS_13CSSPropertyIDEPNS_13StyleResolverEPNS_8CSSValueE
__ZN7CyberCore11RenderBlock23removePositionedObjectsEPS0_NS_20ContainingBlockStateE
__ZNK7CyberCore12RenderObject20isSVGHiddenContainerEv
__ZN7CyberCore12RenderObject10moveLayersEPNS_11RenderLayerES2_
__ZNK7CyberCore12RenderObject22getUncachedPseudoStyleERKNS_18PseudoStyleRequestEPNS_11RenderStyleES5_
__ZN7CyberCore13StyleResolver21pseudoStyleForElementEPNS_7ElementERKNS_18PseudoStyleRequestEPNS_11RenderStyleE
__ZNK7CyberCore11RenderBlock19virtualContinuationEv
__ZNK7CyberCore11RenderLayer23usesCompositedScrollingEv
__ZN7CyberCore10RenderText15willBeDestroyedEv
__ZN7CyberCore10RenderText25removeAndDestroyTextBoxesEv
__ZN7CyberCore9InlineBox6removeEv
__ZN7CyberCore13InlineFlowBox11removeChildEPNS_9InlineBoxE
__ZN7CyberCore9InlineBox14dirtyLineBoxesEv
__ZN7CyberCore13RootInlineBox12childRemovedEPNS_9InlineBoxE
__ZN7CyberCore13InlineTextBox7destroyEPNS_11RenderArenaE
__ZN7CyberCore9InlineBox7destroyEPNS_11RenderArenaE
__ZN7CyberCore13InlineTextBoxD0Ev
__ZN7CyberCore9InlineBoxdlEPvm
__ZN7CyberCore12RenderObject15virtualChildrenEv
__ZNK7CyberCore10RenderText29clippedOverflowRectForRepaintEPKNS_22RenderLayerModelObjectE
__ZN7CyberCore13InlineFlowBox10deleteLineEPNS_11RenderArenaE
__ZN7CyberCore13RootInlineBox29removeLineBoxFromRenderObjectEv
__ZN7CyberCore17RenderLineBoxList13removeLineBoxEPNS_13InlineFlowBoxE
__ZN7CyberCore13RootInlineBox7destroyEPNS_11RenderArenaE
__ZN7CyberCore13RootInlineBox17detachEllipsisBoxEPNS_11RenderArenaE
__ZN7CyberCore13RootInlineBoxD0Ev
__ZN7CyberCore10RenderTextD0Ev
__ZN7CyberCore16HTMLScriptRunner35executeScriptsWaitingForStylesheetsEv
__ZN7CyberCore16HTMLScriptRunner28executeParsingBlockingScriptEv
__ZN7CyberCore16HTMLScriptRunner36executePendingScriptAndDispatchEventERNS_13PendingScriptE
__ZNK7CyberCore16HTMLScriptRunner23sourceFromPendingScriptERKNS_13PendingScriptERb
__ZNK7CyberCore4Node11textContentEb
__ZN7CyberCoreL17appendTextContentEPKNS_4NodeEbRbRN3WTF13StringBuilderE
__ZN7CyberCore13PendingScript22releaseElementAndClearEv
__ZN7CyberCore23jsDOMWindowFrameElementEPN3JSC9ExecStateENS0_7JSValueENS0_12PropertyNameE
__ZNK7CyberCore9DOMWindow12frameElementEv
__ZN7CyberCore23shouldAllowAccessToNodeEPN3JSC9ExecStateEPNS_4NodeE
__ZN7CyberCore15BindingSecurity23shouldAllowAccessToNodeEPN3JSC9ExecStateEPNS_4NodeE
__ZN7CyberCore11JSDOMWindow3putEPN3JSC6JSCellEPNS1_9ExecStateENS1_12PropertyNameENS1_7JSValueERNS1_15PutPropertySlotE
__ZN3JSC14JSGlobalObject22hasOwnPropertyForWriteEPNS_9ExecStateENS_12PropertyNameE
__ZN3JSC14symbolTableGetINS_14JSGlobalObjectEEEbPT_NS_12PropertyNameERNS_12PropertySlotERb
__ZN7CyberCore18setJSDOMWindowNameEPN3JSC9ExecStateEPNS0_8JSObjectENS0_7JSValueE
__ZN7CyberCore9DOMWindow7setNameERKN3WTF6StringE
__ZN7CyberCore18HTMLDocumentParser33resumeParsingAfterScriptExecutionEv
__ZN7CyberCore13ScriptElement21handleSourceAttributeERKN3WTF6StringE
__ZThn96_NK7CyberCore17HTMLScriptElement20sourceAttributeValueEv
__ZN7CyberCore13ScriptElement13requestScriptERKN3WTF6StringE
__ZN7CyberCore20CachedResourceLoader13requestScriptERNS_21CachedResourceRequestE
__ZN3WTF9HashTableINS_6StringENS_12KeyValuePairIS1_PN7CyberCore14CachedResourceEEENS_24KeyValuePairKeyExtractorIS6_EENS_10StringHashENS_18HashMapValueTraitsINS_10HashTraitsIS1_EENSB_IS5_EEEESC_E16lookupForWritingINS_22IdentityHashTranslatorIS9_EES1_EENSt3__14pairIPS6_bEERKT0_
__ZN3WTF9HashTableINS_6StringENS_12KeyValuePairIS1_PN7CyberCore14CachedResourceEEENS_24KeyValuePairKeyExtractorIS6_EENS_10StringHashENS_18HashMapValueTraitsINS_10HashTraitsIS1_EENSB_IS5_EEEESC_E3addINS_17HashMapTranslatorISE_S9_EES1_S5_EENS_18HashTableAddResultINS_17HashTableIteratorIS1_S6_S8_S9_SE_SC_EEEERKT0_RKT1_
__ZN3WTF9HashTableINS_6StringENS_12KeyValuePairIS1_PN7CyberCore14CachedResourceEEENS_24KeyValuePairKeyExtractorIS6_EENS_10StringHashENS_18HashMapValueTraitsINS_10HashTraitsIS1_EENSB_IS5_EEEESC_E6lookupINS_22IdentityHashTranslatorIS9_EES1_EEPS6_RKT0_
__ZN3WTF9HashTableINS_6StringENS_12KeyValuePairIS1_PN7CyberCore14CachedResourceEEENS_24KeyValuePairKeyExtractorIS6_EENS_10StringHashENS_18HashMapValueTraitsINS_10HashTraitsIS1_EENSB_IS5_EEEESC_E6rehashEi
__ZN7CyberCore14CachedResource13makePurgeableEb
__ZNK7CyberCore14CachedResource8canReuseERKNS_15ResourceRequestE
__ZN7CyberCore20CachedResourceLoader49shouldContinueAfterNotifyingLoadedFromMemoryCacheEPNS_14CachedResourceE
__ZN7CyberCore11FrameLoader29loadedResourceFromMemoryCacheEPNS_14CachedResourceERNS_15ResourceRequestE
__ZNK7CyberCore14CachedResource14stillNeedsLoadEv
__ZThn96_NK7CyberCore17HTMLScriptElement19deferAttributeValueEv
__ZNK7CyberCore16HTMLScriptRunner20requestPendingScriptERNS_13PendingScriptEPNS_7ElementE
__ZN7CyberCore13PendingScript15setCachedScriptEPNS_12CachedScriptE
__ZN7CyberCore13PendingScript14notifyFinishedEPNS_14CachedResourceE
__ZN7CyberCore16ScriptSourceCodeC2EPNS_12CachedScriptE
__ZNK7CyberCore26CachedScriptSourceProvider6sourceEv
__ZN7CyberCore12CachedScript6scriptEv
__ZN7CyberCore14CachedResource12removeClientEPNS_20CachedResourceClientE
__ZN3WTF7HashMapIPN7CyberCore20CachedResourceClientENS_6OwnPtrINS1_14CachedResource22CachedResourceCallbackEEENS_7PtrHashIS3_EENS_10HashTraitsIS3_EENSA_IS7_EEE4takeERKS3_
__ZN3WTF14HashCountedSetIPN7CyberCore20CachedResourceClientENS_7PtrHashIS3_EENS_10HashTraitsIS3_EEE6removeERKS3_
__ZN7CyberCore14CachedResource15didRemoveClientEPNS_20CachedResourceClientE
__ZN7CyberCore19jsDOMWindowLocationEPN3JSC9ExecStateENS0_7JSValueENS0_12PropertyNameE
__ZNK7CyberCore9DOMWindow8locationEv
__ZN7CyberCore8LocationC1EPNS_5FrameE
__ZN7CyberCore4toJSEPN3JSC9ExecStateEPNS_17JSDOMGlobalObjectEPNS_8LocationE
__ZN7CyberCore15getDOMStructureINS_10JSLocationEEEPN3JSC9StructureEPNS2_9ExecStateEPNS_17JSDOMGlobalObjectE
__ZN7CyberCore10JSLocation15createPrototypeEPN3JSC9ExecStateEPNS1_14JSGlobalObjectE
__ZN7CyberCore12cacheWrapperINS_8LocationEEEvPNS_15DOMWrapperWorldEPT_PNS_12JSDOMWrapperE
__ZN7CyberCore20jsDOMWindowNavigatorEPN3JSC9ExecStateENS0_7JSValueENS0_12PropertyNameE
__ZNK7CyberCore9DOMWindow9navigatorEv
__ZN7CyberCore9NavigatorC1EPNS_5FrameE
__ZN7CyberCore4toJSEPN3JSC9ExecStateEPNS_17JSDOMGlobalObjectEPNS_9NavigatorE
__ZN7CyberCore15getDOMStructureINS_11JSNavigatorEEEPN3JSC9StructureEPNS2_9ExecStateEPNS_17JSDOMGlobalObjectE
__ZN7CyberCore11JSNavigator15createPrototypeEPN3JSC9ExecStateEPNS1_14JSGlobalObjectE
__ZN7CyberCore12cacheWrapperINS_9NavigatorEEEvPNS_15DOMWrapperWorldEPT_PNS_12JSDOMWrapperE
__ZN7CyberCore11JSNavigator18getOwnPropertySlotEPN3JSC6JSCellEPNS1_9ExecStateENS1_12PropertyNameERNS1_12PropertySlotE
__ZN3JSC18getStaticValueSlotIN7CyberCore11JSNavigatorENS1_12JSDOMWrapperEEEbPNS_9ExecStateEPKNS_9HashTableEPT_NS_12PropertyNameERNS_12PropertySlotE
__ZN7CyberCore20jsNavigatorUserAgentEPN3JSC9ExecStateENS0_7JSValueENS0_12PropertyNameE
__ZNK7CyberCore9Navigator9userAgentEv
__ZNK7CyberCore11FrameLoader9userAgentERKNS_4KURLE
__ZN7CyberCore17jsStringWithCacheEPN3JSC9ExecStateERKN3WTF6StringE
__ZN3JSC9WeakGCMapIPN3WTF10StringImplENS_8JSStringENS1_7PtrHashIS3_EENS1_10HashTraitsIS3_EEE3addERKS3_NS_8PassWeakIS4_EE
__ZN3WTF9HashTableIPNS_10StringImplENS_12KeyValuePairIS2_N3JSC4WeakINS4_8JSStringEEEEENS_24KeyValuePairKeyExtractorIS8_EENS_7PtrHashIS2_EENS_18HashMapValueTraitsINS_10HashTraitsIS2_EENSE_IS7_EEEESF_E16lookupForWritingINS_22IdentityHashTranslatorISC_EES2_EENSt3__14pairIPS8_bEERKT0_
__ZN3WTF9HashTableIPNS_10StringImplENS_12KeyValuePairIS2_N3JSC4WeakINS4_8JSStringEEEEENS_24KeyValuePairKeyExtractorIS8_EENS_7PtrHashIS2_EENS_18HashMapValueTraitsINS_10HashTraitsIS2_EENSE_IS7_EEEESF_E3addINS_17HashMapTranslatorISH_SC_EES2_NS4_8PassWeakIS6_EEEENS_18HashTableAddResultINS_17HashTableIteratorIS2_S8_SA_SC_SH_SF_EEEERKT0_RKT1_
__ZN3WTF9HashTableIPNS_10StringImplENS_12KeyValuePairIS2_N3JSC4WeakINS4_8JSStringEEEEENS_24KeyValuePairKeyExtractorIS8_EENS_7PtrHashIS2_EENS_18HashMapValueTraitsINS_10HashTraitsIS2_EENSE_IS7_EEEESF_E6lookupINS_22IdentityHashTranslatorISC_EES2_EEPS8_RKT0_
__ZN3WTF9HashTableIPNS_10StringImplENS_12KeyValuePairIS2_N3JSC4WeakINS4_8JSStringEEEEENS_24KeyValuePairKeyExtractorIS8_EENS_7PtrHashIS2_EENS_18HashMapValueTraitsINS_10HashTraitsIS2_EENSE_IS7_EEEESF_E6rehashEi
__ZN3JSC8jsStringEPNS_9ExecStateERKN3WTF6StringE
__ZN3JSC8JSString6createERNS_2VMEN3WTF10PassRefPtrINS3_10StringImplEEE
__ZN7CyberCore14JSHTMLDocument18getOwnPropertySlotEPN3JSC6JSCellEPNS1_9ExecStateENS1_12PropertyNameERNS1_12PropertySlotE
__ZN7CyberCore14JSHTMLDocument18canGetItemsForNameEPN3JSC9ExecStateEPNS_12HTMLDocumentENS1_12PropertyNameE
__ZN3JSC18getStaticValueSlotIN7CyberCore14JSHTMLDocumentENS1_10JSDocumentEEEbPNS_9ExecStateEPKNS_9HashTableEPT_NS_12PropertyNameERNS_12PropertySlotE
__ZN3JSC18getStaticValueSlotIN7CyberCore6JSNodeENS1_12JSDOMWrapperEEEbPNS_9ExecStateEPKNS_9HashTableEPT_NS_12PropertyNameERNS_12PropertySlotE
__ZN7CyberCore14jsNodeNodeTypeEPN3JSC9ExecStateENS0_7JSValueENS0_12PropertyNameE
__ZN7CyberCore23JSHTMLDocumentPrototype18getOwnPropertySlotEPN3JSC6JSCellEPNS1_9ExecStateENS1_12PropertyNameERNS1_12PropertySlotE
__ZN3JSC21getStaticFunctionSlotINS_8JSObjectEEEbPNS_9ExecStateEPKNS_9HashTableEPS1_NS_12PropertyNameERNS_12PropertySlotE
__ZN7CyberCore19JSDocumentPrototype18getOwnPropertySlotEPN3JSC6JSCellEPNS1_9ExecStateENS1_12PropertyNameERNS1_12PropertySlotE
__ZN7CyberCore15JSNodePrototype18getOwnPropertySlotEPN3JSC6JSCellEPNS1_9ExecStateENS1_12PropertyNameERNS1_12PropertySlotE
__ZN3JSC21getStaticPropertySlotIN7CyberCore15JSNodePrototypeENS_8JSObjectEEEbPNS_9ExecStateEPKNS_9HashTableEPT_NS_12PropertyNameERNS_12PropertySlotE
__ZN7CyberCore40jsDocumentPrototypeFunctionCreateElementEPN3JSC9ExecStateE
__ZN7CyberCore26valueToStringWithNullCheckEPN3JSC9ExecStateENS0_7JSValueE
__ZN7CyberCore12HTMLDocument13createElementERKN3WTF12AtomicStringERi
__ZN7CyberCore8Document11isValidNameERKN3WTF6StringE
__ZN7CyberCore16toJSNewlyCreatedEPN3JSC9ExecStateEPNS_17JSDOMGlobalObjectEPNS_7ElementE
__ZN7CyberCore19createJSHTMLWrapperEPN3JSC9ExecStateEPNS_17JSDOMGlobalObjectEN3WTF10PassRefPtrINS_11HTMLElementEEE
__ZN3WTF9HashTableIPNS_16AtomicStringImplENS_12KeyValuePairIS2_PFPN7CyberCore12JSDOMWrapperEPN3JSC9ExecStateEPNS4_17JSDOMGlobalObjectENS_10PassRefPtrINS4_10SVGElementEEEEEENS_24KeyValuePairKeyExtractorISH_EENS_7PtrHashIS2_EENS_18HashMapValueTraitsINS_10HashTraitsIS2_EENSN_ISG_EEEESO_E16lookupForWritingINS_22IdentityHashTranslatorISL_EES2_EENSt3__14pairIPSH_bEERKT0_
__ZN3WTF9HashTableIPNS_16AtomicStringImplENS_12KeyValuePairIS2_PFPN7CyberCore12JSDOMWrapperEPN3JSC9ExecStateEPNS4_17JSDOMGlobalObjectENS_10PassRefPtrINS4_10SVGElementEEEEEENS_24KeyValuePairKeyExtractorISH_EENS_7PtrHashIS2_EENS_18HashMapValueTraitsINS_10HashTraitsIS2_EENSN_ISG_EEEESO_E3addINS_17HashMapTranslatorISQ_SL_EES2_SG_EENS_18HashTableAddResultINS_17HashTableIteratorIS2_SH_SJ_SL_SQ_SO_EEEERKT0_RKT1_
__ZN3WTF9HashTableIPNS_16AtomicStringImplENS_12KeyValuePairIS2_PFPN7CyberCore12JSDOMWrapperEPN3JSC9ExecStateEPNS4_17JSDOMGlobalObjectENS_10PassRefPtrINS4_10SVGElementEEEEEENS_24KeyValuePairKeyExtractorISH_EENS_7PtrHashIS2_EENS_18HashMapValueTraitsINS_10HashTraitsIS2_EENSN_ISG_EEEESO_E6lookupINS_22IdentityHashTranslatorISL_EES2_EEPSH_RKT0_
__ZN3WTF9HashTableIPNS_16AtomicStringImplENS_12KeyValuePairIS2_PFPN7CyberCore12JSDOMWrapperEPN3JSC9ExecStateEPNS4_17JSDOMGlobalObjectENS_10PassRefPtrINS4_11HTMLElementEEEEEENS_24KeyValuePairKeyExtractorISH_EENS_7PtrHashIS2_EENS_18HashMapValueTraitsINS_10HashTraitsIS2_EENSN_ISG_EEEESO_E16lookupForWritingINS_22IdentityHashTranslatorISL_EES2_EENSt3__14pairIPSH_bEERKT0_
__ZN3WTF9HashTableIPNS_16AtomicStringImplENS_12KeyValuePairIS2_PFPN7CyberCore12JSDOMWrapperEPN3JSC9ExecStateEPNS4_17JSDOMGlobalObjectENS_10PassRefPtrINS4_11HTMLElementEEEEEENS_24KeyValuePairKeyExtractorISH_EENS_7PtrHashIS2_EENS_18HashMapValueTraitsINS_10HashTraitsIS2_EENSN_ISG_EEEESO_E3addINS_17HashMapTranslatorISQ_SL_EES2_SG_EENS_18HashTableAddResultINS_17HashTableIteratorIS2_SH_SJ_SL_SQ_SO_EEEERKT0_RKT1_
__ZN3WTF9HashTableIPNS_16AtomicStringImplENS_12KeyValuePairIS2_PFPN7CyberCore12JSDOMWrapperEPN3JSC9ExecStateEPNS4_17JSDOMGlobalObjectENS_10PassRefPtrINS4_11HTMLElementEEEEEENS_24KeyValuePairKeyExtractorISH_EENS_7PtrHashIS2_EENS_18HashMapValueTraitsINS_10HashTraitsIS2_EENSN_ISG_EEEESO_E6lookupINS_22IdentityHashTranslatorISL_EES2_EEPSH_RKT0_
__ZN7CyberCoreL27createHTMLDivElementWrapperEPN3JSC9ExecStateEPNS_17JSDOMGlobalObjectEN3WTF10PassRefPtrINS_11HTMLElementEEE
__ZN7CyberCore15getDOMStructureINS_16JSHTMLDivElementEEEPN3JSC9StructureEPNS2_9ExecStateEPNS_17JSDOMGlobalObjectE
__ZN7CyberCore16JSHTMLDivElement15createPrototypeEPN3JSC9ExecStateEPNS1_14JSGlobalObjectE
__ZN7CyberCore22JSHTMLElementPrototype4selfEPN3JSC9ExecStateEPNS1_14JSGlobalObjectE
__ZN7CyberCore15getDOMStructureINS_13JSHTMLElementEEEPN3JSC9StructureEPNS2_9ExecStateEPNS_17JSDOMGlobalObjectE
__ZN7CyberCore13JSHTMLElement15createPrototypeEPN3JSC9ExecStateEPNS1_14JSGlobalObjectE
__ZN7CyberCore18JSElementPrototype4selfEPN3JSC9ExecStateEPNS1_14JSGlobalObjectE
__ZN7CyberCore15getDOMStructureINS_9JSElementEEEPN3JSC9StructureEPNS2_9ExecStateEPNS_17JSDOMGlobalObjectE
__ZN7CyberCore9JSElement15createPrototypeEPN3JSC9ExecStateEPNS1_14JSGlobalObjectE
__ZN7CyberCore16JSHTMLDivElement6createEPN3JSC9StructureEPNS_17JSDOMGlobalObjectEN3WTF10PassRefPtrINS_14HTMLDivElementEEE
__ZN7CyberCore16JSHTMLDivElementC1EPN3JSC9StructureEPNS_17JSDOMGlobalObjectEN3WTF10PassRefPtrINS_14HTMLDivElementEEE
__ZN7CyberCore13JSHTMLElementC2EPN3JSC9StructureEPNS_17JSDOMGlobalObjectEN3WTF10PassRefPtrINS_11HTMLElementEEE
__ZN7CyberCore9JSElementC2EPN3JSC9StructureEPNS_17JSDOMGlobalObjectEN3WTF10PassRefPtrINS_7ElementEEE
__ZN7CyberCore16JSHTMLDivElement14finishCreationERN3JSC2VME
__ZN7CyberCore13JSHTMLElement14finishCreationERN3JSC2VME
__ZN7CyberCore9JSElement14finishCreationERN3JSC2VME
__ZN7CyberCore12cacheWrapperINS_14HTMLDivElementEEEvPNS_15DOMWrapperWorldEPT_PNS_12JSDOMWrapperE
__ZN7CyberCore15setDOMExceptionEPN3JSC9ExecStateEi
__ZN7CyberCore16JSHTMLDivElement18getOwnPropertySlotEPN3JSC6JSCellEPNS1_9ExecStateENS1_12PropertyNameERNS1_12PropertySlotE
__ZN7CyberCore13JSHTMLElement18getOwnPropertySlotEPN3JSC6JSCellEPNS1_9ExecStateENS1_12PropertyNameERNS1_12PropertySlotE
__ZN3JSC18getStaticValueSlotIN7CyberCore13JSHTMLElementENS1_9JSElementEEEbPNS_9ExecStateEPKNS_9HashTableEPT_NS_12PropertyNameERNS_12PropertySlotE
__ZN7CyberCore22JSHTMLElementPrototype18getOwnPropertySlotEPN3JSC6JSCellEPNS1_9ExecStateENS1_12PropertyNameERNS1_12PropertySlotE
__ZN7CyberCore18JSElementPrototype18getOwnPropertySlotEPN3JSC6JSCellEPNS1_9ExecStateENS1_12PropertyNameERNS1_12PropertySlotE
__ZN3JSC21getStaticPropertySlotIN7CyberCore18JSElementPrototypeENS_8JSObjectEEEbPNS_9ExecStateEPKNS_9HashTableEPT_NS_12PropertyNameERNS_12PropertySlotE
__ZN7CyberCore38jsElementPrototypeFunctionSetAttributeEPN3JSC9ExecStateE
__ZN7CyberCore7Element12setAttributeERKN3WTF12AtomicStringES4_Ri
__ZNK7CyberCore7Element20synchronizeAttributeERKN3WTF12AtomicStringE
__ZN7CyberCore7Element20setAttributeInternalEjRKNS_13QualifiedNameERKN3WTF12AtomicStringENS0_30SynchronizationOfLazyAttributeE
__ZN7CyberCore7Element20addAttributeInternalERKNS_13QualifiedNameERKN3WTF12AtomicStringENS0_30SynchronizationOfLazyAttributeE
__ZN7CyberCore7Element19willModifyAttributeERKNS_13QualifiedNameERKN3WTF12AtomicStringES7_
__ZN7CyberCore7Element23createUniqueElementDataEv
__ZN7CyberCore17UniqueElementData12addAttributeERKNS_13QualifiedNameERKN3WTF12AtomicStringE
__ZN7CyberCore7Element15didAddAttributeERKNS_13QualifiedNameERKN3WTF12AtomicStringE
__ZN7CyberCore4Node28dispatchSubtreeModifiedEventEv
__ZN7CyberCore16JSHTMLDivElement3putEPN3JSC6JSCellEPNS1_9ExecStateENS1_12PropertyNameENS1_7JSValueERNS1_15PutPropertySlotE
__ZN7CyberCore13JSHTMLElement3putEPN3JSC6JSCellEPNS1_9ExecStateENS1_12PropertyNameENS1_7JSValueERNS1_15PutPropertySlotE
__ZN3JSC8putEntryIN7CyberCore13JSHTMLElementEEEvPNS_9ExecStateEPKNS_9HashEntryENS_12PropertyNameENS_7JSValueEPT_b
__ZN7CyberCore25setJSHTMLElementInnerHTMLEPN3JSC9ExecStateEPNS0_8JSObjectENS0_7JSValueE
__ZN7CyberCore11HTMLElement12setInnerHTMLERKN3WTF6StringERi
__ZN7CyberCore31createFragmentForInnerOuterHTMLERKN3WTF6StringEPNS_7ElementENS_19ParserContentPolicyERi
__ZN7CyberCore16DocumentFragment6createEPNS_8DocumentE
__ZN7CyberCore16DocumentFragment9parseHTMLERKN3WTF6StringEPNS_7ElementENS_19ParserContentPolicyE
__ZN7CyberCore18HTMLDocumentParser21parseDocumentFragmentERKN3WTF6StringEPNS_16DocumentFragmentEPNS_7ElementENS_19ParserContentPolicyE
__ZN7CyberCore18HTMLDocumentParserC2EPNS_16DocumentFragmentEPNS_7ElementENS_19ParserContentPolicyE
__ZN7CyberCore15HTMLTreeBuilderC1EPNS_18HTMLDocumentParserEPNS_16DocumentFragmentEPNS_7ElementENS_19ParserContentPolicyERKNS_17HTMLParserOptionsE
__ZN7CyberCore15HTMLTreeBuilderC2EPNS_18HTMLDocumentParserEPNS_16DocumentFragmentEPNS_7ElementENS_19ParserContentPolicyERKNS_17HTMLParserOptionsE
__ZN7CyberCore20HTMLConstructionSiteC1EPNS_16DocumentFragmentENS_19ParserContentPolicyEj
__ZN7CyberCore16HTMLElementStack12pushRootNodeEN3WTF10PassRefPtrINS_13HTMLStackItemEEE
__ZN7CyberCore15HTMLTreeBuilder31resetInsertionModeAppropriatelyEv
__ZNK7CyberCore16HTMLElementStack8rootNodeEv
__ZN7CyberCore13HTMLStackItemC2EN3WTF10PassRefPtrINS_13ContainerNodeEEENS0_8ItemTypeE
__ZNK7CyberCore7Element9localNameEv
__ZN7CyberCore20HTMLConstructionSite7setFormEPNS_15HTMLFormElementE
__ZN7CyberCore10XSSAuditor15initForFragmentEv
__ZN7CyberCore18HTMLDocumentParser6insertERKNS_15SegmentedStringE
__ZN7CyberCore15SegmentedStringC1ERKS0_
__ZN7CyberCore15SegmentedStringC2ERKS0_
__ZN7CyberCore15SegmentedString21setExcludeLineNumbersEv
__ZN7CyberCore26ChildNodeInsertionNotifier26notifyNodeInsertedIntoTreeEPNS_13ContainerNodeE
__ZN7CyberCore26ChildNodeInsertionNotifier32notifyDescendantInsertedIntoTreeEPNS_13ContainerNodeE
__ZN7CyberCore20HTMLConstructionSite12inQuirksModeEv
__ZNK7CyberCore16HTMLElementStack13inButtonScopeERKNS_13QualifiedNameE
__ZN7CyberCoreL16tableConstructorERKNS_13QualifiedNameEPNS_8DocumentEPNS_15HTMLFormElementEb
__ZN7CyberCore16HTMLTableElement6createERKNS_13QualifiedNameEPNS_8DocumentE
__ZN7CyberCore16HTMLTableElementC2ERKNS_13QualifiedNameEPNS_8DocumentE
__ZN7CyberCore15HTMLTreeBuilder23processEndTagForInTableEPNS_15AtomicHTMLTokenE
__ZNK7CyberCore16HTMLElementStack12inTableScopeERKNS_13QualifiedNameE
__ZNK7CyberCore16HTMLElementStack12inTableScopeERKN3WTF12AtomicStringE
__ZN7CyberCoreL16inputConstructorERKNS_13QualifiedNameEPNS_8DocumentEPNS_15HTMLFormElementEb
__ZN7CyberCore16HTMLInputElement6createERKNS_13QualifiedNameEPNS_8DocumentEPNS_15HTMLFormElementEb
__ZN7CyberCore26HTMLTextFormControlElementC2ERKNS_13QualifiedNameEPNS_8DocumentEPNS_15HTMLFormElementE
__ZN7CyberCore31HTMLFormControlElementWithStateC2ERKNS_13QualifiedNameEPNS_8DocumentEPNS_15HTMLFormElementE
__ZN7CyberCore22HTMLFormControlElementC2ERKNS_13QualifiedNameEPNS_8DocumentEPNS_15HTMLFormElementE
__ZN7CyberCore16LabelableElementC2ERKNS_13QualifiedNameEPNS_8DocumentE
__ZN7CyberCore21FormAssociatedElementC2Ev
__ZN7CyberCore21FormAssociatedElement7setFormEPNS_15HTMLFormElementE
__ZN7CyberCore9InputType10createTextEPNS_16HTMLInputElementE
__ZN7CyberCore13TextInputType6createEPNS_16HTMLInputElementE
__ZN7CyberCore18TextFieldInputTypeC2EPNS_16HTMLInputElementE
__ZN7CyberCore7Element25ensureUserAgentShadowRootEv
__ZN7CyberCore7Element12ensureShadowEv
__ZN7CyberCore18ContentDistributorC1Ev
__ZN7CyberCore13ElementShadow13addShadowRootEPNS_7ElementENS_10ShadowRoot14ShadowRootTypeE
__ZN7CyberCore10ShadowRootC1EPNS_8DocumentENS0_14ShadowRootTypeE
__ZN7CyberCore16DocumentFragmentC2EPNS_8DocumentENS_4Node16ConstructionTypeE
__ZN7CyberCore9TreeScopeC2EPNS_13ContainerNodeEPNS_8DocumentE
__ZN7CyberCore9TreeScope18setParentTreeScopeEPS0_
__ZN7CyberCore18ContentDistributor23didShadowBoundaryChangeEPNS_7ElementE
__ZN7CyberCore18ContentDistributor22invalidateDistributionEPNS_7ElementE
__ZN7CyberCore18ContentDistributor10invalidateEPNS_7ElementE
__ZN7CyberCore18ContentDistributor24ensureInsertionPointListEPNS_10ShadowRootE
__ZN7CyberCore16HTMLInputElement25didAddUserAgentShadowRootEPNS_10ShadowRootE
__ZN7CyberCore18TextFieldInputType19createShadowSubtreeEv
__ZNK7CyberCore18TextFieldInputType20shouldHaveSpinButtonEv
__ZNK7CyberCore11RenderTheme20shouldHaveSpinButtonEPNS_16HTMLInputElementE
__ZNK7CyberCore16HTMLInputElement11isSteppableEv
__ZNK7CyberCore9InputType11isSteppableEv
__ZNK7CyberCore18TextFieldInputType14needsContainerEv
__ZN7CyberCore27TextControlInnerTextElement6createEPNS_8DocumentE
__ZNK7CyberCore7Element19userAgentShadowRootEv
__ZN7CyberCore13ContainerNode11appendChildEN3WTF10PassRefPtrINS_4NodeEEERiNS_14AttachBehaviorE
__ZN7CyberCoreL16checkAcceptChildEPNS_13ContainerNodeEPNS_4NodeES3_
__ZNK7CyberCore4Node14customPseudoIdEv
__ZNK7CyberCore16DocumentFragment8nodeTypeEv
__ZNK7CyberCore4Node29containsIncludingHostElementsEPKS0_
__ZNK7CyberCore10ShadowRoot16childTypeAllowedENS_4Node8NodeTypeE
__ZN7CyberCoreL37collectChildrenAndRemoveFromOldParentEPNS_4NodeERN3WTF6VectorINS2_6RefPtrIS0_EELm11ENS2_15CrashOnOverflowEEERi
__ZNK7CyberCore4Node8containsEPKS0_
__ZNK7CyberCore4Node14isDescendantOfEPKS0_
__ZNK7CyberCore16TreeScopeAdopter18moveTreeToNewScopeEPNS_4NodeE
__ZN7CyberCoreL24updateTreeAfterInsertionEPNS_13ContainerNodeEPNS_4NodeENS_14AttachBehaviorE
__ZN7CyberCore10ShadowRoot15childrenChangedEbPNS_4NodeES2_i
__ZN7CyberCore8Document32updateRangesAfterChildrenChangedEPNS_13ContainerNodeE
__ZNK7CyberCore16HTMLInputElement23isPresentationAttributeERKNS_13QualifiedNameE
__ZN7CyberCore16HTMLInputElement14parseAttributeERKNS_13QualifiedNameERKN3WTF12AtomicStringE
__ZN7CyberCore16HTMLInputElement10updateTypeEv
__ZN7CyberCore9InputType6createEPNS_16HTMLInputElementERKN3WTF12AtomicStringE
__ZN7CyberCore14InputTypeNames6buttonEv
__ZN7CyberCore14InputTypeNames8checkboxEv
__ZN7CyberCore14InputTypeNames5emailEv
__ZN7CyberCore14InputTypeNames4fileEv
__ZN7CyberCore14InputTypeNames6hiddenEv
__ZN7CyberCore14InputTypeNames5imageEv
__ZN7CyberCore14InputTypeNames6numberEv
__ZN7CyberCore14InputTypeNames8passwordEv
__ZN7CyberCore14InputTypeNames5radioEv
__ZN7CyberCore14InputTypeNames5rangeEv
__ZN7CyberCore14InputTypeNames5resetEv
__ZN7CyberCore14InputTypeNames6searchEv
__ZN7CyberCore14InputTypeNames6submitEv
__ZN7CyberCore14InputTypeNames9telephoneEv
__ZN7CyberCore14InputTypeNames3urlEv
__ZN3WTF9HashTableINS_12AtomicStringENS_12KeyValuePairIS1_PFNS_10PassOwnPtrIN7CyberCore9InputTypeEEEPNS4_16HTMLInputElementEEEENS_24KeyValuePairKeyExtractorISB_EENS_15CaseFoldingHashENS_18HashMapValueTraitsINS_10HashTraitsIS1_EENSG_ISA_EEEESH_E16lookupForWritingINS_22IdentityHashTranslatorISE_EES1_EENSt3__14pairIPSB_bEERKT0_
__ZN3WTF9HashTableINS_12AtomicStringENS_12KeyValuePairIS1_PFNS_10PassOwnPtrIN7CyberCore9InputTypeEEEPNS4_16HTMLInputElementEEEENS_24KeyValuePairKeyExtractorISB_EENS_15CaseFoldingHashENS_18HashMapValueTraitsINS_10HashTraitsIS1_EENSG_ISA_EEEESH_E3addINS_17HashMapTranslatorISJ_SE_EES1_SA_EENS_18HashTableAddResultINS_17HashTableIteratorIS1_SB_SD_SE_SJ_SH_EEEERKT0_RKT1_
__ZN3WTF9HashTableINS_12AtomicStringENS_12KeyValuePairIS1_PFNS_10PassOwnPtrIN7CyberCore9InputTypeEEEPNS4_16HTMLInputElementEEEENS_24KeyValuePairKeyExtractorISB_EENS_15CaseFoldingHashENS_18HashMapValueTraitsINS_10HashTraitsIS1_EENSG_ISA_EEEESH_E6lookupINS_22IdentityHashTranslatorISE_EES1_EEPSB_RKT0_
__ZN3WTF9HashTableINS_12AtomicStringENS_12KeyValuePairIS1_PFNS_10PassOwnPtrIN7CyberCore9InputTypeEEEPNS4_16HTMLInputElementEEEENS_24KeyValuePairKeyExtractorISB_EENS_15CaseFoldingHashENS_18HashMapValueTraitsINS_10HashTraitsIS1_EENSG_ISA_EEEESH_E6rehashEi
__ZN3WTF9HashTableINS_12AtomicStringENS_12KeyValuePairIS1_PFNS_10PassOwnPtrIN7CyberCore9InputTypeEEEPNS4_16HTMLInputElementEEEENS_24KeyValuePairKeyExtractorISB_EENS_15CaseFoldingHashENS_18HashMapValueTraitsINS_10HashTraitsIS1_EENSG_ISA_EEEESH_E8reinsertERSB_
__ZN7CyberCore17CheckboxInputType6createEPNS_16HTMLInputElementE
__ZNK7CyberCore13TextInputType15formControlTypeEv
__ZN7CyberCore14InputTypeNames4textEv
__ZNK7CyberCore17CheckboxInputType15formControlTypeEv
__ZNK7CyberCore9InputType13isRadioButtonEv
__ZN7CyberCore9InputType32storesValueSeparateFromAttributeEv
__ZN7CyberCore16HTMLInputElement23needsSuspensionCallbackEv
__ZN7CyberCore9InputType31shouldResetOnDocumentActivationEv
__ZN7CyberCore9InputType37shouldRespectHeightAndWidthAttributesEv
__ZN7CyberCore18TextFieldInputType20destroyShadowSubtreeEv
__ZN7CyberCore9InputType20destroyShadowSubtreeEv
__ZN7CyberCore8Document26removeFocusedNodeOfSubtreeEPNS_4NodeEb
__ZN7CyberCore8Document32removeFullScreenElementOfSubtreeEPNS_4NodeEb
__ZN7CyberCore8Document25nodeChildrenWillBeRemovedEPNS_13ContainerNodeE
__ZN7CyberCore12EventHandler17nodeWillBeRemovedEPNS_4NodeE
__ZN7CyberCore14FrameSelection17nodeWillBeRemovedEPNS_4NodeE
__ZN7CyberCore19DragCaretController17nodeWillBeRemovedEPNS_4NodeE
__ZN7CyberCore4Node37notifyMutationObserversNodeWillDetachEv
__ZN7CyberCoreL26dispatchChildRemovalEventsEPNS_4NodeE
__ZN7CyberCore7Element11removedFromEPNS_13ContainerNodeE
__ZN7CyberCore24ChildNodeRemovalNotifier31notifyDescendantRemovedFromTreeEPNS_13ContainerNodeE
__ZN7CyberCore27TextControlInnerTextElementD0Ev
__ZN7CyberCore13TextInputTypeD0Ev
__ZN7CyberCore18TextFieldInputTypeD2Ev
__ZN7CyberCore9InputTypeD2Ev
__ZN7CyberCore9InputType19createShadowSubtreeEv
__ZN7CyberCore22HTMLFormControlElement25setNeedsWillValidateCheckEv
__ZNK7CyberCore16HTMLInputElement18recalcWillValidateEv
__ZNK7CyberCore9InputType18supportsValidationEv
__ZNK7CyberCore22HTMLFormControlElement18recalcWillValidateEv
__ZNK7CyberCore22HTMLFormControlElement21isDisabledFormControlEv
__ZNK7CyberCore22HTMLFormControlElement27updateAncestorDisabledStateEv
__ZNK7CyberCore7Element21isDisabledFormControlEv
__ZN7CyberCore22HTMLFormControlElement21setNeedsValidityCheckEv
__ZN7CyberCore21FormAssociatedElement8validityEv
__ZNK7CyberCore13ValidityState5validEv
__ZNK7CyberCore21FormAssociatedElement5validEv
__ZThn96_NK7CyberCore16HTMLInputElement12typeMismatchEv
__ZNK7CyberCore22HTMLFormControlElement12willValidateEv
__ZNK7CyberCore9InputType12typeMismatchEv
__ZThn96_NK7CyberCore16HTMLInputElement12stepMismatchEv
__ZNK7CyberCore16HTMLInputElement5valueEv
__ZN7CyberCore9InputType20getTypeSpecificValueERN3WTF6StringE
__ZNK7CyberCore22BaseCheckableInputType13fallbackValueEv
__ZNK7CyberCore9InputType12stepMismatchERKN3WTF6StringE
__ZThn96_NK7CyberCore16HTMLInputElement14rangeUnderflowEv
__ZNK7CyberCore9InputType14rangeUnderflowERKN3WTF6StringE
__ZThn96_NK7CyberCore16HTMLInputElement13rangeOverflowEv
__ZNK7CyberCore9InputType13rangeOverflowERKN3WTF6StringE
__ZThn96_NK7CyberCore16HTMLInputElement7tooLongEv
__ZNK7CyberCore16HTMLInputElement7tooLongEv
__ZNK7CyberCore9InputType10isTextTypeEv
__ZThn96_NK7CyberCore16HTMLInputElement15patternMismatchEv
__ZNK7CyberCore9InputType15patternMismatchERKN3WTF6StringE
__ZThn96_NK7CyberCore16HTMLInputElement12valueMissingEv
__ZNK7CyberCore17CheckboxInputType12valueMissingERKN3WTF6StringE
__ZNK7CyberCore22HTMLFormControlElement10isRequiredEv
__ZThn96_NK7CyberCore16HTMLInputElement11hasBadInputEv
__ZNK7CyberCore9InputType11hasBadInputEv
__ZThn96_NK7CyberCore22HTMLFormControlElement20isFormControlElementEv
__ZN7CyberCore22BaseCheckableInputType32storesValueSeparateFromAttributeEv
__ZN7CyberCore16HTMLInputElement19updateValueIfNeededEv
__ZN7CyberCore22HTMLFormControlElement34setFormControlValueMatchesRendererEb
__ZN7CyberCore9InputType20updateInnerTextValueEv
__ZN7CyberCore22HTMLFormControlElement41setChangedSinceLastFormControlChangeEventEb
__ZN7CyberCore31HTMLFormControlElementWithState22notifyFormStateChangedEv
__ZN7CyberCore9InputType16attributeChangedEv
__ZNK7CyberCore4Node15isAttributeNodeEv
__ZN7CyberCore16HTMLInputElement12insertedIntoEPNS_13ContainerNodeE
__ZN7CyberCore26HTMLTextFormControlElement12insertedIntoEPNS_13ContainerNodeE
__ZN7CyberCore31HTMLFormControlElementWithState12insertedIntoEPNS_13ContainerNodeE
__ZN7CyberCore22HTMLFormControlElement12insertedIntoEPNS_13ContainerNodeE
__ZN7CyberCore21FormAssociatedElement12insertedIntoEPNS_13ContainerNodeE
__ZN7CyberCore21FormAssociatedElement14resetFormOwnerEv
__ZN7CyberCore21FormAssociatedElement18findAssociatedFormEPKNS_11HTMLElementEPNS_15HTMLFormElementE
__ZN7CyberCore16HTMLInputElement21finishParsingChildrenEv
__ZN7CyberCore31HTMLFormControlElementWithState21finishParsingChildrenEv
__ZN7CyberCore8Document14formControllerEv
__ZN7CyberCore14FormControllerC1Ev
__ZN7CyberCore19CheckedRadioButtonsC1Ev
__ZN7CyberCore14FormController22restoreControlStateForERNS_31HTMLFormControlElementWithStateE
__ZNK7CyberCore16HTMLInputElement36shouldSaveAndRestoreFormControlStateEv
__ZNK7CyberCore9InputType36shouldSaveAndRestoreFormControlStateEv
__ZNK7CyberCore31HTMLFormControlElementWithState36shouldSaveAndRestoreFormControlStateEv
__ZN7CyberCore4Node21finishParsingChildrenEv
__ZN7CyberCore27replaceChildrenWithFragmentEPNS_13ContainerNodeEN3WTF10PassRefPtrINS_16DocumentFragmentEEERi
__ZNK7CyberCore7Element16childTypeAllowedENS_4Node8NodeTypeE
__ZN7CyberCore47willCreatePossiblyOrphanedTreeByRemovalSlowCaseEPNS_4NodeE
__ZN7CyberCore20mainWorldScriptStateEPNS_5FrameE
__ZN7CyberCoreL30createHTMLAnchorElementWrapperEPN3JSC9ExecStateEPNS_17JSDOMGlobalObjectEN3WTF10PassRefPtrINS_11HTMLElementEEE
__ZN7CyberCore15getDOMStructureINS_19JSHTMLAnchorElementEEEPN3JSC9StructureEPNS2_9ExecStateEPNS_17JSDOMGlobalObjectE
__ZN7CyberCore19JSHTMLAnchorElement15createPrototypeEPN3JSC9ExecStateEPNS1_14JSGlobalObjectE
__ZN7CyberCore19JSHTMLAnchorElement6createEPN3JSC9StructureEPNS_17JSDOMGlobalObjectEN3WTF10PassRefPtrINS_17HTMLAnchorElementEEE
__ZN7CyberCore19JSHTMLAnchorElementC1EPN3JSC9StructureEPNS_17JSDOMGlobalObjectEN3WTF10PassRefPtrINS_17HTMLAnchorElementEEE
__ZN7CyberCore19JSHTMLAnchorElement14finishCreationERN3JSC2VME
__ZN7CyberCore12cacheWrapperINS_17HTMLAnchorElementEEEvPNS_15DOMWrapperWorldEPT_PNS_12JSDOMWrapperE
__ZN7CyberCore15HTMLLinkElement11removedFromEPNS_13ContainerNodeE
__ZN7CyberCore16HTMLInputElement11removedFromEPNS_13ContainerNodeE
__ZN7CyberCore31HTMLFormControlElementWithState11removedFromEPNS_13ContainerNodeE
__ZN7CyberCore22HTMLFormControlElement11removedFromEPNS_13ContainerNodeE
__ZN7CyberCore21FormAssociatedElement11removedFromEPNS_13ContainerNodeE
__ZN7CyberCore4Node11removedFromEPNS_13ContainerNodeE
__ZN7CyberCore16DocumentFragmentD0Ev
__ZN7CyberCore46jsElementPrototypeFunctionGetElementsByTagNameEPN3JSC9ExecStateE
__ZN7CyberCore4Node20getElementsByTagNameERKN3WTF12AtomicStringE
__ZN7CyberCore17NodeListsNodeData22addCacheWithAtomicNameINS_15HTMLTagNodeListEEEN3WTF10PassRefPtrIT_EEPNS_4NodeENS_14CollectionTypeERKNS3_12AtomicStringE
__ZN7CyberCore15HTMLTagNodeListC1EN3WTF10PassRefPtrINS_4NodeEEERKNS1_12AtomicStringE
__ZN7CyberCore11TagNodeListC2EN3WTF10PassRefPtrINS_4NodeEEENS_14CollectionTypeERKNS1_12AtomicStringES8_
__ZN7CyberCore4toJSEPN3JSC9ExecStateEPNS_17JSDOMGlobalObjectEPNS_8NodeListE
__ZN7CyberCore15getDOMStructureINS_10JSNodeListEEEPN3JSC9StructureEPNS2_9ExecStateEPNS_17JSDOMGlobalObjectE
__ZN7CyberCore10JSNodeList15createPrototypeEPN3JSC9ExecStateEPNS1_14JSGlobalObjectE
__ZN7CyberCore12cacheWrapperINS_8NodeListEEEvPNS_15DOMWrapperWorldEPT_PNS_12JSDOMWrapperE
__ZN7CyberCore10JSNodeList25getOwnPropertySlotByIndexEPN3JSC6JSCellEPNS1_9ExecStateEjRNS1_12PropertySlotE
__ZN7CyberCore10JSNodeList11indexGetterEPN3JSC9ExecStateENS1_7JSValueEj
__ZN7CyberCore10JSNodeList18getOwnPropertySlotEPN3JSC6JSCellEPNS1_9ExecStateENS1_12PropertyNameERNS1_12PropertySlotE
__ZN7CyberCore16jsNodeListLengthEPN3JSC9ExecStateENS0_7JSValueENS0_12PropertyNameE
__ZN7CyberCoreL17selectConstructorERKNS_13QualifiedNameEPNS_8DocumentEPNS_15HTMLFormElementEb
__ZN7CyberCore17HTMLSelectElement6createERKNS_13QualifiedNameEPNS_8DocumentEPNS_15HTMLFormElementE
__ZN7CyberCore9TypeAheadC1EPNS_19TypeAheadDataSourceE
__ZN7CyberCoreL30createHTMLSelectElementWrapperEPN3JSC9ExecStateEPNS_17JSDOMGlobalObjectEN3WTF10PassRefPtrINS_11HTMLElementEEE
__ZN7CyberCore15getDOMStructureINS_19JSHTMLSelectElementEEEPN3JSC9StructureEPNS2_9ExecStateEPNS_17JSDOMGlobalObjectE
__ZN7CyberCore19JSHTMLSelectElement15createPrototypeEPN3JSC9ExecStateEPNS1_14JSGlobalObjectE
__ZN7CyberCore19JSHTMLSelectElement6createEPN3JSC9StructureEPNS_17JSDOMGlobalObjectEN3WTF10PassRefPtrINS_17HTMLSelectElementEEE
__ZN7CyberCore19JSHTMLSelectElementC1EPN3JSC9StructureEPNS_17JSDOMGlobalObjectEN3WTF10PassRefPtrINS_17HTMLSelectElementEEE
__ZN7CyberCore19JSHTMLSelectElement14finishCreationERN3JSC2VME
__ZN7CyberCore12cacheWrapperINS_17HTMLSelectElementEEEvPNS_15DOMWrapperWorldEPT_PNS_12JSDOMWrapperE
__ZN7CyberCore19JSHTMLSelectElement18getOwnPropertySlotEPN3JSC6JSCellEPNS1_9ExecStateENS1_12PropertyNameERNS1_12PropertySlotE
__ZN7CyberCore37getStaticValueSlotEntryWithoutCachingINS_19JSHTMLSelectElementEEEPKN3JSC9HashEntryEPNS2_9ExecStateENS2_12PropertyNameE
__ZN7CyberCore37getStaticValueSlotEntryWithoutCachingINS_9JSElementEEEPKN3JSC9HashEntryEPNS2_9ExecStateENS2_12PropertyNameE
__ZN7CyberCore28JSHTMLSelectElementPrototype18getOwnPropertySlotEPN3JSC6JSCellEPNS1_9ExecStateENS1_12PropertyNameERNS1_12PropertySlotE
__ZN7CyberCoreL17optionConstructorERKNS_13QualifiedNameEPNS_8DocumentEPNS_15HTMLFormElementEb
__ZN7CyberCore17HTMLOptionElement6createERKNS_13QualifiedNameEPNS_8DocumentE
__ZN7CyberCore17HTMLOptionElementC2ERKNS_13QualifiedNameEPNS_8DocumentE
__ZN7CyberCoreL30createHTMLOptionElementWrapperEPN3JSC9ExecStateEPNS_17JSDOMGlobalObjectEN3WTF10PassRefPtrINS_11HTMLElementEEE
__ZN7CyberCore15getDOMStructureINS_19JSHTMLOptionElementEEEPN3JSC9StructureEPNS2_9ExecStateEPNS_17JSDOMGlobalObjectE
__ZN7CyberCore19JSHTMLOptionElement15createPrototypeEPN3JSC9ExecStateEPNS1_14JSGlobalObjectE
__ZN7CyberCore19JSHTMLOptionElement6createEPN3JSC9StructureEPNS_17JSDOMGlobalObjectEN3WTF10PassRefPtrINS_17HTMLOptionElementEEE
__ZN7CyberCore19JSHTMLOptionElementC1EPN3JSC9StructureEPNS_17JSDOMGlobalObjectEN3WTF10PassRefPtrINS_17HTMLOptionElementEEE
__ZN7CyberCore19JSHTMLOptionElement14finishCreationERN3JSC2VME
__ZN7CyberCore12cacheWrapperINS_17HTMLOptionElementEEEvPNS_15DOMWrapperWorldEPT_PNS_12JSDOMWrapperE
__ZN7CyberCore34jsNodePrototypeFunctionAppendChildEPN3JSC9ExecStateE
__ZN7CyberCore6JSNode11appendChildEPN3JSC9ExecStateE
__ZN7CyberCore6toNodeEN3JSC7JSValueE
__ZN7CyberCore4Node11appendChildEN3WTF10PassRefPtrIS0_EERiNS_14AttachBehaviorE
__ZN7CyberCore17HTMLSelectElement15childrenChangedEbPNS_4NodeES2_i
__ZN7CyberCore17HTMLSelectElement18setRecalcListItemsEv
__ZNK7CyberCore21FormAssociatedElement12typeMismatchEv
__ZNK7CyberCore21FormAssociatedElement12stepMismatchEv
__ZNK7CyberCore21FormAssociatedElement14rangeUnderflowEv
__ZNK7CyberCore21FormAssociatedElement13rangeOverflowEv
__ZNK7CyberCore21FormAssociatedElement7tooLongEv
__ZNK7CyberCore21FormAssociatedElement15patternMismatchEv
__ZThn96_NK7CyberCore17HTMLSelectElement12valueMissingEv
__ZNK7CyberCore21FormAssociatedElement11hasBadInputEv
__ZN7CyberCore8Document24invalidateNodeListCachesEPKNS_13QualifiedNameE
__ZN7CyberCore17HTMLOptionElement12insertedIntoEPNS_13ContainerNodeE
__ZN7CyberCore17HTMLSelectElement17scrollToSelectionEv
__ZNK7CyberCore17HTMLSelectElement12usesMenuListEv
__ZNK7CyberCore11RenderTheme26delegatesMenuListRenderingEv
__ZN7CyberCoreL29createHTMLInputElementWrapperEPN3JSC9ExecStateEPNS_17JSDOMGlobalObjectEN3WTF10PassRefPtrINS_11HTMLElementEEE
__ZN7CyberCore15getDOMStructureINS_18JSHTMLInputElementEEEPN3JSC9StructureEPNS2_9ExecStateEPNS_17JSDOMGlobalObjectE
__ZN7CyberCore18JSHTMLInputElement15createPrototypeEPN3JSC9ExecStateEPNS1_14JSGlobalObjectE
__ZN7CyberCore18JSHTMLInputElement6createEPN3JSC9StructureEPNS_17JSDOMGlobalObjectEN3WTF10PassRefPtrINS_16HTMLInputElementEEE
__ZN7CyberCore18JSHTMLInputElementC1EPN3JSC9StructureEPNS_17JSDOMGlobalObjectEN3WTF10PassRefPtrINS_16HTMLInputElementEEE
__ZN7CyberCore18JSHTMLInputElement14finishCreationERN3JSC2VME
__ZN7CyberCore12cacheWrapperINS_16HTMLInputElementEEEvPNS_15DOMWrapperWorldEPT_PNS_12JSDOMWrapperE
__ZN7CyberCore16jsNodeFirstChildEPN3JSC9ExecStateENS0_7JSValueENS0_12PropertyNameE
__ZN7CyberCore15getDOMStructureINS_6JSTextEEEPN3JSC9StructureEPNS2_9ExecStateEPNS_17JSDOMGlobalObjectE
__ZN7CyberCore6JSText15createPrototypeEPN3JSC9ExecStateEPNS1_14JSGlobalObjectE
__ZN7CyberCore24JSCharacterDataPrototype4selfEPN3JSC9ExecStateEPNS1_14JSGlobalObjectE
__ZN7CyberCore15getDOMStructureINS_15JSCharacterDataEEEPN3JSC9StructureEPNS2_9ExecStateEPNS_17JSDOMGlobalObjectE
__ZN7CyberCore15JSCharacterData15createPrototypeEPN3JSC9ExecStateEPNS1_14JSGlobalObjectE
__ZN7CyberCore6JSText6createEPN3JSC9StructureEPNS_17JSDOMGlobalObjectEN3WTF10PassRefPtrINS_4TextEEE
__ZN7CyberCore6JSTextC1EPN3JSC9StructureEPNS_17JSDOMGlobalObjectEN3WTF10PassRefPtrINS_4TextEEE
__ZN7CyberCore15JSCharacterDataC2EPN3JSC9StructureEPNS_17JSDOMGlobalObjectEN3WTF10PassRefPtrINS_13CharacterDataEEE
__ZN7CyberCore6JSText14finishCreationERN3JSC2VME
__ZN7CyberCore15JSCharacterData14finishCreationERN3JSC2VME
__ZN7CyberCore12cacheWrapperINS_4TextEEEvPNS_15DOMWrapperWorldEPT_PNS_12JSDOMWrapperE
__ZN7CyberCore6JSText18getOwnPropertySlotEPN3JSC6JSCellEPNS1_9ExecStateENS1_12PropertyNameERNS1_12PropertySlotE
__ZN7CyberCore15JSCharacterData18getOwnPropertySlotEPN3JSC6JSCellEPNS1_9ExecStateENS1_12PropertyNameERNS1_12PropertySlotE
__ZN3WTF5MoverINS_12KeyValuePairINSt3__14pairIhNS_12AtomicStringEEEPN7CyberCore16LiveNodeListBaseEEELb1EE4moveERS9_SB_
__ZN7CyberCore19JSHTMLAnchorElement18getOwnPropertySlotEPN3JSC6JSCellEPNS1_9ExecStateENS1_12PropertyNameERNS1_12PropertySlotE
__ZN7CyberCore28JSHTMLAnchorElementPrototype18getOwnPropertySlotEPN3JSC6JSCellEPNS1_9ExecStateENS1_12PropertyNameERNS1_12PropertySlotE
__ZN7CyberCore38jsElementPrototypeFunctionGetAttributeEPN3JSC9ExecStateE
__ZNK7CyberCore7Element12getAttributeERKN3WTF12AtomicStringE
__ZNK7CyberCore11ElementData21getAttributeItemIndexERKN3WTF12AtomicStringEb
__ZN7CyberCore14jsStringOrNullEPN3JSC9ExecStateERKN3WTF6StringE
__ZN7CyberCore14jsElementStyleEPN3JSC9ExecStateENS0_7JSValueENS0_12PropertyNameE
__ZN7CyberCore13StyledElement5styleEv
__ZN7CyberCore13StyledElement24ensureMutableInlineStyleEv
__ZN7CyberCore17UniqueElementDataC2ERKNS_20ShareableElementDataE
__ZN3WTF6RefPtrIN7CyberCore16StylePropertySetEEaSERKS3_
__ZN3WTF6VectorIN7CyberCore9AttributeELm4ENS_15CrashOnOverflowEE15reserveCapacityEm
__ZN7CyberCore11ElementData5derefEv
__ZNK7CyberCore16StylePropertySet11mutableCopyEv
__ZN7CyberCore23MutableStylePropertySetC2ERKNS_16StylePropertySetE
__ZNK7CyberCore16StylePropertySet17PropertyReference13toCSSPropertyEv
__ZN7CyberCore23MutableStylePropertySet31ensureInlineCSSStyleDeclarationEPNS_13StyledElementE
__ZN3WTF9HashTableIPN7CyberCore23MutableStylePropertySetENS_12KeyValuePairIS3_NS_6OwnPtrINS1_30PropertySetCSSStyleDeclarationEEEEENS_24KeyValuePairKeyExtractorIS8_EENS_7PtrHashIS3_EENS_18HashMapValueTraitsINS_10HashTraitsIS3_EENSE_IS7_EEEESF_E16lookupForWritingINS_22IdentityHashTranslatorISC_EES3_EENSt3__14pairIPS8_bEERKT0_
__ZN3WTF9HashTableIPN7CyberCore23MutableStylePropertySetENS_12KeyValuePairIS3_NS_6OwnPtrINS1_30PropertySetCSSStyleDeclarationEEEEENS_24KeyValuePairKeyExtractorIS8_EENS_7PtrHashIS3_EENS_18HashMapValueTraitsINS_10HashTraitsIS3_EENSE_IS7_EEEESF_E3addINS_17HashMapTranslatorISH_SC_EES3_NS_10PassOwnPtrIS6_EEEENS_18HashTableAddResultINS_17HashTableIteratorIS3_S8_SA_SC_SH_SF_EEEERKT0_RKT1_
__ZN3WTF9HashTableIPN7CyberCore23MutableStylePropertySetENS_12KeyValuePairIS3_NS_6OwnPtrINS1_30PropertySetCSSStyleDeclarationEEEEENS_24KeyValuePairKeyExtractorIS8_EENS_7PtrHashIS3_EENS_18HashMapValueTraitsINS_10HashTraitsIS3_EENSE_IS7_EEEESF_E6lookupINS_22IdentityHashTranslatorISC_EES3_EEPS8_RKT0_
__ZN3WTF9HashTableIPN7CyberCore23MutableStylePropertySetENS_12KeyValuePairIS3_NS_6OwnPtrINS1_30PropertySetCSSStyleDeclarationEEEEENS_24KeyValuePairKeyExtractorIS8_EENS_7PtrHashIS3_EENS_18HashMapValueTraitsINS_10HashTraitsIS3_EENSE_IS7_EEEESF_E6rehashEi
__ZN7CyberCore4toJSEPN3JSC9ExecStateEPNS_17JSDOMGlobalObjectEPNS_19CSSStyleDeclarationE
__ZN7CyberCore15getDOMStructureINS_21JSCSSStyleDeclarationEEEPN3JSC9StructureEPNS2_9ExecStateEPNS_17JSDOMGlobalObjectE
__ZN7CyberCore21JSCSSStyleDeclaration15createPrototypeEPN3JSC9ExecStateEPNS1_14JSGlobalObjectE
__ZN7CyberCore30PropertySetCSSStyleDeclaration3refEv
__ZN7CyberCore12cacheWrapperINS_19CSSStyleDeclarationEEEvPNS_15DOMWrapperWorldEPT_PNS_12JSDOMWrapperE
__ZN7CyberCore21JSCSSStyleDeclaration18getOwnPropertySlotEPN3JSC6JSCellEPNS1_9ExecStateENS1_12PropertyNameERNS1_12PropertySlotE
__ZN7CyberCore21JSCSSStyleDeclaration26getOwnPropertySlotDelegateEPN3JSC9ExecStateENS1_12PropertyNameERNS1_12PropertySlotE
__ZN7CyberCoreL33cssPropertyIDForJSCSSPropertyNameEN3JSC12PropertyNameE
__ZN3WTF9HashTableINS_6StringENS_12KeyValuePairIS1_N7CyberCore15CSSPropertyInfoEEENS_24KeyValuePairKeyExtractorIS5_EENS_10StringHashENS_18HashMapValueTraitsINS_10HashTraitsIS1_EENSA_IS4_EEEESB_E16lookupForWritingINS_22IdentityHashTranslatorIS8_EES1_EENSt3__14pairIPS5_bEERKT0_
__ZN3WTF9HashTableINS_6StringENS_12KeyValuePairIS1_N7CyberCore15CSSPropertyInfoEEENS_24KeyValuePairKeyExtractorIS5_EENS_10StringHashENS_18HashMapValueTraitsINS_10HashTraitsIS1_EENSA_IS4_EEEESB_E3addINS_17HashMapTranslatorISD_S8_EES1_S4_EENS_18HashTableAddResultINS_17HashTableIteratorIS1_S5_S7_S8_SD_SB_EEEERKT0_RKT1_
__ZN3WTF9HashTableINS_6StringENS_12KeyValuePairIS1_N7CyberCore15CSSPropertyInfoEEENS_24KeyValuePairKeyExtractorIS5_EENS_10StringHashENS_18HashMapValueTraitsINS_10HashTraitsIS1_EENSA_IS4_EEEESB_E6lookupINS_22IdentityHashTranslatorIS8_EES1_EEPS5_RKT0_
__ZN3WTF9HashTableINS_6StringENS_12KeyValuePairIS1_N7CyberCore15CSSPropertyInfoEEENS_24KeyValuePairKeyExtractorIS5_EENS_10StringHashENS_18HashMapValueTraitsINS_10HashTraitsIS1_EENSA_IS4_EEEESB_E6rehashEi
__ZN7CyberCoreL25cssPropertyGetterCallbackEPN3JSC9ExecStateENS0_7JSValueEj
__ZN7CyberCoreL17cssPropertyGetterEPN3JSC9ExecStateEPNS_21JSCSSStyleDeclarationEj
__ZN7CyberCore30PropertySetCSSStyleDeclaration27getPropertyCSSValueInternalENS_13CSSPropertyIDE
__ZNK7CyberCore16StylePropertySet19getPropertyCSSValueENS_13CSSPropertyIDE
__ZNK7CyberCore8CSSValue7cssTextEv
__ZNK7CyberCore17CSSPrimitiveValue13customCSSTextEv
__ZN3WTF9HashTableIPKN7CyberCore17CSSPrimitiveValueENS_12KeyValuePairIS4_NS_6StringEEENS_24KeyValuePairKeyExtractorIS7_EENS_7PtrHashIS4_EENS_18HashMapValueTraitsINS_10HashTraitsIS4_EENSD_IS6_EEEESE_E16lookupForWritingINS_22IdentityHashTranslatorISB_EES4_EENSt3__14pairIPS7_bEERKT0_
__ZN3WTF9HashTableIPKN7CyberCore17CSSPrimitiveValueENS_12KeyValuePairIS4_NS_6StringEEENS_24KeyValuePairKeyExtractorIS7_EENS_7PtrHashIS4_EENS_18HashMapValueTraitsINS_10HashTraitsIS4_EENSD_IS6_EEEESE_E3addINS_17HashMapTranslatorISG_SB_EES4_S6_EENS_18HashTableAddResultINS_17HashTableIteratorIS4_S7_S9_SB_SG_SE_EEEERKT0_RKT1_
__ZN3WTF9HashTableIPKN7CyberCore17CSSPrimitiveValueENS_12KeyValuePairIS4_NS_6StringEEENS_24KeyValuePairKeyExtractorIS7_EENS_7PtrHashIS4_EENS_18HashMapValueTraitsINS_10HashTraitsIS4_EENSD_IS6_EEEESE_E6lookupINS_22IdentityHashTranslatorISB_EES4_EEPS7_RKT0_
__ZN3WTF9HashTableIPKN7CyberCore17CSSPrimitiveValueENS_12KeyValuePairIS4_NS_6StringEEENS_24KeyValuePairKeyExtractorIS7_EENS_7PtrHashIS4_EENS_18HashMapValueTraitsINS_10HashTraitsIS4_EENSD_IS6_EEEESE_E6rehashEi
__ZN3JSC9WeakGCMapIPN3WTF10StringImplENS_8JSStringENS1_7PtrHashIS3_EENS1_10HashTraitsIS3_EEE5gcMapEv
__ZN7CyberCoreL19valueOrPropertyNameEi
__ZN7CyberCore12getValueNameEt
__ZN7CyberCore18JSHTMLInputElement18getOwnPropertySlotEPN3JSC6JSCellEPNS1_9ExecStateENS1_12PropertyNameERNS1_12PropertySlotE
__ZN7CyberCore23jsHTMLInputElementValueEPN3JSC9ExecStateENS0_7JSValueENS0_12PropertyNameE
__ZN7CyberCore19JSHTMLOptionElement18getOwnPropertySlotEPN3JSC6JSCellEPNS1_9ExecStateENS1_12PropertyNameERNS1_12PropertySlotE
__ZN7CyberCore27jsHTMLOptionElementSelectedEPN3JSC9ExecStateENS0_7JSValueENS0_12PropertyNameE
__ZN7CyberCore17HTMLOptionElement8selectedEv
__ZN7CyberCore17HTMLSelectElement28updateListItemSelectedStatesEv
__ZNK7CyberCore17HTMLSelectElement15recalcListItemsEb
__ZN3WTF6VectorIPN7CyberCore11HTMLElementELm0ENS_15CrashOnOverflowEE14expandCapacityEmPKS3_
__ZN3WTF6VectorIPN7CyberCore11HTMLElementELm0ENS_15CrashOnOverflowEE15reserveCapacityEm
__ZNK7CyberCore17HTMLOptionElement21isDisabledFormControlEv
__ZN7CyberCore17HTMLOptionElement16setSelectedStateEb
__ZN7CyberCore17HTMLSelectElement23invalidateSelectedItemsEv
__ZN7CyberCore18jsElementClassNameEPN3JSC9ExecStateENS0_7JSValueENS0_12PropertyNameE
__ZN7CyberCoreL15formConstructorERKNS_13QualifiedNameEPNS_8DocumentEPNS_15HTMLFormElementEb
__ZN7CyberCore15HTMLFormElement6createERKNS_13QualifiedNameEPNS_8DocumentE
__ZN7CyberCore15HTMLFormElementC2ERKNS_13QualifiedNameEPNS_8DocumentE
__ZN7CyberCoreL28createHTMLFormElementWrapperEPN3JSC9ExecStateEPNS_17JSDOMGlobalObjectEN3WTF10PassRefPtrINS_11HTMLElementEEE
__ZN7CyberCore15getDOMStructureINS_17JSHTMLFormElementEEEPN3JSC9StructureEPNS2_9ExecStateEPNS_17JSDOMGlobalObjectE
__ZN7CyberCore17JSHTMLFormElement15createPrototypeEPN3JSC9ExecStateEPNS1_14JSGlobalObjectE
__ZN7CyberCore17JSHTMLFormElement6createEPN3JSC9StructureEPNS_17JSDOMGlobalObjectEN3WTF10PassRefPtrINS_15HTMLFormElementEEE
__ZN7CyberCore17JSHTMLFormElementC1EPN3JSC9StructureEPNS_17JSDOMGlobalObjectEN3WTF10PassRefPtrINS_15HTMLFormElementEEE
__ZN7CyberCore17JSHTMLFormElement14finishCreationERN3JSC2VME
__ZN7CyberCore12cacheWrapperINS_15HTMLFormElementEEEvPNS_15DOMWrapperWorldEPT_PNS_12JSDOMWrapperE
__ZN7CyberCore17JSHTMLFormElement18getOwnPropertySlotEPN3JSC6JSCellEPNS1_9ExecStateENS1_12PropertyNameERNS1_12PropertySlotE
__ZN7CyberCore17JSHTMLFormElement18canGetItemsForNameEPN3JSC9ExecStateEPNS_15HTMLFormElementENS1_12PropertyNameE
__ZN7CyberCore15HTMLFormElement16getNamedElementsERKN3WTF12AtomicStringERNS1_6VectorINS1_6RefPtrINS_4NodeEEELm0ENS1_15CrashOnOverflowEEE
__ZN7CyberCore17NodeListsNodeData22addCacheWithAtomicNameINS_26HTMLFormControlsCollectionEEEN3WTF10PassRefPtrIT_EEPNS_4NodeENS_14CollectionTypeE
__ZN7CyberCore26HTMLFormControlsCollection6createEPNS_4NodeENS_14CollectionTypeE
__ZN3WTF9HashTableIPN7CyberCore16LiveNodeListBaseES3_NS_17IdentityExtractorENS_7PtrHashIS3_EENS_10HashTraitsIS3_EES8_E3addINS_22IdentityHashTranslatorIS6_EES3_S3_EENS_18HashTableAddResultINS_17HashTableIteratorIS3_S3_S4_S6_S8_S8_EEEERKT0_RKT1_
__ZN3WTF9HashTableIPN7CyberCore16LiveNodeListBaseES3_NS_17IdentityExtractorENS_7PtrHashIS3_EENS_10HashTraitsIS3_EES8_E6rehashEi
__ZNK7CyberCore14HTMLCollection10namedItemsERKN3WTF12AtomicStringERNS1_6VectorINS1_6RefPtrINS_4NodeEEELm0ENS1_15CrashOnOverflowEEE
__ZNK7CyberCore26HTMLFormControlsCollection15updateNameCacheEv
__ZN3WTF9HashTableIPNS_16AtomicStringImplENS_12KeyValuePairIS2_NS_6OwnPtrINS_6VectorIPN7CyberCore7ElementELm0ENS_15CrashOnOverflowEEEEEEENS_24KeyValuePairKeyExtractorISC_EENS_7PtrHashIS2_EENS_18HashMapValueTraitsINS_10HashTraitsIS2_EENSI_ISB_EEEESJ_E16lookupForWritingINS_22IdentityHashTranslatorISG_EES2_EENSt3__14pairIPSC_bEERKT0_
__ZN3WTF9HashTableIPNS_16AtomicStringImplENS_12KeyValuePairIS2_NS_6OwnPtrINS_6VectorIPN7CyberCore7ElementELm0ENS_15CrashOnOverflowEEEEEEENS_24KeyValuePairKeyExtractorISC_EENS_7PtrHashIS2_EENS_18HashMapValueTraitsINS_10HashTraitsIS2_EENSI_ISB_EEEESJ_E3addINS_17HashMapTranslatorISL_SG_EES2_NS_10PassOwnPtrISA_EEEENS_18HashTableAddResultINS_17HashTableIteratorIS2_SC_SE_SG_SL_SJ_EEEERKT0_RKT1_
__ZN3WTF9HashTableIPNS_16AtomicStringImplENS_12KeyValuePairIS2_NS_6OwnPtrINS_6VectorIPN7CyberCore7ElementELm0ENS_15CrashOnOverflowEEEEEEENS_24KeyValuePairKeyExtractorISC_EENS_7PtrHashIS2_EENS_18HashMapValueTraitsINS_10HashTraitsIS2_EENSI_ISB_EEEESJ_E5clearEv
__ZN3WTF9HashTableIPNS_16AtomicStringImplENS_12KeyValuePairIS2_NS_6OwnPtrINS_6VectorIPN7CyberCore7ElementELm0ENS_15CrashOnOverflowEEEEEEENS_24KeyValuePairKeyExtractorISC_EENS_7PtrHashIS2_EENS_18HashMapValueTraitsINS_10HashTraitsIS2_EENSI_ISB_EEEESJ_E6lookupINS_22IdentityHashTranslatorISG_EES2_EEPSC_RKT0_
__ZN3WTF9HashTableIPNS_16AtomicStringImplENS_12KeyValuePairIS2_NS_6OwnPtrINS_6VectorIPN7CyberCore7ElementELm0ENS_15CrashOnOverflowEEEEEEENS_24KeyValuePairKeyExtractorISC_EENS_7PtrHashIS2_EENS_18HashMapValueTraitsINS_10HashTraitsIS2_EENSI_ISB_EEEESJ_E6rehashEi
__ZN7CyberCore26HTMLFormControlsCollectionD0Ev
__ZN3WTF7HashSetIPN7CyberCore16LiveNodeListBaseENS_7PtrHashIS3_EENS_10HashTraitsIS3_EEE6removeERKS3_
__ZN3WTF9HashTableIPN7CyberCore16LiveNodeListBaseES3_NS_17IdentityExtractorENS_7PtrHashIS3_EENS_10HashTraitsIS3_EES8_E6lookupINS_22IdentityHashTranslatorIS6_EES3_EEPS3_RKT0_
__ZN7CyberCore37getStaticValueSlotEntryWithoutCachingINS_17JSHTMLFormElementEEEPKN3JSC9HashEntryEPNS2_9ExecStateENS2_12PropertyNameE
__ZN7CyberCore24jsHTMLFormElementEnctypeEPN3JSC9ExecStateENS0_7JSValueENS0_12PropertyNameE
__ZN7CyberCoreL24createHTMLElementWrapperEPN3JSC9ExecStateEPNS_17JSDOMGlobalObjectEN3WTF10PassRefPtrINS_11HTMLElementEEE
__ZN7CyberCore13JSHTMLElement6createEPN3JSC9StructureEPNS_17JSDOMGlobalObjectEN3WTF10PassRefPtrINS_11HTMLElementEEE
__ZN7CyberCore13JSHTMLElementC1EPN3JSC9StructureEPNS_17JSDOMGlobalObjectEN3WTF10PassRefPtrINS_11HTMLElementEEE
__ZN7CyberCore12cacheWrapperINS_11HTMLElementEEEvPNS_15DOMWrapperWorldEPT_PNS_12JSDOMWrapperE
__ZN7CyberCore32jsNodePrototypeFunctionCloneNodeEPN3JSC9ExecStateE
__ZN7CyberCore7Element9cloneNodeEb
__ZN7CyberCore7Element40cloneElementWithoutAttributesAndChildrenEv
__ZN7CyberCore8Document13createElementERKNS_13QualifiedNameEb
__ZN7CyberCore7Element26cloneAttributesFromElementERKS0_
__ZN7CyberCore7Element37copyNonAttributePropertiesFromElementERKS0_
__ZN7CyberCore13ContainerNode15cloneChildNodesEPS0_
__ZN7CyberCoreL35cloneChildNodesAvoidingDeleteButtonEPNS_13ContainerNodeES1_PNS_11HTMLElementE
__ZN7CyberCore22jsHTMLElementOuterHTMLEPN3JSC9ExecStateENS0_7JSValueENS0_12PropertyNameE
__ZNK7CyberCore11HTMLElement9outerHTMLEv
__ZN7CyberCore12createMarkupEPKNS_4NodeENS_13EChildrenOnlyEPN3WTF6VectorIPS0_Lm0ENS4_15CrashOnOverflowEEENS_13EAbsoluteURLsEPNS5_INS_13QualifiedNameELm0ES7_EE
__ZN7CyberCore17MarkupAccumulatorC1EPN3WTF6VectorIPNS_4NodeELm0ENS1_15CrashOnOverflowEEENS_13EAbsoluteURLsEPKNS_5RangeE
__ZN7CyberCore17MarkupAccumulator14serializeNodesEPNS_4NodeES2_NS_13EChildrenOnlyEPN3WTF6VectorINS_13QualifiedNameELm0ENS4_15CrashOnOverflowEEE
__ZN7CyberCore17MarkupAccumulator28serializeNodesWithNamespacesEPNS_4NodeES2_NS_13EChildrenOnlyEPKN3WTF7HashMapIPNS4_16AtomicStringImplES7_NS4_7PtrHashIS7_EENS4_10HashTraitsIS7_EESB_EEPNS4_6VectorINS_13QualifiedNameELm0ENS4_15CrashOnOverflowEEE
__ZN7CyberCore17MarkupAccumulator14appendStartTagEPNS_4NodeEPN3WTF7HashMapIPNS3_16AtomicStringImplES6_NS3_7PtrHashIS6_EENS3_10HashTraitsIS6_EESA_EE
__ZN7CyberCore17MarkupAccumulator17appendStartMarkupERN3WTF13StringBuilderEPKNS_4NodeEPNS1_7HashMapIPNS1_16AtomicStringImplES9_NS1_7PtrHashIS9_EENS1_10HashTraitsIS9_EESD_EE
__ZN7CyberCore17MarkupAccumulator13appendElementERN3WTF13StringBuilderEPNS_7ElementEPNS1_7HashMapIPNS1_16AtomicStringImplES8_NS1_7PtrHashIS8_EENS1_10HashTraitsIS8_EESC_EE
__ZN7CyberCore17MarkupAccumulator13appendOpenTagERN3WTF13StringBuilderEPNS_7ElementEPNS1_7HashMapIPNS1_16AtomicStringImplES8_NS1_7PtrHashIS8_EENS1_10HashTraitsIS8_EESC_EE
__ZNK7CyberCore7Element22nodeNamePreservingCaseEv
__ZNK7CyberCore7Element13hasAttributesEv
__ZN7CyberCore17MarkupAccumulator22appendCustomAttributesERN3WTF13StringBuilderEPNS_7ElementEPNS1_7HashMapIPNS1_16AtomicStringImplES8_NS1_7PtrHashIS8_EENS1_10HashTraitsIS8_EESC_EE
__ZN7CyberCore17MarkupAccumulator14appendCloseTagERN3WTF13StringBuilderEPNS_7ElementE
__ZNK7CyberCore11HTMLElement19ieForbidsInsertHTMLEv
__ZN7CyberCore17MarkupAccumulator12appendEndTagEPNS_4NodeE
__ZN7CyberCore17MarkupAccumulator15appendEndMarkupERN3WTF13StringBuilderEPKNS_4NodeE
__ZN7CyberCore17MarkupAccumulatorD1Ev
__ZN7CyberCore18JSHTMLInputElement3putEPN3JSC6JSCellEPNS1_9ExecStateENS1_12PropertyNameENS1_7JSValueERNS1_15PutPropertySlotE
__ZN3JSC8putEntryIN7CyberCore18JSHTMLInputElementEEEvPNS_9ExecStateEPKNS_9HashEntryENS_12PropertyNameENS_7JSValueEPT_b
__ZN7CyberCore28setJSHTMLInputElementCheckedEPN3JSC9ExecStateEPNS0_8JSObjectENS0_7JSValueE
__ZN7CyberCore16HTMLInputElement10setCheckedEbNS_22TextFieldEventBehaviorE
__ZN7CyberCore27JSHTMLInputElementPrototype18getOwnPropertySlotEPN3JSC6JSCellEPNS1_9ExecStateENS1_12PropertyNameERNS1_12PropertySlotE
__ZN7CyberCore16HTMLInputElement37copyNonAttributePropertiesFromElementERKNS_7ElementE
__ZN7CyberCore25jsHTMLInputElementCheckedEPN3JSC9ExecStateENS0_7JSValueENS0_12PropertyNameE
__ZN7CyberCore19JSHTMLSelectElement3putEPN3JSC6JSCellEPNS1_9ExecStateENS1_12PropertyNameENS1_7JSValueERNS1_15PutPropertySlotE
__ZN3JSC8putEntryIN7CyberCore19JSHTMLSelectElementEEEvPNS_9ExecStateEPKNS_9HashEntryENS_12PropertyNameENS_7JSValueEPT_b
__ZN7CyberCore30setJSHTMLSelectElementDisabledEPN3JSC9ExecStateEPNS0_8JSObjectENS0_7JSValueE
__ZN7CyberCore7Element19setBooleanAttributeERKNS_13QualifiedNameEb
__ZN7CyberCore7Element12setAttributeERKNS_13QualifiedNameERKN3WTF12AtomicStringE
__ZNK7CyberCore17HTMLSelectElement23isPresentationAttributeERKNS_13QualifiedNameE
__ZN7CyberCore17HTMLSelectElement14parseAttributeERKNS_13QualifiedNameERKN3WTF12AtomicStringE
__ZN7CyberCore22HTMLFormControlElement14parseAttributeERKNS_13QualifiedNameERKN3WTF12AtomicStringE
__ZN7CyberCore22HTMLFormControlElement24disabledAttributeChangedEv
__ZN7CyberCore27jsHTMLOptionElementDisabledEPN3JSC9ExecStateENS0_7JSValueENS0_12PropertyNameE
__ZN7CyberCore26setJSHTMLInputElementValueEPN3JSC9ExecStateEPNS0_8JSObjectENS0_7JSValueE
__ZN7CyberCore16HTMLInputElement8setValueERKN3WTF6StringERiNS_22TextFieldEventBehaviorE
__ZNK7CyberCore9InputType12isFileUploadEv
__ZN7CyberCore16HTMLInputElement8setValueERKN3WTF6StringENS_22TextFieldEventBehaviorE
__ZN7CyberCore9InputType11canSetValueERKN3WTF6StringE
__ZN7CyberCore16ScopedEventQueue8instanceEv
__ZN3WTF10PassOwnPtrIN7CyberCore16ScopedEventQueueEED2Ev
__ZN3WTF6OwnPtrIN7CyberCore16ScopedEventQueueEED2Ev
__ZN7CyberCore16ScopedEventQueue21incrementScopingLevelEv
__ZNK7CyberCore18TextFieldInputType13sanitizeValueERKN3WTF6StringE
__ZN7CyberCoreL16isASCIILineBreakEt
__ZN7CyberCore31numCharactersInGraphemeClustersERKN3WTF6StringEj
__ZNK7CyberCore9InputType13fallbackValueEv
__ZN7CyberCore18TextFieldInputType8setValueERKN3WTF6StringEbNS_22TextFieldEventBehaviorE
__ZN7CyberCore9InputType8setValueERKN3WTF6StringEbNS_22TextFieldEventBehaviorE
__ZN7CyberCore16HTMLInputElement16setValueInternalERKN3WTF6StringENS_22TextFieldEventBehaviorE
__ZNK7CyberCore17BaseTextInputType10isTextTypeEv
__ZNK7CyberCore16HTMLInputElement9maxLengthEv
__ZNK7CyberCore17BaseTextInputType15patternMismatchERKN3WTF6StringE
__ZNK7CyberCore18TextFieldInputType12valueMissingERKN3WTF6StringE
__ZN7CyberCore18TextFieldInputType20updateInnerTextValueEv
__ZNK7CyberCore16HTMLInputElement14suggestedValueEv
__ZNK7CyberCore22HTMLFormControlElement31formControlValueMatchesRendererEv
__ZNK7CyberCore9InputType12visibleValueEv
__ZN7CyberCore26HTMLTextFormControlElement17setInnerTextValueERKN3WTF6StringE
__ZNK7CyberCore16HTMLInputElement17isTextFormControlEv
__ZNK7CyberCore16HTMLInputElement11isTextFieldEv
__ZNK7CyberCore18TextFieldInputType11isTextFieldEv
__ZNK7CyberCore26HTMLTextFormControlElement14innerTextValueEv
__ZNK7CyberCore16HTMLInputElement16innerTextElementEv
__ZNK7CyberCore18TextFieldInputType16innerTextElementEv
__ZN7CyberCore11HTMLElement12setInnerTextERKN3WTF6StringERi
__ZN7CyberCore23replaceChildrenWithTextEPNS_13ContainerNodeERKN3WTF6StringERi
__ZN7CyberCore4Text6createEPNS_8DocumentERKN3WTF6StringE
__ZN7CyberCore26HTMLTextFormControlElement27updatePlaceholderVisibilityEb
__ZNK7CyberCore16HTMLInputElement19supportsPlaceholderEv
__ZNK7CyberCore17BaseTextInputType19supportsPlaceholderEv
__ZNK7CyberCore16HTMLInputElement18placeholderElementEv
__ZNK7CyberCore18TextFieldInputType18placeholderElementEv
__ZN7CyberCore16HTMLInputElement21updatePlaceholderTextEv
__ZN7CyberCore18TextFieldInputType21updatePlaceholderTextEv
__ZNK7CyberCore26HTMLTextFormControlElement19strippedPlaceholderEv
__ZN7CyberCore16ScopedEventQueue21decrementScopingLevelEv
__ZN7CyberCore16ScopedEventQueue17dispatchAllEventsEv
__ZN7CyberCore14RadioInputType6createEPNS_16HTMLInputElementE
__ZNK7CyberCore14RadioInputType15formControlTypeEv
__ZN7CyberCore4TextD0Ev
__ZNK7CyberCore14RadioInputType12valueMissingERKN3WTF6StringE
__ZN7CyberCore16HTMLInputElement28isInRequiredRadioButtonGroupEv
__ZNK7CyberCore14RadioInputType13isRadioButtonEv
__ZN7CyberCore9InputType21valueAttributeChangedEv
__ZNK7CyberCore9InputType13sanitizeValueERKN3WTF6StringE
__ZN7CyberCore17NodeListsNodeData16invalidateCachesEPKNS_13QualifiedNameE
__ZNK7CyberCore16LiveNodeListBase15invalidateCacheEv
__ZN7CyberCore49jsDocumentPrototypeFunctionCreateDocumentFragmentEPN3JSC9ExecStateE
__ZN7CyberCore8Document22createDocumentFragmentEv
__ZN7CyberCore15getDOMStructureINS_18JSDocumentFragmentEEEPN3JSC9StructureEPNS2_9ExecStateEPNS_17JSDOMGlobalObjectE
__ZN7CyberCore18JSDocumentFragment15createPrototypeEPN3JSC9ExecStateEPNS1_14JSGlobalObjectE
__ZN7CyberCore18JSDocumentFragment6createEPN3JSC9StructureEPNS_17JSDOMGlobalObjectEN3WTF10PassRefPtrINS_16DocumentFragmentEEE
__ZN7CyberCore18JSDocumentFragmentC1EPN3JSC9StructureEPNS_17JSDOMGlobalObjectEN3WTF10PassRefPtrINS_16DocumentFragmentEEE
__ZN7CyberCore18JSDocumentFragment14finishCreationERN3JSC2VME
__ZN7CyberCore12cacheWrapperINS_16DocumentFragmentEEEvPNS_15DOMWrapperWorldEPT_PNS_12JSDOMWrapperE
__ZN7CyberCore18JSDocumentFragment18getOwnPropertySlotEPN3JSC6JSCellEPNS1_9ExecStateENS1_12PropertyNameERNS1_12PropertySlotE
__ZN7CyberCore27JSDocumentFragmentPrototype18getOwnPropertySlotEPN3JSC6JSCellEPNS1_9ExecStateENS1_12PropertyNameERNS1_12PropertySlotE
__ZN7CyberCore15jsNodeLastChildEPN3JSC9ExecStateENS0_7JSValueENS0_12PropertyNameE
__ZNK7CyberCore16DocumentFragment16childTypeAllowedENS_4Node8NodeTypeE
__ZN7CyberCore13ContainerNode11removeChildEPNS_4NodeERi
__ZN7CyberCore8Document17nodeWillBeRemovedEPNS_4NodeE
__ZN7CyberCore16DocumentFragment9cloneNodeEb
__ZN7CyberCore20ShareableElementDataC2ERKNS_17UniqueElementDataE
__ZN7CyberCore11ElementDataC2ERKS0_b
__ZN3WTF6VectorIN7CyberCore9AttributeELm4ENS_15CrashOnOverflowEED2Ev
__ZN7CyberCore11ElementDataD2Ev
__ZNK7CyberCore9InputType19supportsPlaceholderEv
__ZN7CyberCore34jsNodePrototypeFunctionRemoveChildEPN3JSC9ExecStateE
__ZN7CyberCore6JSNode11removeChildEPN3JSC9ExecStateE
__ZN7CyberCore4Node11removeChildEPS0_Ri
__ZN7CyberCore15HTMLLinkElementD0Ev
__ZN7CyberCore15HTMLLinkElementD2Ev
__ZN7CyberCore11EventSenderINS_15HTMLLinkElementEE11cancelEventEPS1_
__ZN7CyberCore20DOMSettableTokenList5derefEv
__ZN7CyberCore20DOMSettableTokenListD0Ev
__ZN7CyberCore10LinkLoaderD1Ev
__ZN7CyberCore16HTMLTableElementD0Ev
__ZN7CyberCore23MutableStylePropertySet6createENS_13CSSParserModeE
__ZN7CyberCore21JSCSSStyleDeclaration3putEPN3JSC6JSCellEPNS1_9ExecStateENS1_12PropertyNameENS1_7JSValueERNS1_15PutPropertySlotE
__ZN7CyberCore21JSCSSStyleDeclaration11putDelegateEPN3JSC9ExecStateENS1_12PropertyNameENS1_7JSValueERNS1_15PutPropertySlotE
__ZN7CyberCore8Settings42shouldRespectPriorityInCSSAttributeSettersEv
__ZN7CyberCore30PropertySetCSSStyleDeclaration19setPropertyInternalENS_13CSSPropertyIDERKN3WTF6StringEbRi
__ZN7CyberCore12_GLOBAL__N_127StyleAttributeMutationScopeC1EPNS_30PropertySetCSSStyleDeclarationE
__ZNK7CyberCore25InlineCSSStyleDeclaration13parentElementEv
__ZN7CyberCore30PropertySetCSSStyleDeclaration10willMutateEv
__ZNK7CyberCore25InlineCSSStyleDeclaration16parentStyleSheetEv
__ZN7CyberCore23MutableStylePropertySet11setPropertyENS_13CSSPropertyIDERKN3WTF6StringEbPNS_18StyleSheetContentsE
__ZN7CyberCore9CSSParser10parseValueEPNS_23MutableStylePropertySetENS_13CSSPropertyIDERKN3WTF6StringEbNS_13CSSParserModeEPNS_18StyleSheetContentsE
__ZN7CyberCore23MutableStylePropertySet17addParsedPropertyERKNS_11CSSPropertyE
__ZNK7CyberCore16StylePropertySet19propertyIsImportantENS_13CSSPropertyIDE
__ZN7CyberCore23MutableStylePropertySet11setPropertyERKNS_11CSSPropertyEPS1_
__ZN7CyberCore23MutableStylePropertySet23removeShorthandPropertyENS_13CSSPropertyIDE
__ZN7CyberCore23MutableStylePropertySet21findCSSPropertyWithIDENS_13CSSPropertyIDE
__ZN7CyberCore23MutableStylePropertySet30appendPrefixingVariantPropertyERKNS_11CSSPropertyE
__ZN7CyberCore25InlineCSSStyleDeclaration9didMutateENS_30PropertySetCSSStyleDeclaration12MutationTypeE
__ZN3WTF6OwnPtrINS_7HashMapIPN7CyberCore8CSSValueENS_6RefPtrIS3_EENS_7PtrHashIS4_EENS_10HashTraitsIS4_EENS9_IS6_EEEEE5clearEv
__ZN7CyberCore12_GLOBAL__N_127StyleAttributeMutationScopeD1Ev
__ZN7CyberCore44jsDOMWindowPrototypeFunctionGetComputedStyleEPN3JSC9ExecStateE
__ZN7CyberCore9toElementEN3JSC7JSValueE
__ZN7CyberCore37valueToStringWithUndefinedOrNullCheckEPN3JSC9ExecStateENS0_7JSValueE
__ZNK7CyberCore9DOMWindow16getComputedStyleEPNS_7ElementERKN3WTF6StringE
__ZN7CyberCore27CSSComputedStyleDeclarationC1EN3WTF10PassRefPtrINS_4NodeEEEbRKNS1_6StringE
__ZN7CyberCore27CSSComputedStyleDeclarationC2EN3WTF10PassRefPtrINS_4NodeEEEbRKNS1_6StringE
__ZN7CyberCore11CSSSelector8pseudoIdENS0_10PseudoTypeE
__ZN7CyberCore27CSSComputedStyleDeclaration3refEv
__ZN7CyberCore27CSSComputedStyleDeclaration5derefEv
__ZN7CyberCore27CSSComputedStyleDeclaration27getPropertyCSSValueInternalENS_13CSSPropertyIDE
__ZNK7CyberCore22ComputedStyleExtractor13propertyValueENS_13CSSPropertyIDENS_13EUpdateLayoutE
__ZNK7CyberCore9RenderBox25cachedSizeForOverflowClipEv
__ZNK7CyberCore9RenderBox21scrolledContentOffsetEv
__ZNK7CyberCore12RenderObject20localToContainerQuadERKNS_9FloatQuadEPKNS_22RenderLayerModelObjectEjPb
__ZNK7CyberCore9RenderBox19mapLocalToContainerEPKNS_22RenderLayerModelObjectERNS_14TransformStateEjPb
__ZNK7CyberCore14TransformState11mappedPointEPb
__ZN7CyberCore10FloatPoint4moveERKNS_10LayoutSizeE
__ZNK7CyberCore9RenderBox19offsetFromContainerEPNS_12RenderObjectERKNS_11LayoutPointEPb
__ZNK7CyberCore20RenderBoxModelObject11paintOffsetEv
__ZNK7CyberCore10RenderView19mapLocalToContainerEPKNS_22RenderLayerModelObjectERNS_14TransformStateEjPb
__ZN7CyberCore14TransformState7flattenEPb
__ZN7CyberCore14TransformState22applyAccumulatedOffsetEv
__ZN7CyberCore14TransformState26translateMappedCoordinatesERKNS_10LayoutSizeE
__ZNK7CyberCore9RenderBox30computePercentageLogicalHeightERKNS_6LengthE
__ZNK7CyberCore9RenderBox46skipContainingBlockForPercentHeightCalculationEPKS0_
__ZNK7CyberCore9RenderBox40constrainContentBoxLogicalHeightByMinMaxENS_10LayoutUnitE
__ZNK7CyberCore9RenderBox27computeContentLogicalHeightERKNS_6LengthE
__ZN7CyberCore11RenderLayer27updateScrollInfoAfterLayoutEv
__ZN7CyberCore11RenderLayer23computeScrollDimensionsEv
__ZNK7CyberCore11RenderLayer13overflowRightEv
__ZNK7CyberCore11RenderLayer12overflowLeftEv
__ZNK7CyberCore11RenderLayer14overflowBottomEv
__ZNK7CyberCore11RenderLayer11overflowTopEv
__ZN7CyberCore14ScrollableArea15setScrollOriginERKNS_8IntPointE
__ZNK7CyberCore11RenderLayer17clampScrollOffsetERKNS_7IntSizeE
__ZNK7CyberCore9RenderBox23pixelSnappedClientWidthEv
__ZNK7CyberCore9RenderBox24pixelSnappedClientHeightEv
__ZN7CyberCore11RenderLayer27updateScrollbarsAfterLayoutEv
__ZNK7CyberCore11RenderLayer31hasScrollableHorizontalOverflowEv
__ZNK7CyberCore11RenderLayer29hasScrollableVerticalOverflowEv
__ZN7CyberCore11RenderLayer23updateScrollableAreaSetEb
__ZN7CyberCore27CSSComputedStyleDeclaration24getPropertyValueInternalENS_13CSSPropertyIDE
__ZNK7CyberCore27CSSComputedStyleDeclaration16getPropertyValueENS_13CSSPropertyIDE
__ZN7CyberCore20jsDocumentReadyStateEPN3JSC9ExecStateENS0_7JSValueENS0_12PropertyNameE
__ZNK7CyberCore8Document10readyStateEv
__ZN7CyberCore19jsStringOrUndefinedEPN3JSC9ExecStateERKN3WTF6StringE
__ZN7CyberCore39jsNodePrototypeFunctionAddEventListenerEPN3JSC9ExecStateE
__ZN7CyberCore15JSEventListenerC1EPN3JSC8JSObjectES3_bPNS_15DOMWrapperWorldE
__ZN7CyberCore15JSEventListenerC2EPN3JSC8JSObjectES3_bPNS_15DOMWrapperWorldE
__ZN7CyberCore28ThreadLocalInspectorCounters7currentEv
__ZN7CyberCore4Node16addEventListenerERKN3WTF12AtomicStringENS1_10PassRefPtrINS_13EventListenerEEEb
__ZN7CyberCore11EventTarget16addEventListenerERKN3WTF12AtomicStringENS1_10PassRefPtrINS_13EventListenerEEEb
__ZN7CyberCore4Node21ensureEventTargetDataEv
__ZN7CyberCore16EventListenerMap3addERKN3WTF12AtomicStringENS1_10PassRefPtrINS_13EventListenerEEEb
__ZN3WTF10PassOwnPtrINS_6VectorIN7CyberCore23RegisteredEventListenerELm1ENS_15CrashOnOverflowEEEED2Ev
__ZN7CyberCoreL19addListenerToVectorEPN3WTF6VectorINS_23RegisteredEventListenerELm1ENS0_15CrashOnOverflowEEENS0_10PassRefPtrINS_13EventListenerEEEb
__ZN7CyberCore8Document23addListenerTypeIfNeededERKN3WTF12AtomicStringE
__ZN7CyberCore44jsDOMWindowPrototypeFunctionAddEventListenerEPN3JSC9ExecStateE
__ZN7CyberCore11JSDOMWindow16addEventListenerEPN3JSC9ExecStateE
__ZN7CyberCore9DOMWindow16addEventListenerERKN3WTF12AtomicStringENS1_10PassRefPtrINS_13EventListenerEEEb
__ZN7CyberCore9DOMWindow21ensureEventTargetDataEv
__ZN7CyberCore25jsDocumentDocumentElementEPN3JSC9ExecStateENS0_7JSValueENS0_12PropertyNameE
__ZN7CyberCoreL28createHTMLHtmlElementWrapperEPN3JSC9ExecStateEPNS_17JSDOMGlobalObjectEN3WTF10PassRefPtrINS_11HTMLElementEEE
__ZN7CyberCore15getDOMStructureINS_17JSHTMLHtmlElementEEEPN3JSC9StructureEPNS2_9ExecStateEPNS_17JSDOMGlobalObjectE
__ZN7CyberCore17JSHTMLHtmlElement15createPrototypeEPN3JSC9ExecStateEPNS1_14JSGlobalObjectE
__ZN7CyberCore17JSHTMLHtmlElement6createEPN3JSC9StructureEPNS_17JSDOMGlobalObjectEN3WTF10PassRefPtrINS_15HTMLHtmlElementEEE
__ZN7CyberCore17JSHTMLHtmlElementC1EPN3JSC9StructureEPNS_17JSDOMGlobalObjectEN3WTF10PassRefPtrINS_15HTMLHtmlElementEEE
__ZN7CyberCore17JSHTMLHtmlElement14finishCreationERN3JSC2VME
__ZN7CyberCore12cacheWrapperINS_15HTMLHtmlElementEEEvPNS_15DOMWrapperWorldEPT_PNS_12JSDOMWrapperE
__ZN7CyberCore17JSHTMLHtmlElement18getOwnPropertySlotEPN3JSC6JSCellEPNS1_9ExecStateENS1_12PropertyNameERNS1_12PropertySlotE
__ZN7CyberCore16jsNodeChildNodesEPN3JSC9ExecStateENS0_7JSValueENS0_12PropertyNameE
__ZN7CyberCore4Node10childNodesEv
__ZN7CyberCore17NodeListsNodeData19ensureChildNodeListEPNS_4NodeE
__ZN7CyberCore13ChildNodeListC1EN3WTF10PassRefPtrINS_4NodeEEE
__ZN7CyberCoreL28createHTMLHeadElementWrapperEPN3JSC9ExecStateEPNS_17JSDOMGlobalObjectEN3WTF10PassRefPtrINS_11HTMLElementEEE
__ZN7CyberCore15getDOMStructureINS_17JSHTMLHeadElementEEEPN3JSC9StructureEPNS2_9ExecStateEPNS_17JSDOMGlobalObjectE
__ZN7CyberCore17JSHTMLHeadElement15createPrototypeEPN3JSC9ExecStateEPNS1_14JSGlobalObjectE
__ZN7CyberCore17JSHTMLHeadElement6createEPN3JSC9StructureEPNS_17JSDOMGlobalObjectEN3WTF10PassRefPtrINS_15HTMLHeadElementEEE
__ZN7CyberCore17JSHTMLHeadElementC1EPN3JSC9StructureEPNS_17JSDOMGlobalObjectEN3WTF10PassRefPtrINS_15HTMLHeadElementEEE
__ZN7CyberCore17JSHTMLHeadElement14finishCreationERN3JSC2VME
__ZN7CyberCore12cacheWrapperINS_15HTMLHeadElementEEEvPNS_15DOMWrapperWorldEPT_PNS_12JSDOMWrapperE
__ZN7CyberCoreL28createHTMLBodyElementWrapperEPN3JSC9ExecStateEPNS_17JSDOMGlobalObjectEN3WTF10PassRefPtrINS_11HTMLElementEEE
__ZN7CyberCore15getDOMStructureINS_17JSHTMLBodyElementEEEPN3JSC9StructureEPNS2_9ExecStateEPNS_17JSDOMGlobalObjectE
__ZN7CyberCore17JSHTMLBodyElement15createPrototypeEPN3JSC9ExecStateEPNS1_14JSGlobalObjectE
__ZN7CyberCore17JSHTMLBodyElement6createEPN3JSC9StructureEPNS_17JSDOMGlobalObjectEN3WTF10PassRefPtrINS_15HTMLBodyElementEEE
__ZN7CyberCore17JSHTMLBodyElementC1EPN3JSC9StructureEPNS_17JSDOMGlobalObjectEN3WTF10PassRefPtrINS_15HTMLBodyElementEEE
__ZN7CyberCore17JSHTMLBodyElement14finishCreationERN3JSC2VME
__ZN7CyberCore12cacheWrapperINS_15HTMLBodyElementEEEvPNS_15DOMWrapperWorldEPT_PNS_12JSDOMWrapperE
__ZN7CyberCore17JSHTMLHeadElement18getOwnPropertySlotEPN3JSC6JSCellEPNS1_9ExecStateENS1_12PropertyNameERNS1_12PropertySlotE
__ZN7CyberCore35jsNodePrototypeFunctionInsertBeforeEPN3JSC9ExecStateE
__ZN7CyberCore6JSNode12insertBeforeEPN3JSC9ExecStateE
__ZN7CyberCore4Node12insertBeforeEN3WTF10PassRefPtrIS0_EEPS0_RiNS_14AttachBehaviorE
__ZN7CyberCore13ContainerNode12insertBeforeEN3WTF10PassRefPtrINS_4NodeEEEPS3_RiNS_14AttachBehaviorE
__ZN7CyberCore4Node10lazyAttachENS0_17ShouldSetAttachedE
__ZN7CyberCore41jsDocumentPrototypeFunctionGetElementByIdEPN3JSC9ExecStateE
__ZNK7CyberCore8Document14getElementByIdERKN3WTF12AtomicStringE
__ZNK7CyberCore9TreeScope14getElementByIdERKN3WTF12AtomicStringE
__ZNK7CyberCore18DocumentOrderedMap14getElementByIdEPN3WTF16AtomicStringImplEPKNS_9TreeScopeE
__ZNK7CyberCore18DocumentOrderedMap3getIXadL_ZNS_12keyMatchesIdEPN3WTF16AtomicStringImplEPNS_7ElementEEEEES6_S4_PKNS_9TreeScopeE
